(dp1
S'output'
p2
S"<type 'exceptions.NameError'> global name 'msgid' is not defined"
p3
sS'layer'
p4
S'/home/nishant/Acaedmics/Sem-2/ITWS-2/web2py/applications/backimg/controllers/default.py'
p5
sS'code'
p6
S'# -*- coding: utf-8 -*-\n# this file is released under public domain and you can use without limitations\n\n#########################################################################\n## This is a samples controller\n## - index is the default action of any application\n## - user is required for authentication and authorization\n## - download is for downloading files uploaded in the db (does streaming)\n## - call exposes all registered services (none by default)\n#########################################################################\n\n@auth.requires_login()\n#@auth.requires_verify_email()\ndef index():\n    r=db(auth.user_id == db.auth_membership.user_id).select(db.auth_membership.group_id)\n    s=db(auth.user_id == db.details.myid).select(db.details.myid)\n    j=db(auth.user_id == db.organisation.myid).select(db.organisation.myid)\n    t=db(auth.user_id == db.details.myid).select()\n    n = len(s)\n    m=len(j)\n\t#if auth.user_id == db.auth_membership.user_id and db.auth_membership.group_id == 1:\n    if r[0][\'group_id\'] == 1 and n == 0:\n        redirect(URL(add_student))\n    elif r[0][\'group_id\'] == 1 and n!=0:\n        return dict(message=T(\'Welcome to Resume Builder!!\'),t=t)\n    elif r[0][\'group_id\'] == 2 and m!=0:\n#\t\treturn dict(message=T(\'Choose your students!\'))\n        redirect(URL(index1))\n    elif r[0][\'group_id\'] == 2 and m == 0:\n        redirect(URL(add_organisation))\n    else:\n\t\t#return dict(message=T(\'Your account has not been activated yet!\'))\n        redirect(URL(index2))\n\n@auth.requires_login()\ndef index1():\n    return dict(message=T(\'Choose Your students!\'))\n\n@auth.requires_login()\ndef index2():\n    return dict(message=T(\'Your account has not been activated by our admin yet!\'))\n    \ndef user():\n    """\n    exposes:\n    http://..../[app]/default/user/login\n    http://..../[app]/default/user/logout\n    http://..../[app]/default/user/register\n    http://..../[app]/default/user/profile\n    http://..../[app]/default/user/retrieve_password\n    http://..../[app]/default/user/change_password\n    use @auth.requires_login()\n        @auth.requires_membership(\'group name\')\n        @auth.requires_permission(\'read\',\'table name\',record_id)\n    to decorate functions that need access control\n    """\n    return dict(form=auth())\n\n@auth.requires_login()\ndef download():\n    """\n    allows downloading of uploaded files\n    http://..../[app]/default/download/[filename]\n    """\n    return response.download(request, db)\n\n\ndef call():\n    """\n    exposes services. for example:\n    http://..../[app]/default/call/jsonrpc\n    decorate with @services.jsonrpc the functions to expose\n    supports xml, json, xmlrpc, jsonrpc, amfrpc, rss, csv\n    """\n    return service()\n\n\n@auth.requires_signature()\ndef data():\n    """\n    http://..../[app]/default/data/tables\n    http://..../[app]/default/data/create/[table]\n    http://..../[app]/default/data/read/[table]/[id]\n    http://..../[app]/default/data/update/[table]/[id]\n    http://..../[app]/default/data/delete/[table]/[id]\n    http://..../[app]/default/data/select/[table]\n    http://..../[app]/default/data/search/[table]\n    but URLs must be signed, i.e. linked with\n      A(\'table\',_href=URL(\'data/tables\',user_signature=True))\n    or with the signed load operator\n      LOAD(\'default\',\'data.load\',args=\'tables\',ajax=True,user_signature=True)\n    """\n    return dict(form=crud())\n    \n@auth.requires_login()\n@auth.requires_membership(\'Student\')\ndef add_student():\n    form = SQLFORM(db.details)\t\t\t#use SQLFORM if you want to insert it as a record too. SQLFORM.factory won\'t insert. It just shows the form and uses it as a query.\n    r=db(auth.user_id==db.auth_user.id).select(db.auth_user.first_name,db.auth_user.last_name)\n    form.vars.name=r[0][\'first_name\']+\' \'+r[0][\'last_name\']\n    form.vars.myid=auth.user_id\n    form.vars.picture="photo.jpg"\n    if form.accepts(request.vars,session):\n\t#redirect(URL(r=request, f=\'student_details?rollno=%d\' % form.vars.rollno))\n        #return dict(message=T(\'Welcome to Resume Builder!!\'))\n        redirect(URL(index))\n\t#redirect(URL(student_details))\n    elif form.errors:\n        response.flash=\'Errors in form\'\n    return dict(form=form)\n\n@auth.requires_login()\n@auth.requires_membership(\'Student\')\ndef edit_student():\n    #studentid = int(request.args(0)) # or int(request.vars.studentid)fpff\n    r=db(auth.user_id==db.details.myid).select(db.details.id)\n    myid=r[0][\'id\']\n    form = SQLFORM(db.details, myid, showid=False, upload=URL(\'download\'))\n    r=db(auth.user_id==db.auth_user.id).select(db.auth_user.first_name,db.auth_user.last_name)\n    form.vars.name=r[0][\'first_name\']+\' \'+r[0][\'last_name\']\n    form.vars.picture="photo.jpg"\n    if form.accepts(request.vars,session):\n        #redirect(URL(r=request, f=\'student_details?rollno=%d\' % form.vars.rollno))\n        redirect(URL(index))\n    elif form.errors:\n        response.flash=\'Errors in form\'\n    return dict(form=form)\n    \n@auth.requires_login()    \n@auth.requires_membership(\'Student\')\ndef student_details():\n\treturn dict(details = db(auth.user_id==db.details.myid).select(db.details.name, db.details.cg))\n\n@auth.requires_login()\n@auth.requires_membership(\'Organisation\')\ndef send_msg():\n    form=SQLFORM(db.msg)\n    temp=db(auth.user_id == db.auth_user.id).select(db.auth_user.first_name, db.auth_user.last_name)\n    company=temp[0][\'first_name\'] + \' \' + temp[0][\'last_name\']\n    form.vars.sender=company\n    form.vars.senderid=auth.user_id\n    if form.accepts(request.vars,session):\n        redirect(URL(index))\n        session.flash=\'Message Successfully sent\'\n    #else:\n     #   response.flash=\'Error in filling form!\'\n    return dict(form=form)\n\n@auth.requires_login()\n@auth.requires_membership(\'Student\')\ndef view_msg():\n    r=db((auth.user_id == db.details.myid) & (db.details.id == db.msg.name)).select(db.msg.senderid, db.msg.sender, db.msg.sub, db.msg.msg)\n    dict_companies={}\n    for i in r:\n        if i.sender in dict_companies.keys():\n            dict_companies[i.sender].append(i)\n        else:\n            dict_companies[i.sender]=[]\n            dict_companies[i.sender].append(i)\n    return dict(r=r,dict_companies=dict_companies)\n\n@auth.requires_login()\n@auth.requires_membership(\'Student\')\ndef add_project():\n    form=SQLFORM(db.project)\n    form.vars.myid=auth.user_id\n    if form.accepts(request.vars,session):\n        redirect(URL(index))\n    #else:\n     #   response.flash=\'Error(s) in filling form\'\n    return dict(form=form)\n\n@auth.requires_login()\n@auth.requires_membership(\'Organisation\')\ndef add_organisation():\n    r=db(auth.user_id==db.auth_user.id).select(db.auth_user.first_name,db.auth_user.last_name)\n    form=SQLFORM(db.organisation)\n    form.vars.name=r[0][\'first_name\']+\' \'+r[0][\'last_name\']\n    form.vars.myid=auth.user_id\n    form.vars.logo="photo.jpg"\n    if form.accepts(request.vars,session):\n        redirect(URL(index))\n    #else:\n     #   response.flash=\'Error(s) in filling form\'\n    return dict(form=form)\n    \n@auth.requires_login()\n@auth.requires_membership(\'Organisation\')\ndef edit_organisation():\n    r=db(auth.user_id==db.organisation.myid).select(db.organisation.id)\n    myid=r[0][\'id\']\n    form = SQLFORM(db.organisation, myid, showid=False, upload=URL(\'download\'))\n    r=db(auth.user_id==db.auth_user.id).select(db.auth_user.first_name,db.auth_user.last_name)\n    form.vars.name=r[0][\'first_name\']+\' \'+r[0][\'last_name\']\n    if form.accepts(request.vars,session):\n        #redirect(URL(r=request, f=\'student_details?rollno=%d\' % form.vars.rollno))\n        redirect(URL(index))\n    elif form.errors:\n        response.flash=\'Errors in form\'\n    return dict(form=form)\n    \n@auth.requires_login()\n@auth.requires_membership(\'Organisation\')    \ndef add_vacancies():\n    form=SQLFORM(db.vacancies)\n    form.vars.myid=auth.user_id\n    if form.accepts(request.vars,session):\n        redirect(URL(index))\n    #else:\n     #   response.flash=\'Error(s) in filling form\'\n    return dict(form=form)\n    \n@auth.requires_login()\n@auth.requires_membership(\'Organisation\')\ndef search():\n    db.details.name.readable=True\n    db.details.myid.readable=False\n    grid=SQLFORM.grid(db.details,left=db.project.on(db.project.myid == db.details.myid),sortable=True,deletable=False,create=False,editable=False,fields=[db.details.current_year,db.details.name,db.details.cg,db.details.college,db.details.myid],links=[lambda row:A(\'Download Resume\',_href=URL(\'default\',\'mypdf3\',args=[row.myid]))],csv=False)\n    #grid=SQLFORM.smartgrid(db.details,linked_tables=[\'project\'],editable=False,create=False,deletable=False,fields=[db.details.current_year,db.details.name,db.details.cg,db.details.college,db.project.org])\n    return dict(grid=grid)\n\n\n@auth.requires_login()\n@auth.requires_membership(\'Student\')\ndef add_achievement():\n    form=SQLFORM(db.achievements)\n    form.vars.myid=auth.user_id\n    if form.accepts(request.vars,session):\n        redirect(URL(index))\n    #else:\n     #   response.flash=\'Error(s) in filling form\'\n    return dict(form=form)\n    \ndef single_company_msg():\n    r=db((msgid==db.msg.senderid) & (db.suth_user.id == auth.user_id)).select(db.msg.msg_date,db.msg.sub,db.msg.msg)\n    #for msg in dict_companies[i]:\n        #print \'hi!\'\n    return dict(r=r)   \n    \ndef mypdf():\n    r=db(auth.user_id==db.details.myid).select()\n    s=db(auth.user_id==db.project.myid).select()\n    t=db(auth.user_id==db.achievements.myid).select()\n    u=db(db.auth_user.id==auth.user_id).select(db.auth_user.email)\n    from gluon.contrib.pyfpdf import FPDF, HTMLMixin\n    pdf=FPDF()\n    pdf.add_page()\n    pdf.set_font(\'Arial\',\'BU\',40)\n    #pdf.cell(w=60,h=10,txt="",border=2,align=\'L\',fill=\'0\')\n    pdf.set_text_color(100,0,100)\n    pdf.cell(w=80,h=30,txt="Curriculum Vitae",ln=2,border=2,align=\'L\',fill=\'0\')\n    pdf.set_text_color(0,0,0)\n    pdf.set_font(\'Arial\',\'BU\',30)\n    pdf.set_text_color(0,0,100)\n    pdf.cell(w=80,h=30,txt="Biodata",ln=1,border=2,align=\'L\',fill=\'0\')\n    pdf.set_font(\'Arial\',\'\',15)\n    pdf.set_text_color(0,0,0)\n    pdf.cell(w=60,h=10,txt="Name  :",border=2,align=\'L\',fill=\'0\')\n    pdf.cell(w=60,h=10,txt=r[0].name,ln=1,border=2,align=\'L\',fill=\'0\')\n    \n    \n    \n    pdf.set_text_color(0,0,0)\n    pdf.cell(w=60,h=10,txt="Current Year  :",border=2,align=\'L\',fill=\'0\')\n    pdf.cell(w=60,h=10,txt=r[0].current_year,border=2,ln=1,align=\'L\',fill=\'0\')\n    pdf.cell(w=60,h=10,txt="CGPA  :",border=2,align=\'L\',fill=\'0\')\n    pdf.cell(w=60,h=10,txt=str(r[0].cg),ln=1,border=2,align=\'L\',fill=\'0\')\n    pdf.cell(w=60,h=10,txt="College  :",border=2,align=\'L\',fill=\'0\')\n    pdf.cell(w=60,h=10,txt=r[0].college,border=2,ln=1,align=\'L\',fill=\'0\')\n    pdf.cell(w=60,h=10,txt="Branch  :",border=2,align=\'L\',fill=\'0\')\n    pdf.cell(w=60,h=10,txt=r[0].branch,border=2,ln=1,align=\'L\',fill=\'0\')\n    \n    pdf.set_text_color(0,0,0)  \n     \n    #pdf.cell(w=60,h=10,txt="",ln=1,border=2,align=\'L\',fill=\'0\')\n    #pdf.cell(w=60,h=10,txt="",ln=1,border=2,align=\'L\',fill=\'0\')\n    #pdf.cell(w=60,h=10,txt="",ln=1,border=2,align=\'L\',fill=\'0\')\n    pdf.cell(w=60,h=10,txt="",ln=1,border=2,align=\'L\',fill=\'0\')\n    pdf.set_font(\'Arial\',\'BU\',30)\n    pdf.set_text_color(0,0,100)\n    if len(s) != 0:\n        pdf.cell(w=60,h=10,txt="Projects/Interns    ",border=2,align=\'L\',fill=\'0\')\n        pdf.cell(w=60,h=10,txt="                                          ",ln=1,border=2,align=\'L\',fill=\'0\')\n    pdf.set_text_color(0,0,0)\n    for i in s:\n        pdf.set_font(\'Arial\',\'BI\',20)\n        pdf.cell(w=60,h=10,txt=i.name,ln=1,border=2,align=\'L\',fill=\'0\')\n        pdf.set_font(\'Arial\',\'\',15)\n        pdf.cell(w=60,h=10,txt="",ln=1,border=2,align=\'L\',fill=\'0\')\n        pdf.cell(w=60,h=10,txt="Mentor  :",border=2,align=\'L\',fill=\'0\')\n        pdf.cell(w=60,h=10,txt=i.mentor,ln=1,border=2,align=\'L\',fill=\'0\')\n        pdf.cell(w=60,h=10,txt="Organistion  :",border=2,align=\'L\',fill=\'0\')\n        pdf.cell(w=60,h=10,txt=i.org,ln=1,border=2,align=\'L\',fill=\'0\')\n        pdf.cell(w=60,h=10,txt="Description  :",border=2,align=\'L\',fill=\'0\')\n        pdf.cell(w=60,h=10,txt=i.Description,ln=1,border=2,align=\'L\',fill=\'3\')\n        pdf.cell(w=60,h=10,txt="Skills Used  :",border=2,align=\'L\',fill=\'0\')\n        pdf.cell(w=60,h=10,txt=i.skills_used,ln=1,border=2,align=\'L\',fill=\'3\')\n        pdf.cell(w=60,h=10,txt="",ln=1,border=2,align=\'L\',fill=\'0\')\n        #pdf.cell(w=60,h=10,txt="",ln=1,border=2,align=\'L\',fill=\'0\')\n    pdf.set_font(\'Arial\',\'BU\',30)\n    pdf.set_text_color(0,0,100)\n    if len(s) != 0:\n        pdf.cell(w=60,h=10,txt="Achievements    ",border=2,align=\'L\',fill=\'0\')\n        pdf.cell(w=60,h=10,txt="                                          ",ln=1,border=2,align=\'L\',fill=\'0\')\n    pdf.set_text_color(0,0,0)\n    for i in t:\n        pdf.set_font(\'Arial\',\'\',15)\n        pdf.cell(w=60,h=10,txt=i.what,ln=1,border=2,align=\'L\',fill=\'0\')\n    pdf.cell(w=60,h=10,txt="",ln=1,border=2,align=\'L\',fill=\'0\')\n    pdf.cell(w=60,h=10,txt="",ln=1,border=2,align=\'L\',fill=\'0\')\n    pdf.cell(w=60,h=10,txt="",ln=1,border=2,align=\'L\',fill=\'0\')\n    pdf.set_font(\'Arial\',\'BU\',30)\n    pdf.set_text_color(0,0,100)\n    pdf.cell(w=60,h=10,txt="Contact Details",ln=1,border=2,align=\'L\',fill=\'0\')\n    pdf.cell(w=60,h=10,txt="",ln=1,border=2,align=\'L\',fill=\'0\')\n    pdf.set_text_color(0,0,0)\n    pdf.set_font(\'Arial\',\'\',15)\n    #pdf.cell(w=40,h=10,txt="Email  :",border=2,align=\'L\',fill=\'0\')\n    pdf.cell(w=60,h=10,txt=u[0].email,ln=1,border=2,align=\'L\',fill=\'0\')\n    #pdf.cell(w=40,h=10,txt="Address  :",border=2,align=\'L\',fill=\'0\')\n    #pdf.cell(w=60,h=10,txt="",border=2,align=\'L\',fill=\'0\')\n    pdf.cell(w=60,h=10,txt=r[0].address+\', \',border=2,ln=1,align=\'L\',fill=\'0\')\n    #pdf.cell(w=60,h=10,txt="",border=2,align=\'L\',fill=\'0\')\n    pdf.cell(w=60,h=10,txt=r[0].city+\', \'+r[0].cstate,border=2,ln=1,align=\'L\',fill=\'0\')\n    #pdf.cell(w=60,h=10,txt="",border=2,align=\'L\',fill=\'0\')\n    #pdf.cell(w=60,h=10,txt=r[0].cstate,border=2,ln=1,align=\'L\',fill=\'0\')\n    response.headers[\'Content-Type\']=\'application/pdf\'\n    return pdf.output(dest="S")\n    \n#----------------------------------------------------------------------------------------------\n#----------------------------------------------------------------------------------------------\n    \ndef mypdf1():\n    r=db(auth.user_id==db.details.myid).select()\n    s=db(auth.user_id==db.project.myid).select()\n    t=db(auth.user_id==db.achievements.myid).select()\n    u=db(db.auth_user.id==auth.user_id).select(db.auth_user.email)\n    from gluon.contrib.pyfpdf import FPDF, HTMLMixin\n    pdf=FPDF()\n    pdf.add_page()\n    pdf.set_font(\'Arial\',\'BU\',40)\n    pdf.set_text_color(0,0,0)\n    pdf.cell(w=50,h=10,txt="",border=2,align=\'L\',fill=\'0\')\n    pdf.set_font(\'Arial\',\'BU\',40)\n    pdf.set_text_color(0,0,100)\n    pdf.cell(w=80,h=30,txt=r[0].name,ln=1,border=2,align=\'C\',fill=\'0\')\n    pdf.set_font(\'Arial\',\'\',10)\n    pdf.set_text_color(0,0,0)\n    pdf.cell(w=60,h=10,txt="",border=2,align=\'L\',fill=\'0\')\n    pdf.cell(w=60,h=10,txt=u[0].email,ln=1,border=2,align=\'C\',fill=\'0\')\n    pdf.cell(w=60,h=10,txt="",border=2,align=\'L\',fill=\'0\')\n    pdf.cell(w=60,h=10,txt=r[0].address+\', \'+r[0].city+\', \'+r[0].cstate,ln=1,border=2,align=\'C\',fill=\'0\')\n    pdf.set_text_color(0,0,100)\n    pdf.set_font(\'Arial\',\'BU\',30)\n    pdf.cell(w=60,h=10,txt="Education    ",border=2,align=\'L\',fill=\'0\')\n    pdf.cell(w=60,h=10,txt="                                          ",ln=1,border=2,align=\'L\',fill=\'0\')\n    pdf.cell(w=60,h=10,txt="",ln=1,border=2,align=\'L\',fill=\'0\')\n    pdf.set_text_color(0,0,0)\n    pdf.set_font(\'Arial\',\'\',15)\n    pdf.cell(w=20,h=10,txt="",border=2,align=\'L\',fill=\'0\')\n    pdf.cell(w=60,h=10,txt="Current Year  :",border=2,align=\'L\',fill=\'0\')\n    pdf.cell(w=60,h=10,txt=r[0].current_year,border=2,ln=1,align=\'L\',fill=\'0\')\n    pdf.cell(w=20,h=10,txt="",border=2,align=\'L\',fill=\'0\')\n    pdf.cell(w=60,h=10,txt="CGPA  :",border=2,align=\'L\',fill=\'0\')\n    pdf.cell(w=60,h=10,txt=str(r[0].cg),ln=1,border=2,align=\'L\',fill=\'0\')\n    pdf.cell(w=20,h=10,txt="",border=2,align=\'L\',fill=\'0\')\n    pdf.cell(w=60,h=10,txt="College  :",border=2,align=\'L\',fill=\'0\')\n    pdf.cell(w=60,h=10,txt=r[0].college,border=2,ln=1,align=\'L\',fill=\'0\')\n    pdf.cell(w=20,h=10,txt="",border=2,align=\'L\',fill=\'0\')\n    pdf.cell(w=60,h=10,txt="Branch  :",border=2,align=\'L\',fill=\'0\')\n    pdf.cell(w=60,h=10,txt=r[0].branch,border=2,align=\'L\',fill=\'0\')\n    \n    pdf.set_text_color(0,0,0)  \n     \n    pdf.cell(w=60,h=10,txt="",border=2,align=\'L\',fill=\'0\')\n    pdf.cell(w=60,h=10,txt="",border=2,align=\'L\',fill=\'0\')\n    pdf.cell(w=60,h=10,txt="",ln=1,border=2,align=\'L\',fill=\'0\')\n    pdf.cell(w=60,h=10,txt="",ln=1,border=2,align=\'L\',fill=\'0\')\n    pdf.set_text_color(0,0,100)\n    pdf.set_font(\'Arial\',\'BU\',30)\n    if len(s) != 0:\n        pdf.cell(w=60,h=10,txt="Projects/Interns    ",border=2,align=\'L\',fill=\'0\')\n        pdf.cell(w=60,h=10,txt="                                          ",ln=1,border=2,align=\'L\',fill=\'0\')\n    pdf.cell(w=60,h=10,txt="",ln=1,border=2,align=\'L\',fill=\'0\')\n    pdf.set_text_color(0,0,0)\n    for i in s:\n        pdf.set_font(\'Arial\',\'BI\',20)\n        pdf.cell(w=60,h=10,txt=i.name.capitalize(),ln=1,border=2,align=\'L\',fill=\'0\')\n        pdf.set_font(\'Arial\',\'\',15)\n        pdf.cell(w=60,h=10,txt="",ln=1,border=2,align=\'L\',fill=\'0\')\n        pdf.cell(w=20,h=10,txt="",border=2,align=\'L\',fill=\'0\')\n        pdf.cell(w=40,h=10,txt="Mentor  :",border=2,align=\'L\',fill=\'0\')\n        pdf.cell(w=60,h=10,txt=i.mentor,ln=1,border=2,align=\'L\',fill=\'0\')\n        pdf.cell(w=20,h=10,txt="",border=2,align=\'L\',fill=\'0\')\n        pdf.cell(w=40,h=10,txt="Organistion  :",border=2,align=\'L\',fill=\'0\')\n        pdf.cell(w=60,h=10,txt=i.org,ln=1,border=2,align=\'L\',fill=\'0\')\n        pdf.cell(w=20,h=10,txt="",border=2,align=\'L\',fill=\'0\')\n        pdf.cell(w=40,h=10,txt="Description  :",border=2,align=\'L\',fill=\'0\')\n        pdf.cell(w=60,h=10,txt=i.Description,ln=1,border=2,align=\'L\',fill=\'3\')\n        pdf.cell(w=20,h=10,txt="",border=2,align=\'L\',fill=\'0\')\n        pdf.cell(w=40,h=10,txt="Skills Used  :",border=2,align=\'L\',fill=\'0\')\n        pdf.cell(w=60,h=10,txt=i.skills_used,ln=1,border=2,align=\'L\',fill=\'3\')\n        pdf.cell(w=60,h=10,txt="",ln=1,border=2,align=\'L\',fill=\'0\')\n        pdf.cell(w=60,h=10,txt="",ln=1,border=2,align=\'L\',fill=\'0\')\n    pdf.set_font(\'Arial\',\'BU\',30)\n    pdf.set_text_color(0,0,100)\n    pdf.set_font(\'Arial\',\'BU\',30)\n    if len(s) != 0:\n        pdf.cell(w=60,h=10,txt="Achievements    ",border=2,align=\'L\',fill=\'0\')\n        pdf.cell(w=60,h=10,txt="                                          ",ln=1,border=2,align=\'L\',fill=\'0\')\n    pdf.set_text_color(0,0,0)\n    for i in t:\n        pdf.set_font(\'Arial\',\'\',15)\n        pdf.cell(w=60,h=10,txt="               "+i.what,ln=1,border=2,align=\'L\',fill=\'0\')\n\n    response.headers[\'Content-Type\']=\'application/pdf\'\n    return pdf.output(dest="S")\n\n\ndef pdf1():\n    r=db(auth.user_id==db.details.myid).select()\n    return dict(r=r)\n\n@auth.requires_login()\n@auth.requires_membership(\'Organisation\')\ndef mypdf3():\n    \n    r=db(request.args[0]==db.details.myid).select()\n    s=db(request.args[0]==db.project.myid).select()\n    t=db(request.args[0]==db.achievements.myid).select()\n    u=db(db.auth_user.id==request.args[0]).select(db.auth_user.email)\n    from gluon.contrib.pyfpdf import FPDF, HTMLMixin\n    pdf=FPDF()\n    pdf.add_page()\n    pdf.set_font(\'Arial\',\'BU\',40)\n    #pdf.cell(w=60,h=10,txt="",border=2,align=\'L\',fill=\'0\')\n    pdf.set_text_color(100,0,100)\n    pdf.cell(w=80,h=30,txt="Curriculum Vitae",ln=2,border=2,align=\'L\',fill=\'0\')\n    pdf.set_text_color(0,0,0)\n    pdf.set_font(\'Arial\',\'BU\',30)\n    pdf.set_text_color(0,0,100)\n    pdf.cell(w=80,h=30,txt="Biodata",ln=1,border=2,align=\'L\',fill=\'0\')\n    pdf.set_font(\'Arial\',\'\',15)\n    pdf.set_text_color(0,0,0)\n    pdf.cell(w=60,h=10,txt="Name  :",border=2,align=\'L\',fill=\'0\')\n    pdf.cell(w=60,h=10,txt=r[0].name,ln=1,border=2,align=\'L\',fill=\'0\')\n    \n    \n    \n    pdf.set_text_color(0,0,0)\n    pdf.cell(w=60,h=10,txt="Current Year  :",border=2,align=\'L\',fill=\'0\')\n    pdf.cell(w=60,h=10,txt=r[0].current_year,border=2,ln=1,align=\'L\',fill=\'0\')\n    pdf.cell(w=60,h=10,txt="CGPA  :",border=2,align=\'L\',fill=\'0\')\n    pdf.cell(w=60,h=10,txt=str(r[0].cg),ln=1,border=2,align=\'L\',fill=\'0\')\n    pdf.cell(w=60,h=10,txt="College  :",border=2,align=\'L\',fill=\'0\')\n    pdf.cell(w=60,h=10,txt=r[0].college,border=2,ln=1,align=\'L\',fill=\'0\')\n    pdf.cell(w=60,h=10,txt="Branch  :",border=2,align=\'L\',fill=\'0\')\n    pdf.cell(w=60,h=10,txt=r[0].branch,border=2,ln=1,align=\'L\',fill=\'0\')\n    \n    pdf.set_text_color(0,0,0)  \n     \n    #pdf.cell(w=60,h=10,txt="",ln=1,border=2,align=\'L\',fill=\'0\')\n    #pdf.cell(w=60,h=10,txt="",ln=1,border=2,align=\'L\',fill=\'0\')\n    #pdf.cell(w=60,h=10,txt="",ln=1,border=2,align=\'L\',fill=\'0\')\n    pdf.cell(w=60,h=10,txt="",ln=1,border=2,align=\'L\',fill=\'0\')\n    pdf.set_font(\'Arial\',\'BU\',30)\n    pdf.set_text_color(0,0,100)\n    if len(s) != 0:\n        pdf.cell(w=60,h=10,txt="Projects/Interns    ",border=2,align=\'L\',fill=\'0\')\n        pdf.cell(w=60,h=10,txt="                                          ",ln=1,border=2,align=\'L\',fill=\'0\')\n    pdf.set_text_color(0,0,0)\n    for i in s:\n        pdf.set_font(\'Arial\',\'BI\',20)\n        pdf.cell(w=60,h=10,txt=i.name,ln=1,border=2,align=\'L\',fill=\'0\')\n        pdf.set_font(\'Arial\',\'\',15)\n        pdf.cell(w=60,h=10,txt="",ln=1,border=2,align=\'L\',fill=\'0\')\n        pdf.cell(w=60,h=10,txt="Mentor  :",border=2,align=\'L\',fill=\'0\')\n        pdf.cell(w=60,h=10,txt=i.mentor,ln=1,border=2,align=\'L\',fill=\'0\')\n        pdf.cell(w=60,h=10,txt="Organistion  :",border=2,align=\'L\',fill=\'0\')\n        pdf.cell(w=60,h=10,txt=i.org,ln=1,border=2,align=\'L\',fill=\'0\')\n        pdf.cell(w=60,h=10,txt="Description  :",border=2,align=\'L\',fill=\'0\')\n        pdf.cell(w=60,h=10,txt=i.Description,ln=1,border=2,align=\'L\',fill=\'3\')\n        pdf.cell(w=60,h=10,txt="Skills Used  :",border=2,align=\'L\',fill=\'0\')\n        pdf.cell(w=60,h=10,txt=i.skills_used,ln=1,border=2,align=\'L\',fill=\'3\')\n        pdf.cell(w=60,h=10,txt="",ln=1,border=2,align=\'L\',fill=\'0\')\n        #pdf.cell(w=60,h=10,txt="",ln=1,border=2,align=\'L\',fill=\'0\')\n    pdf.set_font(\'Arial\',\'BU\',30)\n    pdf.set_text_color(0,0,100)\n    if len(s) != 0:\n        pdf.cell(w=60,h=10,txt="Achievements    ",border=2,align=\'L\',fill=\'0\')\n        pdf.cell(w=60,h=10,txt="                                          ",ln=1,border=2,align=\'L\',fill=\'0\')\n    pdf.set_text_color(0,0,0)\n    for i in t:\n        pdf.set_font(\'Arial\',\'\',15)\n        pdf.cell(w=60,h=10,txt=i.what,ln=1,border=2,align=\'L\',fill=\'0\')\n    pdf.cell(w=60,h=10,txt="",ln=1,border=2,align=\'L\',fill=\'0\')\n    pdf.cell(w=60,h=10,txt="",ln=1,border=2,align=\'L\',fill=\'0\')\n    pdf.cell(w=60,h=10,txt="",ln=1,border=2,align=\'L\',fill=\'0\')\n    pdf.set_font(\'Arial\',\'BU\',30)\n    pdf.set_text_color(0,0,100)\n    pdf.cell(w=60,h=10,txt="Contact Details",ln=1,border=2,align=\'L\',fill=\'0\')\n    pdf.cell(w=60,h=10,txt="",ln=1,border=2,align=\'L\',fill=\'0\')\n    pdf.set_text_color(0,0,0)\n    pdf.set_font(\'Arial\',\'\',15)\n    #pdf.cell(w=40,h=10,txt="Email  :",border=2,align=\'L\',fill=\'0\')\n    pdf.cell(w=60,h=10,txt=u[0].email,ln=1,border=2,align=\'L\',fill=\'0\')\n    #pdf.cell(w=40,h=10,txt="Address  :",border=2,align=\'L\',fill=\'0\')\n    #pdf.cell(w=60,h=10,txt="",border=2,align=\'L\',fill=\'0\')\n    pdf.cell(w=60,h=10,txt=r[0].address+\', \',border=2,ln=1,align=\'L\',fill=\'0\')\n    #pdf.cell(w=60,h=10,txt="",border=2,align=\'L\',fill=\'0\')\n    pdf.cell(w=60,h=10,txt=r[0].city+\', \'+r[0].cstate,border=2,ln=1,align=\'L\',fill=\'0\')\n    #pdf.cell(w=60,h=10,txt="",border=2,align=\'L\',fill=\'0\')\n    #pdf.cell(w=60,h=10,txt=r[0].cstate,border=2,ln=1,align=\'L\',fill=\'0\')\n  \n    response.headers[\'Content-Type\']=\'application/pdf\'\n    return pdf.output(dest="S")\n\nresponse._vars=response._caller(single_company_msg)\n'
p7
sS'snapshot'
p8
(dp9
S'exception'
p10
(dp11
S'__hash__'
p12
S"<method-wrapper '__hash__' of exceptions.NameError object>"
p13
sS'__setattr__'
p14
S"<method-wrapper '__setattr__' of exceptions.NameError object>"
p15
sS'__reduce_ex__'
p16
S'<built-in method __reduce_ex__ of exceptions.NameError object>'
p17
sS'__getslice__'
p18
S"<method-wrapper '__getslice__' of exceptions.NameError object>"
p19
sS'__getitem__'
p20
S"<method-wrapper '__getitem__' of exceptions.NameError object>"
p21
sS'__setstate__'
p22
S'<built-in method __setstate__ of exceptions.NameError object>'
p23
sS'__reduce__'
p24
S'<built-in method __reduce__ of exceptions.NameError object>'
p25
sS'__str__'
p26
S"<method-wrapper '__str__' of exceptions.NameError object>"
p27
sS'__format__'
p28
S'<built-in method __format__ of exceptions.NameError object>'
p29
sS'__getattribute__'
p30
S"<method-wrapper '__getattribute__' of exceptions.NameError object>"
p31
sS'__class__'
p32
S"<type 'exceptions.NameError'>"
p33
sS'__unicode__'
p34
S'<built-in method __unicode__ of exceptions.NameError object>'
p35
sS'__delattr__'
p36
S"<method-wrapper '__delattr__' of exceptions.NameError object>"
p37
sS'__subclasshook__'
p38
S'<built-in method __subclasshook__ of type object>'
p39
sS'__repr__'
p40
S"<method-wrapper '__repr__' of exceptions.NameError object>"
p41
sS'args'
p42
S'("global name \'msgid\' is not defined",)'
p43
sS'__dict__'
p44
S'{}'
p45
sS'__sizeof__'
p46
S'<built-in method __sizeof__ of exceptions.NameError object>'
p47
sS'__doc__'
p48
S"'Name not found globally.'"
p49
sS'__init__'
p50
S"<method-wrapper '__init__' of exceptions.NameError object>"
p51
sS'__new__'
p52
S'<built-in method __new__ of type object>'
p53
ssS'evalue'
p54
S"global name 'msgid' is not defined"
p55
sS'request'
p56
ccopy_reg
_reconstructor
p57
(cgluon.html
BEAUTIFY
p58
c__builtin__
object
p59
NtRp60
(dp61
S'attributes'
p62
(dp63
sS'components'
p64
(lp65
g57
(cgluon.html
TABLE
p66
g59
NtRp67
(dp68
g62
(dp69
S'level'
p70
I5
ssS'parent'
p71
Nsg64
(lp72
g57
(cgluon.html
TR
p73
g59
NtRp74
(dp75
g62
(dp76
sg71
g67
sg64
(lp77
g57
(cgluon.html
TD
p78
g59
NtRp79
(dp80
g62
(dp81
S'_style'
p82
S'font-weight:bold;vertical-align:top'
p83
ssg71
g74
sg64
(lp84
S'ajax'
p85
asbag57
(g78
g59
NtRp86
(dp87
g62
(dp88
S'_valign'
p89
S'top'
p90
ssg71
g74
sg64
(lp91
S':'
asbag57
(g78
g59
NtRp92
(dp93
g62
(dp94
sg71
g74
sg64
(lp95
g57
(g58
g59
NtRp96
(dp97
g62
(dp98
g70
I5
ssg71
g92
sg64
(lp99
S'False'
p100
asbasbasbag57
(g73
g59
NtRp101
(dp102
g62
(dp103
sg71
g67
sg64
(lp104
g57
(g78
g59
NtRp105
(dp106
g62
(dp107
g82
g83
ssg71
g101
sg64
(lp108
S'application'
p109
asbag57
(g78
g59
NtRp110
(dp111
g62
(dp112
g89
g90
ssg71
g101
sg64
(lp113
S':'
asbag57
(g78
g59
NtRp114
(dp115
g62
(dp116
sg71
g101
sg64
(lp117
g57
(g58
g59
NtRp118
(dp119
g62
(dp120
g70
I5
ssg71
g114
sg64
(lp121
S'backimg'
p122
asbasbasbag57
(g73
g59
NtRp123
(dp124
g62
(dp125
sg71
g67
sg64
(lp126
g57
(g78
g59
NtRp127
(dp128
g62
(dp129
g82
g83
ssg71
g123
sg64
(lp130
g42
asbag57
(g78
g59
NtRp131
(dp132
g62
(dp133
g89
g90
ssg71
g123
sg64
(lp134
S':'
asbag57
(g78
g59
NtRp135
(dp136
g62
(dp137
sg71
g123
sg64
(lp138
g57
(g58
g59
NtRp139
(dp140
g62
(dp141
g70
I5
ssg71
g135
sg64
(lp142
g57
(g66
g59
NtRp143
(dp144
g62
(dp145
g70
I4
ssg71
Nsg64
(lp146
sbasbasbasbag57
(g73
g59
NtRp147
(dp148
g62
(dp149
sg71
g67
sg64
(lp150
g57
(g78
g59
NtRp151
(dp152
g62
(dp153
g82
g83
ssg71
g147
sg64
(lp154
S'body'
p155
asbag57
(g78
g59
NtRp156
(dp157
g62
(dp158
g89
g90
ssg71
g147
sg64
(lp159
S':'
asbag57
(g78
g59
NtRp160
(dp161
g62
(dp162
sg71
g147
sg64
(lp163
g57
(g58
g59
NtRp164
(dp165
g62
(dp166
g70
I5
ssg71
g160
sg64
(lp167
S'<cStringIO.StringO object at 0xae8aa760>'
p168
asbasbasbag57
(g73
g59
NtRp169
(dp170
g62
(dp171
sg71
g67
sg64
(lp172
g57
(g78
g59
NtRp173
(dp174
g62
(dp175
g82
g83
ssg71
g169
sg64
(lp176
S'cid'
p177
asbag57
(g78
g59
NtRp178
(dp179
g62
(dp180
g89
g90
ssg71
g169
sg64
(lp181
S':'
asbag57
(g78
g59
NtRp182
(dp183
g62
(dp184
sg71
g169
sg64
(lp185
g57
(g58
g59
NtRp186
(dp187
g62
(dp188
g70
I5
ssg71
g182
sg64
(lp189
S'None'
p190
asbasbasbag57
(g73
g59
NtRp191
(dp192
g62
(dp193
sg71
g67
sg64
(lp194
g57
(g78
g59
NtRp195
(dp196
g62
(dp197
g82
g83
ssg71
g191
sg64
(lp198
S'client'
p199
asbag57
(g78
g59
NtRp200
(dp201
g62
(dp202
g89
g90
ssg71
g191
sg64
(lp203
S':'
asbag57
(g78
g59
NtRp204
(dp205
g62
(dp206
sg71
g191
sg64
(lp207
g57
(g58
g59
NtRp208
(dp209
g62
(dp210
g70
I5
ssg71
g204
sg64
(lp211
S'127.0.0.1'
p212
asbasbasbag57
(g73
g59
NtRp213
(dp214
g62
(dp215
sg71
g67
sg64
(lp216
g57
(g78
g59
NtRp217
(dp218
g62
(dp219
g82
g83
ssg71
g213
sg64
(lp220
S'controller'
p221
asbag57
(g78
g59
NtRp222
(dp223
g62
(dp224
g89
g90
ssg71
g213
sg64
(lp225
S':'
asbag57
(g78
g59
NtRp226
(dp227
g62
(dp228
sg71
g213
sg64
(lp229
g57
(g58
g59
NtRp230
(dp231
g62
(dp232
g70
I5
ssg71
g226
sg64
(lp233
S'default'
p234
asbasbasbag57
(g73
g59
NtRp235
(dp236
g62
(dp237
sg71
g67
sg64
(lp238
g57
(g78
g59
NtRp239
(dp240
g62
(dp241
g82
g83
ssg71
g235
sg64
(lp242
S'cookies'
p243
asbag57
(g78
g59
NtRp244
(dp245
g62
(dp246
g89
g90
ssg71
g235
sg64
(lp247
S':'
asbag57
(g78
g59
NtRp248
(dp249
g62
(dp250
sg71
g235
sg64
(lp251
g57
(g58
g59
NtRp252
(dp253
g62
(dp254
g70
I5
ssg71
g248
sg64
(lp255
g57
(g66
g59
NtRp256
(dp257
g62
(dp258
g70
I4
ssg71
Nsg64
(lp259
g57
(g73
g59
NtRp260
(dp261
g62
(dp262
sg71
g256
sg64
(lp263
g57
(g78
g59
NtRp264
(dp265
g62
(dp266
g82
g83
ssg71
g260
sg64
(lp267
S'session_id_admin'
p268
asbag57
(g78
g59
NtRp269
(dp270
g62
(dp271
g89
g90
ssg71
g260
sg64
(lp272
S':'
asbag57
(g78
g59
NtRp273
(dp274
g62
(dp275
sg71
g260
sg64
(lp276
g57
(g58
g59
NtRp277
(dp278
g62
(dp279
g70
I4
ssg71
g273
sg64
(lp280
S'127.0.0.1-d8499d8b-4f3a-4ee5-a081-5f93717a670d'
p281
ag57
(g66
g59
NtRp282
(dp283
g62
(dp284
g70
I3
ssg71
Nsg64
(lp285
g57
(g73
g59
NtRp286
(dp287
g62
(dp288
sg71
g282
sg64
(lp289
g57
(g78
g59
NtRp290
(dp291
g62
(dp292
g82
g83
ssg71
g286
sg64
(lp293
S'comment'
p294
asbag57
(g78
g59
NtRp295
(dp296
g62
(dp297
g89
g90
ssg71
g286
sg64
(lp298
S':'
asbag57
(g78
g59
NtRp299
(dp300
g62
(dp301
sg71
g286
sg64
(lp302
g57
(g58
g59
NtRp303
(dp304
g62
(dp305
g70
I3
ssg71
g299
sg64
(lp306
S''
asbasbasbag57
(g73
g59
NtRp307
(dp308
g62
(dp309
sg71
g282
sg64
(lp310
g57
(g78
g59
NtRp311
(dp312
g62
(dp313
g82
g83
ssg71
g307
sg64
(lp314
S'domain'
p315
asbag57
(g78
g59
NtRp316
(dp317
g62
(dp318
g89
g90
ssg71
g307
sg64
(lp319
S':'
asbag57
(g78
g59
NtRp320
(dp321
g62
(dp322
sg71
g307
sg64
(lp323
g57
(g58
g59
NtRp324
(dp325
g62
(dp326
g70
I3
ssg71
g320
sg64
(lp327
S''
asbasbasbag57
(g73
g59
NtRp328
(dp329
g62
(dp330
sg71
g282
sg64
(lp331
g57
(g78
g59
NtRp332
(dp333
g62
(dp334
g82
g83
ssg71
g328
sg64
(lp335
S'expires'
p336
asbag57
(g78
g59
NtRp337
(dp338
g62
(dp339
g89
g90
ssg71
g328
sg64
(lp340
S':'
asbag57
(g78
g59
NtRp341
(dp342
g62
(dp343
sg71
g328
sg64
(lp344
g57
(g58
g59
NtRp345
(dp346
g62
(dp347
g70
I3
ssg71
g341
sg64
(lp348
S''
asbasbasbag57
(g73
g59
NtRp349
(dp350
g62
(dp351
sg71
g282
sg64
(lp352
g57
(g78
g59
NtRp353
(dp354
g62
(dp355
g82
g83
ssg71
g349
sg64
(lp356
S'httponly'
p357
asbag57
(g78
g59
NtRp358
(dp359
g62
(dp360
g89
g90
ssg71
g349
sg64
(lp361
S':'
asbag57
(g78
g59
NtRp362
(dp363
g62
(dp364
sg71
g349
sg64
(lp365
g57
(g58
g59
NtRp366
(dp367
g62
(dp368
g70
I3
ssg71
g362
sg64
(lp369
S''
asbasbasbag57
(g73
g59
NtRp370
(dp371
g62
(dp372
sg71
g282
sg64
(lp373
g57
(g78
g59
NtRp374
(dp375
g62
(dp376
g82
g83
ssg71
g370
sg64
(lp377
S'max-age'
p378
asbag57
(g78
g59
NtRp379
(dp380
g62
(dp381
g89
g90
ssg71
g370
sg64
(lp382
S':'
asbag57
(g78
g59
NtRp383
(dp384
g62
(dp385
sg71
g370
sg64
(lp386
g57
(g58
g59
NtRp387
(dp388
g62
(dp389
g70
I3
ssg71
g383
sg64
(lp390
S''
asbasbasbag57
(g73
g59
NtRp391
(dp392
g62
(dp393
sg71
g282
sg64
(lp394
g57
(g78
g59
NtRp395
(dp396
g62
(dp397
g82
g83
ssg71
g391
sg64
(lp398
S'path'
p399
asbag57
(g78
g59
NtRp400
(dp401
g62
(dp402
g89
g90
ssg71
g391
sg64
(lp403
S':'
asbag57
(g78
g59
NtRp404
(dp405
g62
(dp406
sg71
g391
sg64
(lp407
g57
(g58
g59
NtRp408
(dp409
g62
(dp410
g70
I3
ssg71
g404
sg64
(lp411
S''
asbasbasbag57
(g73
g59
NtRp412
(dp413
g62
(dp414
sg71
g282
sg64
(lp415
g57
(g78
g59
NtRp416
(dp417
g62
(dp418
g82
g83
ssg71
g412
sg64
(lp419
S'secure'
p420
asbag57
(g78
g59
NtRp421
(dp422
g62
(dp423
g89
g90
ssg71
g412
sg64
(lp424
S':'
asbag57
(g78
g59
NtRp425
(dp426
g62
(dp427
sg71
g412
sg64
(lp428
g57
(g58
g59
NtRp429
(dp430
g62
(dp431
g70
I3
ssg71
g425
sg64
(lp432
S''
asbasbasbag57
(g73
g59
NtRp433
(dp434
g62
(dp435
sg71
g282
sg64
(lp436
g57
(g78
g59
NtRp437
(dp438
g62
(dp439
g82
g83
ssg71
g433
sg64
(lp440
S'version'
p441
asbag57
(g78
g59
NtRp442
(dp443
g62
(dp444
g89
g90
ssg71
g433
sg64
(lp445
S':'
asbag57
(g78
g59
NtRp446
(dp447
g62
(dp448
sg71
g433
sg64
(lp449
g57
(g58
g59
NtRp450
(dp451
g62
(dp452
g70
I3
ssg71
g446
sg64
(lp453
S''
asbasbasbasbasbasbasbag57
(g73
g59
NtRp454
(dp455
g62
(dp456
sg71
g256
sg64
(lp457
g57
(g78
g59
NtRp458
(dp459
g62
(dp460
g82
g83
ssg71
g454
sg64
(lp461
S'session_id_backimg'
p462
asbag57
(g78
g59
NtRp463
(dp464
g62
(dp465
g89
g90
ssg71
g454
sg64
(lp466
S':'
asbag57
(g78
g59
NtRp467
(dp468
g62
(dp469
sg71
g454
sg64
(lp470
g57
(g58
g59
NtRp471
(dp472
g62
(dp473
g70
I4
ssg71
g467
sg64
(lp474
S'127.0.0.1-510de37e-632d-4f80-b1c3-d8a3bf298387'
p475
ag57
(g66
g59
NtRp476
(dp477
g62
(dp478
g70
I3
ssg71
Nsg64
(lp479
g57
(g73
g59
NtRp480
(dp481
g62
(dp482
sg71
g476
sg64
(lp483
g57
(g78
g59
NtRp484
(dp485
g62
(dp486
g82
g83
ssg71
g480
sg64
(lp487
g294
asbag57
(g78
g59
NtRp488
(dp489
g62
(dp490
g89
g90
ssg71
g480
sg64
(lp491
S':'
asbag57
(g78
g59
NtRp492
(dp493
g62
(dp494
sg71
g480
sg64
(lp495
g57
(g58
g59
NtRp496
(dp497
g62
(dp498
g70
I3
ssg71
g492
sg64
(lp499
S''
asbasbasbag57
(g73
g59
NtRp500
(dp501
g62
(dp502
sg71
g476
sg64
(lp503
g57
(g78
g59
NtRp504
(dp505
g62
(dp506
g82
g83
ssg71
g500
sg64
(lp507
g315
asbag57
(g78
g59
NtRp508
(dp509
g62
(dp510
g89
g90
ssg71
g500
sg64
(lp511
S':'
asbag57
(g78
g59
NtRp512
(dp513
g62
(dp514
sg71
g500
sg64
(lp515
g57
(g58
g59
NtRp516
(dp517
g62
(dp518
g70
I3
ssg71
g512
sg64
(lp519
S''
asbasbasbag57
(g73
g59
NtRp520
(dp521
g62
(dp522
sg71
g476
sg64
(lp523
g57
(g78
g59
NtRp524
(dp525
g62
(dp526
g82
g83
ssg71
g520
sg64
(lp527
g336
asbag57
(g78
g59
NtRp528
(dp529
g62
(dp530
g89
g90
ssg71
g520
sg64
(lp531
S':'
asbag57
(g78
g59
NtRp532
(dp533
g62
(dp534
sg71
g520
sg64
(lp535
g57
(g58
g59
NtRp536
(dp537
g62
(dp538
g70
I3
ssg71
g532
sg64
(lp539
S''
asbasbasbag57
(g73
g59
NtRp540
(dp541
g62
(dp542
sg71
g476
sg64
(lp543
g57
(g78
g59
NtRp544
(dp545
g62
(dp546
g82
g83
ssg71
g540
sg64
(lp547
g357
asbag57
(g78
g59
NtRp548
(dp549
g62
(dp550
g89
g90
ssg71
g540
sg64
(lp551
S':'
asbag57
(g78
g59
NtRp552
(dp553
g62
(dp554
sg71
g540
sg64
(lp555
g57
(g58
g59
NtRp556
(dp557
g62
(dp558
g70
I3
ssg71
g552
sg64
(lp559
S''
asbasbasbag57
(g73
g59
NtRp560
(dp561
g62
(dp562
sg71
g476
sg64
(lp563
g57
(g78
g59
NtRp564
(dp565
g62
(dp566
g82
g83
ssg71
g560
sg64
(lp567
g378
asbag57
(g78
g59
NtRp568
(dp569
g62
(dp570
g89
g90
ssg71
g560
sg64
(lp571
S':'
asbag57
(g78
g59
NtRp572
(dp573
g62
(dp574
sg71
g560
sg64
(lp575
g57
(g58
g59
NtRp576
(dp577
g62
(dp578
g70
I3
ssg71
g572
sg64
(lp579
S''
asbasbasbag57
(g73
g59
NtRp580
(dp581
g62
(dp582
sg71
g476
sg64
(lp583
g57
(g78
g59
NtRp584
(dp585
g62
(dp586
g82
g83
ssg71
g580
sg64
(lp587
g399
asbag57
(g78
g59
NtRp588
(dp589
g62
(dp590
g89
g90
ssg71
g580
sg64
(lp591
S':'
asbag57
(g78
g59
NtRp592
(dp593
g62
(dp594
sg71
g580
sg64
(lp595
g57
(g58
g59
NtRp596
(dp597
g62
(dp598
g70
I3
ssg71
g592
sg64
(lp599
S''
asbasbasbag57
(g73
g59
NtRp600
(dp601
g62
(dp602
sg71
g476
sg64
(lp603
g57
(g78
g59
NtRp604
(dp605
g62
(dp606
g82
g83
ssg71
g600
sg64
(lp607
g420
asbag57
(g78
g59
NtRp608
(dp609
g62
(dp610
g89
g90
ssg71
g600
sg64
(lp611
S':'
asbag57
(g78
g59
NtRp612
(dp613
g62
(dp614
sg71
g600
sg64
(lp615
g57
(g58
g59
NtRp616
(dp617
g62
(dp618
g70
I3
ssg71
g612
sg64
(lp619
S''
asbasbasbag57
(g73
g59
NtRp620
(dp621
g62
(dp622
sg71
g476
sg64
(lp623
g57
(g78
g59
NtRp624
(dp625
g62
(dp626
g82
g83
ssg71
g620
sg64
(lp627
g441
asbag57
(g78
g59
NtRp628
(dp629
g62
(dp630
g89
g90
ssg71
g620
sg64
(lp631
S':'
asbag57
(g78
g59
NtRp632
(dp633
g62
(dp634
sg71
g620
sg64
(lp635
g57
(g58
g59
NtRp636
(dp637
g62
(dp638
g70
I3
ssg71
g632
sg64
(lp639
S''
asbasbasbasbasbasbasbag57
(g73
g59
NtRp640
(dp641
g62
(dp642
sg71
g256
sg64
(lp643
g57
(g78
g59
NtRp644
(dp645
g62
(dp646
g82
g83
ssg71
g640
sg64
(lp647
S'session_id_resume1'
p648
asbag57
(g78
g59
NtRp649
(dp650
g62
(dp651
g89
g90
ssg71
g640
sg64
(lp652
S':'
asbag57
(g78
g59
NtRp653
(dp654
g62
(dp655
sg71
g640
sg64
(lp656
g57
(g58
g59
NtRp657
(dp658
g62
(dp659
g70
I4
ssg71
g653
sg64
(lp660
S'127.0.0.1-5cabbee1-4f7f-4691-8820-683475549a85'
p661
ag57
(g66
g59
NtRp662
(dp663
g62
(dp664
g70
I3
ssg71
Nsg64
(lp665
g57
(g73
g59
NtRp666
(dp667
g62
(dp668
sg71
g662
sg64
(lp669
g57
(g78
g59
NtRp670
(dp671
g62
(dp672
g82
g83
ssg71
g666
sg64
(lp673
g294
asbag57
(g78
g59
NtRp674
(dp675
g62
(dp676
g89
g90
ssg71
g666
sg64
(lp677
S':'
asbag57
(g78
g59
NtRp678
(dp679
g62
(dp680
sg71
g666
sg64
(lp681
g57
(g58
g59
NtRp682
(dp683
g62
(dp684
g70
I3
ssg71
g678
sg64
(lp685
S''
asbasbasbag57
(g73
g59
NtRp686
(dp687
g62
(dp688
sg71
g662
sg64
(lp689
g57
(g78
g59
NtRp690
(dp691
g62
(dp692
g82
g83
ssg71
g686
sg64
(lp693
g315
asbag57
(g78
g59
NtRp694
(dp695
g62
(dp696
g89
g90
ssg71
g686
sg64
(lp697
S':'
asbag57
(g78
g59
NtRp698
(dp699
g62
(dp700
sg71
g686
sg64
(lp701
g57
(g58
g59
NtRp702
(dp703
g62
(dp704
g70
I3
ssg71
g698
sg64
(lp705
S''
asbasbasbag57
(g73
g59
NtRp706
(dp707
g62
(dp708
sg71
g662
sg64
(lp709
g57
(g78
g59
NtRp710
(dp711
g62
(dp712
g82
g83
ssg71
g706
sg64
(lp713
g336
asbag57
(g78
g59
NtRp714
(dp715
g62
(dp716
g89
g90
ssg71
g706
sg64
(lp717
S':'
asbag57
(g78
g59
NtRp718
(dp719
g62
(dp720
sg71
g706
sg64
(lp721
g57
(g58
g59
NtRp722
(dp723
g62
(dp724
g70
I3
ssg71
g718
sg64
(lp725
S''
asbasbasbag57
(g73
g59
NtRp726
(dp727
g62
(dp728
sg71
g662
sg64
(lp729
g57
(g78
g59
NtRp730
(dp731
g62
(dp732
g82
g83
ssg71
g726
sg64
(lp733
g357
asbag57
(g78
g59
NtRp734
(dp735
g62
(dp736
g89
g90
ssg71
g726
sg64
(lp737
S':'
asbag57
(g78
g59
NtRp738
(dp739
g62
(dp740
sg71
g726
sg64
(lp741
g57
(g58
g59
NtRp742
(dp743
g62
(dp744
g70
I3
ssg71
g738
sg64
(lp745
S''
asbasbasbag57
(g73
g59
NtRp746
(dp747
g62
(dp748
sg71
g662
sg64
(lp749
g57
(g78
g59
NtRp750
(dp751
g62
(dp752
g82
g83
ssg71
g746
sg64
(lp753
g378
asbag57
(g78
g59
NtRp754
(dp755
g62
(dp756
g89
g90
ssg71
g746
sg64
(lp757
S':'
asbag57
(g78
g59
NtRp758
(dp759
g62
(dp760
sg71
g746
sg64
(lp761
g57
(g58
g59
NtRp762
(dp763
g62
(dp764
g70
I3
ssg71
g758
sg64
(lp765
S''
asbasbasbag57
(g73
g59
NtRp766
(dp767
g62
(dp768
sg71
g662
sg64
(lp769
g57
(g78
g59
NtRp770
(dp771
g62
(dp772
g82
g83
ssg71
g766
sg64
(lp773
g399
asbag57
(g78
g59
NtRp774
(dp775
g62
(dp776
g89
g90
ssg71
g766
sg64
(lp777
S':'
asbag57
(g78
g59
NtRp778
(dp779
g62
(dp780
sg71
g766
sg64
(lp781
g57
(g58
g59
NtRp782
(dp783
g62
(dp784
g70
I3
ssg71
g778
sg64
(lp785
S''
asbasbasbag57
(g73
g59
NtRp786
(dp787
g62
(dp788
sg71
g662
sg64
(lp789
g57
(g78
g59
NtRp790
(dp791
g62
(dp792
g82
g83
ssg71
g786
sg64
(lp793
g420
asbag57
(g78
g59
NtRp794
(dp795
g62
(dp796
g89
g90
ssg71
g786
sg64
(lp797
S':'
asbag57
(g78
g59
NtRp798
(dp799
g62
(dp800
sg71
g786
sg64
(lp801
g57
(g58
g59
NtRp802
(dp803
g62
(dp804
g70
I3
ssg71
g798
sg64
(lp805
S''
asbasbasbag57
(g73
g59
NtRp806
(dp807
g62
(dp808
sg71
g662
sg64
(lp809
g57
(g78
g59
NtRp810
(dp811
g62
(dp812
g82
g83
ssg71
g806
sg64
(lp813
g441
asbag57
(g78
g59
NtRp814
(dp815
g62
(dp816
g89
g90
ssg71
g806
sg64
(lp817
S':'
asbag57
(g78
g59
NtRp818
(dp819
g62
(dp820
sg71
g806
sg64
(lp821
g57
(g58
g59
NtRp822
(dp823
g62
(dp824
g70
I3
ssg71
g818
sg64
(lp825
S''
asbasbasbasbasbasbasbag57
(g73
g59
NtRp826
(dp827
g62
(dp828
sg71
g256
sg64
(lp829
g57
(g78
g59
NtRp830
(dp831
g62
(dp832
g82
g83
ssg71
g826
sg64
(lp833
S'session_id_resume3'
p834
asbag57
(g78
g59
NtRp835
(dp836
g62
(dp837
g89
g90
ssg71
g826
sg64
(lp838
S':'
asbag57
(g78
g59
NtRp839
(dp840
g62
(dp841
sg71
g826
sg64
(lp842
g57
(g58
g59
NtRp843
(dp844
g62
(dp845
g70
I4
ssg71
g839
sg64
(lp846
S'127.0.0.1-17dca7f9-d885-4883-b0a8-563fbf96ad62'
p847
ag57
(g66
g59
NtRp848
(dp849
g62
(dp850
g70
I3
ssg71
Nsg64
(lp851
g57
(g73
g59
NtRp852
(dp853
g62
(dp854
sg71
g848
sg64
(lp855
g57
(g78
g59
NtRp856
(dp857
g62
(dp858
g82
g83
ssg71
g852
sg64
(lp859
g294
asbag57
(g78
g59
NtRp860
(dp861
g62
(dp862
g89
g90
ssg71
g852
sg64
(lp863
S':'
asbag57
(g78
g59
NtRp864
(dp865
g62
(dp866
sg71
g852
sg64
(lp867
g57
(g58
g59
NtRp868
(dp869
g62
(dp870
g70
I3
ssg71
g864
sg64
(lp871
S''
asbasbasbag57
(g73
g59
NtRp872
(dp873
g62
(dp874
sg71
g848
sg64
(lp875
g57
(g78
g59
NtRp876
(dp877
g62
(dp878
g82
g83
ssg71
g872
sg64
(lp879
g315
asbag57
(g78
g59
NtRp880
(dp881
g62
(dp882
g89
g90
ssg71
g872
sg64
(lp883
S':'
asbag57
(g78
g59
NtRp884
(dp885
g62
(dp886
sg71
g872
sg64
(lp887
g57
(g58
g59
NtRp888
(dp889
g62
(dp890
g70
I3
ssg71
g884
sg64
(lp891
S''
asbasbasbag57
(g73
g59
NtRp892
(dp893
g62
(dp894
sg71
g848
sg64
(lp895
g57
(g78
g59
NtRp896
(dp897
g62
(dp898
g82
g83
ssg71
g892
sg64
(lp899
g336
asbag57
(g78
g59
NtRp900
(dp901
g62
(dp902
g89
g90
ssg71
g892
sg64
(lp903
S':'
asbag57
(g78
g59
NtRp904
(dp905
g62
(dp906
sg71
g892
sg64
(lp907
g57
(g58
g59
NtRp908
(dp909
g62
(dp910
g70
I3
ssg71
g904
sg64
(lp911
S''
asbasbasbag57
(g73
g59
NtRp912
(dp913
g62
(dp914
sg71
g848
sg64
(lp915
g57
(g78
g59
NtRp916
(dp917
g62
(dp918
g82
g83
ssg71
g912
sg64
(lp919
g357
asbag57
(g78
g59
NtRp920
(dp921
g62
(dp922
g89
g90
ssg71
g912
sg64
(lp923
S':'
asbag57
(g78
g59
NtRp924
(dp925
g62
(dp926
sg71
g912
sg64
(lp927
g57
(g58
g59
NtRp928
(dp929
g62
(dp930
g70
I3
ssg71
g924
sg64
(lp931
S''
asbasbasbag57
(g73
g59
NtRp932
(dp933
g62
(dp934
sg71
g848
sg64
(lp935
g57
(g78
g59
NtRp936
(dp937
g62
(dp938
g82
g83
ssg71
g932
sg64
(lp939
g378
asbag57
(g78
g59
NtRp940
(dp941
g62
(dp942
g89
g90
ssg71
g932
sg64
(lp943
S':'
asbag57
(g78
g59
NtRp944
(dp945
g62
(dp946
sg71
g932
sg64
(lp947
g57
(g58
g59
NtRp948
(dp949
g62
(dp950
g70
I3
ssg71
g944
sg64
(lp951
S''
asbasbasbag57
(g73
g59
NtRp952
(dp953
g62
(dp954
sg71
g848
sg64
(lp955
g57
(g78
g59
NtRp956
(dp957
g62
(dp958
g82
g83
ssg71
g952
sg64
(lp959
g399
asbag57
(g78
g59
NtRp960
(dp961
g62
(dp962
g89
g90
ssg71
g952
sg64
(lp963
S':'
asbag57
(g78
g59
NtRp964
(dp965
g62
(dp966
sg71
g952
sg64
(lp967
g57
(g58
g59
NtRp968
(dp969
g62
(dp970
g70
I3
ssg71
g964
sg64
(lp971
S''
asbasbasbag57
(g73
g59
NtRp972
(dp973
g62
(dp974
sg71
g848
sg64
(lp975
g57
(g78
g59
NtRp976
(dp977
g62
(dp978
g82
g83
ssg71
g972
sg64
(lp979
g420
asbag57
(g78
g59
NtRp980
(dp981
g62
(dp982
g89
g90
ssg71
g972
sg64
(lp983
S':'
asbag57
(g78
g59
NtRp984
(dp985
g62
(dp986
sg71
g972
sg64
(lp987
g57
(g58
g59
NtRp988
(dp989
g62
(dp990
g70
I3
ssg71
g984
sg64
(lp991
S''
asbasbasbag57
(g73
g59
NtRp992
(dp993
g62
(dp994
sg71
g848
sg64
(lp995
g57
(g78
g59
NtRp996
(dp997
g62
(dp998
g82
g83
ssg71
g992
sg64
(lp999
g441
asbag57
(g78
g59
NtRp1000
(dp1001
g62
(dp1002
g89
g90
ssg71
g992
sg64
(lp1003
S':'
asbag57
(g78
g59
NtRp1004
(dp1005
g62
(dp1006
sg71
g992
sg64
(lp1007
g57
(g58
g59
NtRp1008
(dp1009
g62
(dp1010
g70
I3
ssg71
g1004
sg64
(lp1011
S''
asbasbasbasbasbasbasbag57
(g73
g59
NtRp1012
(dp1013
g62
(dp1014
sg71
g256
sg64
(lp1015
g57
(g78
g59
NtRp1016
(dp1017
g62
(dp1018
g82
g83
ssg71
g1012
sg64
(lp1019
S'session_id_resume_builder'
p1020
asbag57
(g78
g59
NtRp1021
(dp1022
g62
(dp1023
g89
g90
ssg71
g1012
sg64
(lp1024
S':'
asbag57
(g78
g59
NtRp1025
(dp1026
g62
(dp1027
sg71
g1012
sg64
(lp1028
g57
(g58
g59
NtRp1029
(dp1030
g62
(dp1031
g70
I4
ssg71
g1025
sg64
(lp1032
S'127.0.0.1-f4ac87da-ca09-456f-9fc4-8cc4998ece7f'
p1033
ag57
(g66
g59
NtRp1034
(dp1035
g62
(dp1036
g70
I3
ssg71
Nsg64
(lp1037
g57
(g73
g59
NtRp1038
(dp1039
g62
(dp1040
sg71
g1034
sg64
(lp1041
g57
(g78
g59
NtRp1042
(dp1043
g62
(dp1044
g82
g83
ssg71
g1038
sg64
(lp1045
g294
asbag57
(g78
g59
NtRp1046
(dp1047
g62
(dp1048
g89
g90
ssg71
g1038
sg64
(lp1049
S':'
asbag57
(g78
g59
NtRp1050
(dp1051
g62
(dp1052
sg71
g1038
sg64
(lp1053
g57
(g58
g59
NtRp1054
(dp1055
g62
(dp1056
g70
I3
ssg71
g1050
sg64
(lp1057
S''
asbasbasbag57
(g73
g59
NtRp1058
(dp1059
g62
(dp1060
sg71
g1034
sg64
(lp1061
g57
(g78
g59
NtRp1062
(dp1063
g62
(dp1064
g82
g83
ssg71
g1058
sg64
(lp1065
g315
asbag57
(g78
g59
NtRp1066
(dp1067
g62
(dp1068
g89
g90
ssg71
g1058
sg64
(lp1069
S':'
asbag57
(g78
g59
NtRp1070
(dp1071
g62
(dp1072
sg71
g1058
sg64
(lp1073
g57
(g58
g59
NtRp1074
(dp1075
g62
(dp1076
g70
I3
ssg71
g1070
sg64
(lp1077
S''
asbasbasbag57
(g73
g59
NtRp1078
(dp1079
g62
(dp1080
sg71
g1034
sg64
(lp1081
g57
(g78
g59
NtRp1082
(dp1083
g62
(dp1084
g82
g83
ssg71
g1078
sg64
(lp1085
g336
asbag57
(g78
g59
NtRp1086
(dp1087
g62
(dp1088
g89
g90
ssg71
g1078
sg64
(lp1089
S':'
asbag57
(g78
g59
NtRp1090
(dp1091
g62
(dp1092
sg71
g1078
sg64
(lp1093
g57
(g58
g59
NtRp1094
(dp1095
g62
(dp1096
g70
I3
ssg71
g1090
sg64
(lp1097
S''
asbasbasbag57
(g73
g59
NtRp1098
(dp1099
g62
(dp1100
sg71
g1034
sg64
(lp1101
g57
(g78
g59
NtRp1102
(dp1103
g62
(dp1104
g82
g83
ssg71
g1098
sg64
(lp1105
g357
asbag57
(g78
g59
NtRp1106
(dp1107
g62
(dp1108
g89
g90
ssg71
g1098
sg64
(lp1109
S':'
asbag57
(g78
g59
NtRp1110
(dp1111
g62
(dp1112
sg71
g1098
sg64
(lp1113
g57
(g58
g59
NtRp1114
(dp1115
g62
(dp1116
g70
I3
ssg71
g1110
sg64
(lp1117
S''
asbasbasbag57
(g73
g59
NtRp1118
(dp1119
g62
(dp1120
sg71
g1034
sg64
(lp1121
g57
(g78
g59
NtRp1122
(dp1123
g62
(dp1124
g82
g83
ssg71
g1118
sg64
(lp1125
g378
asbag57
(g78
g59
NtRp1126
(dp1127
g62
(dp1128
g89
g90
ssg71
g1118
sg64
(lp1129
S':'
asbag57
(g78
g59
NtRp1130
(dp1131
g62
(dp1132
sg71
g1118
sg64
(lp1133
g57
(g58
g59
NtRp1134
(dp1135
g62
(dp1136
g70
I3
ssg71
g1130
sg64
(lp1137
S''
asbasbasbag57
(g73
g59
NtRp1138
(dp1139
g62
(dp1140
sg71
g1034
sg64
(lp1141
g57
(g78
g59
NtRp1142
(dp1143
g62
(dp1144
g82
g83
ssg71
g1138
sg64
(lp1145
g399
asbag57
(g78
g59
NtRp1146
(dp1147
g62
(dp1148
g89
g90
ssg71
g1138
sg64
(lp1149
S':'
asbag57
(g78
g59
NtRp1150
(dp1151
g62
(dp1152
sg71
g1138
sg64
(lp1153
g57
(g58
g59
NtRp1154
(dp1155
g62
(dp1156
g70
I3
ssg71
g1150
sg64
(lp1157
S''
asbasbasbag57
(g73
g59
NtRp1158
(dp1159
g62
(dp1160
sg71
g1034
sg64
(lp1161
g57
(g78
g59
NtRp1162
(dp1163
g62
(dp1164
g82
g83
ssg71
g1158
sg64
(lp1165
g420
asbag57
(g78
g59
NtRp1166
(dp1167
g62
(dp1168
g89
g90
ssg71
g1158
sg64
(lp1169
S':'
asbag57
(g78
g59
NtRp1170
(dp1171
g62
(dp1172
sg71
g1158
sg64
(lp1173
g57
(g58
g59
NtRp1174
(dp1175
g62
(dp1176
g70
I3
ssg71
g1170
sg64
(lp1177
S''
asbasbasbag57
(g73
g59
NtRp1178
(dp1179
g62
(dp1180
sg71
g1034
sg64
(lp1181
g57
(g78
g59
NtRp1182
(dp1183
g62
(dp1184
g82
g83
ssg71
g1178
sg64
(lp1185
g441
asbag57
(g78
g59
NtRp1186
(dp1187
g62
(dp1188
g89
g90
ssg71
g1178
sg64
(lp1189
S':'
asbag57
(g78
g59
NtRp1190
(dp1191
g62
(dp1192
sg71
g1178
sg64
(lp1193
g57
(g58
g59
NtRp1194
(dp1195
g62
(dp1196
g70
I3
ssg71
g1190
sg64
(lp1197
S''
asbasbasbasbasbasbasbag57
(g73
g59
NtRp1198
(dp1199
g62
(dp1200
sg71
g256
sg64
(lp1201
g57
(g78
g59
NtRp1202
(dp1203
g62
(dp1204
g82
g83
ssg71
g1198
sg64
(lp1205
S'session_id_resume_builder1'
p1206
asbag57
(g78
g59
NtRp1207
(dp1208
g62
(dp1209
g89
g90
ssg71
g1198
sg64
(lp1210
S':'
asbag57
(g78
g59
NtRp1211
(dp1212
g62
(dp1213
sg71
g1198
sg64
(lp1214
g57
(g58
g59
NtRp1215
(dp1216
g62
(dp1217
g70
I4
ssg71
g1211
sg64
(lp1218
S'127.0.0.1-874fcc84-4492-47e2-8b26-f280183a236c'
p1219
ag57
(g66
g59
NtRp1220
(dp1221
g62
(dp1222
g70
I3
ssg71
Nsg64
(lp1223
g57
(g73
g59
NtRp1224
(dp1225
g62
(dp1226
sg71
g1220
sg64
(lp1227
g57
(g78
g59
NtRp1228
(dp1229
g62
(dp1230
g82
g83
ssg71
g1224
sg64
(lp1231
g294
asbag57
(g78
g59
NtRp1232
(dp1233
g62
(dp1234
g89
g90
ssg71
g1224
sg64
(lp1235
S':'
asbag57
(g78
g59
NtRp1236
(dp1237
g62
(dp1238
sg71
g1224
sg64
(lp1239
g57
(g58
g59
NtRp1240
(dp1241
g62
(dp1242
g70
I3
ssg71
g1236
sg64
(lp1243
S''
asbasbasbag57
(g73
g59
NtRp1244
(dp1245
g62
(dp1246
sg71
g1220
sg64
(lp1247
g57
(g78
g59
NtRp1248
(dp1249
g62
(dp1250
g82
g83
ssg71
g1244
sg64
(lp1251
g315
asbag57
(g78
g59
NtRp1252
(dp1253
g62
(dp1254
g89
g90
ssg71
g1244
sg64
(lp1255
S':'
asbag57
(g78
g59
NtRp1256
(dp1257
g62
(dp1258
sg71
g1244
sg64
(lp1259
g57
(g58
g59
NtRp1260
(dp1261
g62
(dp1262
g70
I3
ssg71
g1256
sg64
(lp1263
S''
asbasbasbag57
(g73
g59
NtRp1264
(dp1265
g62
(dp1266
sg71
g1220
sg64
(lp1267
g57
(g78
g59
NtRp1268
(dp1269
g62
(dp1270
g82
g83
ssg71
g1264
sg64
(lp1271
g336
asbag57
(g78
g59
NtRp1272
(dp1273
g62
(dp1274
g89
g90
ssg71
g1264
sg64
(lp1275
S':'
asbag57
(g78
g59
NtRp1276
(dp1277
g62
(dp1278
sg71
g1264
sg64
(lp1279
g57
(g58
g59
NtRp1280
(dp1281
g62
(dp1282
g70
I3
ssg71
g1276
sg64
(lp1283
S''
asbasbasbag57
(g73
g59
NtRp1284
(dp1285
g62
(dp1286
sg71
g1220
sg64
(lp1287
g57
(g78
g59
NtRp1288
(dp1289
g62
(dp1290
g82
g83
ssg71
g1284
sg64
(lp1291
g357
asbag57
(g78
g59
NtRp1292
(dp1293
g62
(dp1294
g89
g90
ssg71
g1284
sg64
(lp1295
S':'
asbag57
(g78
g59
NtRp1296
(dp1297
g62
(dp1298
sg71
g1284
sg64
(lp1299
g57
(g58
g59
NtRp1300
(dp1301
g62
(dp1302
g70
I3
ssg71
g1296
sg64
(lp1303
S''
asbasbasbag57
(g73
g59
NtRp1304
(dp1305
g62
(dp1306
sg71
g1220
sg64
(lp1307
g57
(g78
g59
NtRp1308
(dp1309
g62
(dp1310
g82
g83
ssg71
g1304
sg64
(lp1311
g378
asbag57
(g78
g59
NtRp1312
(dp1313
g62
(dp1314
g89
g90
ssg71
g1304
sg64
(lp1315
S':'
asbag57
(g78
g59
NtRp1316
(dp1317
g62
(dp1318
sg71
g1304
sg64
(lp1319
g57
(g58
g59
NtRp1320
(dp1321
g62
(dp1322
g70
I3
ssg71
g1316
sg64
(lp1323
S''
asbasbasbag57
(g73
g59
NtRp1324
(dp1325
g62
(dp1326
sg71
g1220
sg64
(lp1327
g57
(g78
g59
NtRp1328
(dp1329
g62
(dp1330
g82
g83
ssg71
g1324
sg64
(lp1331
g399
asbag57
(g78
g59
NtRp1332
(dp1333
g62
(dp1334
g89
g90
ssg71
g1324
sg64
(lp1335
S':'
asbag57
(g78
g59
NtRp1336
(dp1337
g62
(dp1338
sg71
g1324
sg64
(lp1339
g57
(g58
g59
NtRp1340
(dp1341
g62
(dp1342
g70
I3
ssg71
g1336
sg64
(lp1343
S''
asbasbasbag57
(g73
g59
NtRp1344
(dp1345
g62
(dp1346
sg71
g1220
sg64
(lp1347
g57
(g78
g59
NtRp1348
(dp1349
g62
(dp1350
g82
g83
ssg71
g1344
sg64
(lp1351
g420
asbag57
(g78
g59
NtRp1352
(dp1353
g62
(dp1354
g89
g90
ssg71
g1344
sg64
(lp1355
S':'
asbag57
(g78
g59
NtRp1356
(dp1357
g62
(dp1358
sg71
g1344
sg64
(lp1359
g57
(g58
g59
NtRp1360
(dp1361
g62
(dp1362
g70
I3
ssg71
g1356
sg64
(lp1363
S''
asbasbasbag57
(g73
g59
NtRp1364
(dp1365
g62
(dp1366
sg71
g1220
sg64
(lp1367
g57
(g78
g59
NtRp1368
(dp1369
g62
(dp1370
g82
g83
ssg71
g1364
sg64
(lp1371
g441
asbag57
(g78
g59
NtRp1372
(dp1373
g62
(dp1374
g89
g90
ssg71
g1364
sg64
(lp1375
S':'
asbag57
(g78
g59
NtRp1376
(dp1377
g62
(dp1378
sg71
g1364
sg64
(lp1379
g57
(g58
g59
NtRp1380
(dp1381
g62
(dp1382
g70
I3
ssg71
g1376
sg64
(lp1383
S''
asbasbasbasbasbasbasbag57
(g73
g59
NtRp1384
(dp1385
g62
(dp1386
sg71
g256
sg64
(lp1387
g57
(g78
g59
NtRp1388
(dp1389
g62
(dp1390
g82
g83
ssg71
g1384
sg64
(lp1391
S'session_id_welcome'
p1392
asbag57
(g78
g59
NtRp1393
(dp1394
g62
(dp1395
g89
g90
ssg71
g1384
sg64
(lp1396
S':'
asbag57
(g78
g59
NtRp1397
(dp1398
g62
(dp1399
sg71
g1384
sg64
(lp1400
g57
(g58
g59
NtRp1401
(dp1402
g62
(dp1403
g70
I4
ssg71
g1397
sg64
(lp1404
S'127.0.0.1-9588ecb3-2af1-42db-96f8-c83b95fcc2b6'
p1405
ag57
(g66
g59
NtRp1406
(dp1407
g62
(dp1408
g70
I3
ssg71
Nsg64
(lp1409
g57
(g73
g59
NtRp1410
(dp1411
g62
(dp1412
sg71
g1406
sg64
(lp1413
g57
(g78
g59
NtRp1414
(dp1415
g62
(dp1416
g82
g83
ssg71
g1410
sg64
(lp1417
g294
asbag57
(g78
g59
NtRp1418
(dp1419
g62
(dp1420
g89
g90
ssg71
g1410
sg64
(lp1421
S':'
asbag57
(g78
g59
NtRp1422
(dp1423
g62
(dp1424
sg71
g1410
sg64
(lp1425
g57
(g58
g59
NtRp1426
(dp1427
g62
(dp1428
g70
I3
ssg71
g1422
sg64
(lp1429
S''
asbasbasbag57
(g73
g59
NtRp1430
(dp1431
g62
(dp1432
sg71
g1406
sg64
(lp1433
g57
(g78
g59
NtRp1434
(dp1435
g62
(dp1436
g82
g83
ssg71
g1430
sg64
(lp1437
g315
asbag57
(g78
g59
NtRp1438
(dp1439
g62
(dp1440
g89
g90
ssg71
g1430
sg64
(lp1441
S':'
asbag57
(g78
g59
NtRp1442
(dp1443
g62
(dp1444
sg71
g1430
sg64
(lp1445
g57
(g58
g59
NtRp1446
(dp1447
g62
(dp1448
g70
I3
ssg71
g1442
sg64
(lp1449
S''
asbasbasbag57
(g73
g59
NtRp1450
(dp1451
g62
(dp1452
sg71
g1406
sg64
(lp1453
g57
(g78
g59
NtRp1454
(dp1455
g62
(dp1456
g82
g83
ssg71
g1450
sg64
(lp1457
g336
asbag57
(g78
g59
NtRp1458
(dp1459
g62
(dp1460
g89
g90
ssg71
g1450
sg64
(lp1461
S':'
asbag57
(g78
g59
NtRp1462
(dp1463
g62
(dp1464
sg71
g1450
sg64
(lp1465
g57
(g58
g59
NtRp1466
(dp1467
g62
(dp1468
g70
I3
ssg71
g1462
sg64
(lp1469
S''
asbasbasbag57
(g73
g59
NtRp1470
(dp1471
g62
(dp1472
sg71
g1406
sg64
(lp1473
g57
(g78
g59
NtRp1474
(dp1475
g62
(dp1476
g82
g83
ssg71
g1470
sg64
(lp1477
g357
asbag57
(g78
g59
NtRp1478
(dp1479
g62
(dp1480
g89
g90
ssg71
g1470
sg64
(lp1481
S':'
asbag57
(g78
g59
NtRp1482
(dp1483
g62
(dp1484
sg71
g1470
sg64
(lp1485
g57
(g58
g59
NtRp1486
(dp1487
g62
(dp1488
g70
I3
ssg71
g1482
sg64
(lp1489
S''
asbasbasbag57
(g73
g59
NtRp1490
(dp1491
g62
(dp1492
sg71
g1406
sg64
(lp1493
g57
(g78
g59
NtRp1494
(dp1495
g62
(dp1496
g82
g83
ssg71
g1490
sg64
(lp1497
g378
asbag57
(g78
g59
NtRp1498
(dp1499
g62
(dp1500
g89
g90
ssg71
g1490
sg64
(lp1501
S':'
asbag57
(g78
g59
NtRp1502
(dp1503
g62
(dp1504
sg71
g1490
sg64
(lp1505
g57
(g58
g59
NtRp1506
(dp1507
g62
(dp1508
g70
I3
ssg71
g1502
sg64
(lp1509
S''
asbasbasbag57
(g73
g59
NtRp1510
(dp1511
g62
(dp1512
sg71
g1406
sg64
(lp1513
g57
(g78
g59
NtRp1514
(dp1515
g62
(dp1516
g82
g83
ssg71
g1510
sg64
(lp1517
g399
asbag57
(g78
g59
NtRp1518
(dp1519
g62
(dp1520
g89
g90
ssg71
g1510
sg64
(lp1521
S':'
asbag57
(g78
g59
NtRp1522
(dp1523
g62
(dp1524
sg71
g1510
sg64
(lp1525
g57
(g58
g59
NtRp1526
(dp1527
g62
(dp1528
g70
I3
ssg71
g1522
sg64
(lp1529
S''
asbasbasbag57
(g73
g59
NtRp1530
(dp1531
g62
(dp1532
sg71
g1406
sg64
(lp1533
g57
(g78
g59
NtRp1534
(dp1535
g62
(dp1536
g82
g83
ssg71
g1530
sg64
(lp1537
g420
asbag57
(g78
g59
NtRp1538
(dp1539
g62
(dp1540
g89
g90
ssg71
g1530
sg64
(lp1541
S':'
asbag57
(g78
g59
NtRp1542
(dp1543
g62
(dp1544
sg71
g1530
sg64
(lp1545
g57
(g58
g59
NtRp1546
(dp1547
g62
(dp1548
g70
I3
ssg71
g1542
sg64
(lp1549
S''
asbasbasbag57
(g73
g59
NtRp1550
(dp1551
g62
(dp1552
sg71
g1406
sg64
(lp1553
g57
(g78
g59
NtRp1554
(dp1555
g62
(dp1556
g82
g83
ssg71
g1550
sg64
(lp1557
g441
asbag57
(g78
g59
NtRp1558
(dp1559
g62
(dp1560
g89
g90
ssg71
g1550
sg64
(lp1561
S':'
asbag57
(g78
g59
NtRp1562
(dp1563
g62
(dp1564
sg71
g1550
sg64
(lp1565
g57
(g58
g59
NtRp1566
(dp1567
g62
(dp1568
g70
I3
ssg71
g1562
sg64
(lp1569
S''
asbasbasbasbasbasbasbasbasbasbasbag57
(g73
g59
NtRp1570
(dp1571
g62
(dp1572
sg71
g67
sg64
(lp1573
g57
(g78
g59
NtRp1574
(dp1575
g62
(dp1576
g82
g83
ssg71
g1570
sg64
(lp1577
S'env'
p1578
asbag57
(g78
g59
NtRp1579
(dp1580
g62
(dp1581
g89
g90
ssg71
g1570
sg64
(lp1582
S':'
asbag57
(g78
g59
NtRp1583
(dp1584
g62
(dp1585
sg71
g1570
sg64
(lp1586
g57
(g58
g59
NtRp1587
(dp1588
g62
(dp1589
g70
I5
ssg71
g1583
sg64
(lp1590
g57
(g66
g59
NtRp1591
(dp1592
g62
(dp1593
g70
I4
ssg71
Nsg64
(lp1594
g57
(g73
g59
NtRp1595
(dp1596
g62
(dp1597
sg71
g1591
sg64
(lp1598
g57
(g78
g59
NtRp1599
(dp1600
g62
(dp1601
g82
g83
ssg71
g1595
sg64
(lp1602
S'app_folders'
p1603
asbag57
(g78
g59
NtRp1604
(dp1605
g62
(dp1606
g89
g90
ssg71
g1595
sg64
(lp1607
S':'
asbag57
(g78
g59
NtRp1608
(dp1609
g62
(dp1610
sg71
g1595
sg64
(lp1611
g57
(g58
g59
NtRp1612
(dp1613
g62
(dp1614
g70
I4
ssg71
g1608
sg64
(lp1615
S"set(['/home/nishant/Acaedmics/Sem-2/ITWS-2/web2py/applications/Resume_Builder/', '/home/nishant/Acaedmics/Sem-2/ITWS-2/web2py/applications/backimg/', '/home/nishant/Acaedmics/Sem-2/ITWS-2/web2py/applications/welcome/', '/home/nishant/Acaedmics/Sem-2/ITWS-2/web2py/applications/admin/', '/home/nishant/Acaedmics/Sem-2/ITWS-2/web2py/applications/Resume3/', '/home/nishant/Acaedmics/Sem-2/ITWS-2/web2py/applications/Resume_Builder1/'])"
p1616
asbasbasbag57
(g73
g59
NtRp1617
(dp1618
g62
(dp1619
sg71
g1591
sg64
(lp1620
g57
(g78
g59
NtRp1621
(dp1622
g62
(dp1623
g82
g83
ssg71
g1617
sg64
(lp1624
S'applications_parent'
p1625
asbag57
(g78
g59
NtRp1626
(dp1627
g62
(dp1628
g89
g90
ssg71
g1617
sg64
(lp1629
S':'
asbag57
(g78
g59
NtRp1630
(dp1631
g62
(dp1632
sg71
g1617
sg64
(lp1633
g57
(g58
g59
NtRp1634
(dp1635
g62
(dp1636
g70
I4
ssg71
g1630
sg64
(lp1637
S'/home/nishant/Acaedmics/Sem-2/ITWS-2/web2py'
p1638
asbasbasbag57
(g73
g59
NtRp1639
(dp1640
g62
(dp1641
sg71
g1591
sg64
(lp1642
g57
(g78
g59
NtRp1643
(dp1644
g62
(dp1645
g82
g83
ssg71
g1639
sg64
(lp1646
S'cmd_args'
p1647
asbag57
(g78
g59
NtRp1648
(dp1649
g62
(dp1650
g89
g90
ssg71
g1639
sg64
(lp1651
S':'
asbag57
(g78
g59
NtRp1652
(dp1653
g62
(dp1654
sg71
g1639
sg64
(lp1655
g57
(g58
g59
NtRp1656
(dp1657
g62
(dp1658
g70
I4
ssg71
g1652
sg64
(lp1659
g57
(g66
g59
NtRp1660
(dp1661
g62
(dp1662
g70
I3
ssg71
Nsg64
(lp1663
sbasbasbasbag57
(g73
g59
NtRp1664
(dp1665
g62
(dp1666
sg71
g1591
sg64
(lp1667
g57
(g78
g59
NtRp1668
(dp1669
g62
(dp1670
g82
g83
ssg71
g1664
sg64
(lp1671
S'cmd_options'
p1672
asbag57
(g78
g59
NtRp1673
(dp1674
g62
(dp1675
g89
g90
ssg71
g1664
sg64
(lp1676
S':'
asbag57
(g78
g59
NtRp1677
(dp1678
g62
(dp1679
sg71
g1664
sg64
(lp1680
g57
(g58
g59
NtRp1681
(dp1682
g62
(dp1683
g70
I4
ssg71
g1677
sg64
(lp1684
S"<Values at 0x929e50c: {'verbose': False, 'ip': '127.0.0.1', 'with_scheduler': False, 'ips': [], 'shutdown_timeout': 5, 'taskbar': False, 'port': 8000, 'maxthreads': None, 'softcron': False, 'server_name': 'Nishant', 'bpython': False, 'nogui': False, 'pid_filename': 'httpserver.pid', 'extcron': False, 'runcron': False, 'run_system_tests': False, 'test': None, 'folder': '/home/nishant/Acaedmics/Sem-2/ITWS-2/web2py', 'config': '', 'import_models': False, 'winservice': '', 'shell': None, 'run': '', 'log_filename': 'httpserver.log', 'debuglevel': 30, 'args': [''], 'socket_timeout': 5, 'ssl_ca_certificate': None, 'scheduler': None, 'profiler_filename': None, 'ssl_private_key': '', 'scheduler_groups': None, 'password': '12345', 'request_queue_size': 5, 'ssl_certificate': '', 'cronjob': False, 'numthreads': None, 'quiet': False, 'interfaces': None, 'minthreads': None, 'timeout': 10, 'plain': False, 'nobanner': False}>"
p1685
asbasbasbag57
(g73
g59
NtRp1686
(dp1687
g62
(dp1688
sg71
g1591
sg64
(lp1689
g57
(g78
g59
NtRp1690
(dp1691
g62
(dp1692
g82
g83
ssg71
g1686
sg64
(lp1693
S'db_sessions'
p1694
asbag57
(g78
g59
NtRp1695
(dp1696
g62
(dp1697
g89
g90
ssg71
g1686
sg64
(lp1698
S':'
asbag57
(g78
g59
NtRp1699
(dp1700
g62
(dp1701
sg71
g1686
sg64
(lp1702
g57
(g58
g59
NtRp1703
(dp1704
g62
(dp1705
g70
I4
ssg71
g1699
sg64
(lp1706
S'set([])'
p1707
asbasbasbag57
(g73
g59
NtRp1708
(dp1709
g62
(dp1710
sg71
g1591
sg64
(lp1711
g57
(g78
g59
NtRp1712
(dp1713
g62
(dp1714
g82
g83
ssg71
g1708
sg64
(lp1715
S'debugging'
p1716
asbag57
(g78
g59
NtRp1717
(dp1718
g62
(dp1719
g89
g90
ssg71
g1708
sg64
(lp1720
S':'
asbag57
(g78
g59
NtRp1721
(dp1722
g62
(dp1723
sg71
g1708
sg64
(lp1724
g57
(g58
g59
NtRp1725
(dp1726
g62
(dp1727
g70
I4
ssg71
g1721
sg64
(lp1728
S'True'
p1729
asbasbasbag57
(g73
g59
NtRp1730
(dp1731
g62
(dp1732
sg71
g1591
sg64
(lp1733
g57
(g78
g59
NtRp1734
(dp1735
g62
(dp1736
g82
g83
ssg71
g1730
sg64
(lp1737
S'gluon_parent'
p1738
asbag57
(g78
g59
NtRp1739
(dp1740
g62
(dp1741
g89
g90
ssg71
g1730
sg64
(lp1742
S':'
asbag57
(g78
g59
NtRp1743
(dp1744
g62
(dp1745
sg71
g1730
sg64
(lp1746
g57
(g58
g59
NtRp1747
(dp1748
g62
(dp1749
g70
I4
ssg71
g1743
sg64
(lp1750
S'/home/nishant/Acaedmics/Sem-2/ITWS-2/web2py'
p1751
asbasbasbag57
(g73
g59
NtRp1752
(dp1753
g62
(dp1754
sg71
g1591
sg64
(lp1755
g57
(g78
g59
NtRp1756
(dp1757
g62
(dp1758
g82
g83
ssg71
g1752
sg64
(lp1759
S'http_accept'
p1760
asbag57
(g78
g59
NtRp1761
(dp1762
g62
(dp1763
g89
g90
ssg71
g1752
sg64
(lp1764
S':'
asbag57
(g78
g59
NtRp1765
(dp1766
g62
(dp1767
sg71
g1752
sg64
(lp1768
g57
(g58
g59
NtRp1769
(dp1770
g62
(dp1771
g70
I4
ssg71
g1765
sg64
(lp1772
S'text/html,application/xhtml+xml,application/xml;q=0.9,*/*;q=0.8'
p1773
asbasbasbag57
(g73
g59
NtRp1774
(dp1775
g62
(dp1776
sg71
g1591
sg64
(lp1777
g57
(g78
g59
NtRp1778
(dp1779
g62
(dp1780
g82
g83
ssg71
g1774
sg64
(lp1781
S'http_accept_encoding'
p1782
asbag57
(g78
g59
NtRp1783
(dp1784
g62
(dp1785
g89
g90
ssg71
g1774
sg64
(lp1786
S':'
asbag57
(g78
g59
NtRp1787
(dp1788
g62
(dp1789
sg71
g1774
sg64
(lp1790
g57
(g58
g59
NtRp1791
(dp1792
g62
(dp1793
g70
I4
ssg71
g1787
sg64
(lp1794
S'gzip, deflate'
p1795
asbasbasbag57
(g73
g59
NtRp1796
(dp1797
g62
(dp1798
sg71
g1591
sg64
(lp1799
g57
(g78
g59
NtRp1800
(dp1801
g62
(dp1802
g82
g83
ssg71
g1796
sg64
(lp1803
S'http_accept_language'
p1804
asbag57
(g78
g59
NtRp1805
(dp1806
g62
(dp1807
g89
g90
ssg71
g1796
sg64
(lp1808
S':'
asbag57
(g78
g59
NtRp1809
(dp1810
g62
(dp1811
sg71
g1796
sg64
(lp1812
g57
(g58
g59
NtRp1813
(dp1814
g62
(dp1815
g70
I4
ssg71
g1809
sg64
(lp1816
S'en-US,en;q=0.5'
p1817
asbasbasbag57
(g73
g59
NtRp1818
(dp1819
g62
(dp1820
sg71
g1591
sg64
(lp1821
g57
(g78
g59
NtRp1822
(dp1823
g62
(dp1824
g82
g83
ssg71
g1818
sg64
(lp1825
S'http_connection'
p1826
asbag57
(g78
g59
NtRp1827
(dp1828
g62
(dp1829
g89
g90
ssg71
g1818
sg64
(lp1830
S':'
asbag57
(g78
g59
NtRp1831
(dp1832
g62
(dp1833
sg71
g1818
sg64
(lp1834
g57
(g58
g59
NtRp1835
(dp1836
g62
(dp1837
g70
I4
ssg71
g1831
sg64
(lp1838
S'keep-alive'
p1839
asbasbasbag57
(g73
g59
NtRp1840
(dp1841
g62
(dp1842
sg71
g1591
sg64
(lp1843
g57
(g78
g59
NtRp1844
(dp1845
g62
(dp1846
g82
g83
ssg71
g1840
sg64
(lp1847
S'http_cookie'
p1848
asbag57
(g78
g59
NtRp1849
(dp1850
g62
(dp1851
g89
g90
ssg71
g1840
sg64
(lp1852
S':'
asbag57
(g78
g59
NtRp1853
(dp1854
g62
(dp1855
sg71
g1840
sg64
(lp1856
g57
(g58
g59
NtRp1857
(dp1858
g62
(dp1859
g70
I4
ssg71
g1853
sg64
(lp1860
S'session_id_resume1=127.0.0.1-5cabbee1-4f7f-4691-8820-683475549a85; session_id_resume_builder=127.0.0.1-f4ac87da-ca09-456f-9fc4-8cc4998ece7f; session_id_welcome=127.0.0.1-9588ecb3-2af1-42db-96f8-c83b95fcc2b6; session_id_admin=127.0.0.1-d8499d8b-4f3a-4ee5-a081-5f93717a670d; session_id_resume_builder1=127.0.0.1-874fcc84-4492-47e2-8b26-f280183a236c; session_id_resume3=127.0.0.1-17dca7f9-d885-4883-b0a8-563fbf96ad62; session_id_backimg=127.0.0.1-510de37e-632d-4f80-b1c3-d8a3bf298387'
p1861
asbasbasbag57
(g73
g59
NtRp1862
(dp1863
g62
(dp1864
sg71
g1591
sg64
(lp1865
g57
(g78
g59
NtRp1866
(dp1867
g62
(dp1868
g82
g83
ssg71
g1862
sg64
(lp1869
S'http_host'
p1870
asbag57
(g78
g59
NtRp1871
(dp1872
g62
(dp1873
g89
g90
ssg71
g1862
sg64
(lp1874
S':'
asbag57
(g78
g59
NtRp1875
(dp1876
g62
(dp1877
sg71
g1862
sg64
(lp1878
g57
(g58
g59
NtRp1879
(dp1880
g62
(dp1881
g70
I4
ssg71
g1875
sg64
(lp1882
S'127.0.0.1:8000'
p1883
asbasbasbag57
(g73
g59
NtRp1884
(dp1885
g62
(dp1886
sg71
g1591
sg64
(lp1887
g57
(g78
g59
NtRp1888
(dp1889
g62
(dp1890
g82
g83
ssg71
g1884
sg64
(lp1891
S'http_referer'
p1892
asbag57
(g78
g59
NtRp1893
(dp1894
g62
(dp1895
g89
g90
ssg71
g1884
sg64
(lp1896
S':'
asbag57
(g78
g59
NtRp1897
(dp1898
g62
(dp1899
sg71
g1884
sg64
(lp1900
g57
(g58
g59
NtRp1901
(dp1902
g62
(dp1903
g70
I4
ssg71
g1897
sg64
(lp1904
S'http://127.0.0.1:8000/backimg/default/view_msg'
p1905
asbasbasbag57
(g73
g59
NtRp1906
(dp1907
g62
(dp1908
sg71
g1591
sg64
(lp1909
g57
(g78
g59
NtRp1910
(dp1911
g62
(dp1912
g82
g83
ssg71
g1906
sg64
(lp1913
S'http_user_agent'
p1914
asbag57
(g78
g59
NtRp1915
(dp1916
g62
(dp1917
g89
g90
ssg71
g1906
sg64
(lp1918
S':'
asbag57
(g78
g59
NtRp1919
(dp1920
g62
(dp1921
sg71
g1906
sg64
(lp1922
g57
(g58
g59
NtRp1923
(dp1924
g62
(dp1925
g70
I4
ssg71
g1919
sg64
(lp1926
S'Mozilla/5.0 (X11; Ubuntu; Linux i686; rv:20.0) Gecko/20100101 Firefox/20.0'
p1927
asbasbasbag57
(g73
g59
NtRp1928
(dp1929
g62
(dp1930
sg71
g1591
sg64
(lp1931
g57
(g78
g59
NtRp1932
(dp1933
g62
(dp1934
g82
g83
ssg71
g1928
sg64
(lp1935
S'is_jython'
p1936
asbag57
(g78
g59
NtRp1937
(dp1938
g62
(dp1939
g89
g90
ssg71
g1928
sg64
(lp1940
S':'
asbag57
(g78
g59
NtRp1941
(dp1942
g62
(dp1943
sg71
g1928
sg64
(lp1944
g57
(g58
g59
NtRp1945
(dp1946
g62
(dp1947
g70
I4
ssg71
g1941
sg64
(lp1948
g100
asbasbasbag57
(g73
g59
NtRp1949
(dp1950
g62
(dp1951
sg71
g1591
sg64
(lp1952
g57
(g78
g59
NtRp1953
(dp1954
g62
(dp1955
g82
g83
ssg71
g1949
sg64
(lp1956
S'is_pypy'
p1957
asbag57
(g78
g59
NtRp1958
(dp1959
g62
(dp1960
g89
g90
ssg71
g1949
sg64
(lp1961
S':'
asbag57
(g78
g59
NtRp1962
(dp1963
g62
(dp1964
sg71
g1949
sg64
(lp1965
g57
(g58
g59
NtRp1966
(dp1967
g62
(dp1968
g70
I4
ssg71
g1962
sg64
(lp1969
g100
asbasbasbag57
(g73
g59
NtRp1970
(dp1971
g62
(dp1972
sg71
g1591
sg64
(lp1973
g57
(g78
g59
NtRp1974
(dp1975
g62
(dp1976
g82
g83
ssg71
g1970
sg64
(lp1977
S'local_hosts'
p1978
asbag57
(g78
g59
NtRp1979
(dp1980
g62
(dp1981
g89
g90
ssg71
g1970
sg64
(lp1982
S':'
asbag57
(g78
g59
NtRp1983
(dp1984
g62
(dp1985
sg71
g1970
sg64
(lp1986
g57
(g58
g59
NtRp1987
(dp1988
g62
(dp1989
g70
I4
ssg71
g1983
sg64
(lp1990
g57
(g66
g59
NtRp1991
(dp1992
g62
(dp1993
g70
I3
ssg71
Nsg64
(lp1994
g57
(g73
g59
NtRp1995
(dp1996
g62
(dp1997
sg71
g1991
sg64
(lp1998
g57
(g78
g59
NtRp1999
(dp2000
g62
(dp2001
sg71
g1995
sg64
(lp2002
g57
(g58
g59
NtRp2003
(dp2004
g62
(dp2005
g70
I3
ssg71
g1999
sg64
(lp2006
S'::1'
p2007
asbasbasbag57
(g73
g59
NtRp2008
(dp2009
g62
(dp2010
sg71
g1991
sg64
(lp2011
g57
(g78
g59
NtRp2012
(dp2013
g62
(dp2014
sg71
g2008
sg64
(lp2015
g57
(g58
g59
NtRp2016
(dp2017
g62
(dp2018
g70
I3
ssg71
g2012
sg64
(lp2019
S'127.0.1.1'
p2020
asbasbasbag57
(g73
g59
NtRp2021
(dp2022
g62
(dp2023
sg71
g1991
sg64
(lp2024
g57
(g78
g59
NtRp2025
(dp2026
g62
(dp2027
sg71
g2021
sg64
(lp2028
g57
(g58
g59
NtRp2029
(dp2030
g62
(dp2031
g70
I3
ssg71
g2025
sg64
(lp2032
S'::ffff:127.0.0.1'
p2033
asbasbasbag57
(g73
g59
NtRp2034
(dp2035
g62
(dp2036
sg71
g1991
sg64
(lp2037
g57
(g78
g59
NtRp2038
(dp2039
g62
(dp2040
sg71
g2034
sg64
(lp2041
g57
(g58
g59
NtRp2042
(dp2043
g62
(dp2044
g70
I3
ssg71
g2038
sg64
(lp2045
S'127.0.0.1'
p2046
asbasbasbag57
(g73
g59
NtRp2047
(dp2048
g62
(dp2049
sg71
g1991
sg64
(lp2050
g57
(g78
g59
NtRp2051
(dp2052
g62
(dp2053
sg71
g2047
sg64
(lp2054
g57
(g58
g59
NtRp2055
(dp2056
g62
(dp2057
g70
I3
ssg71
g2051
sg64
(lp2058
S'Nishant'
p2059
asbasbasbasbasbasbasbag57
(g73
g59
NtRp2060
(dp2061
g62
(dp2062
sg71
g1591
sg64
(lp2063
g57
(g78
g59
NtRp2064
(dp2065
g62
(dp2066
g82
g83
ssg71
g2060
sg64
(lp2067
S'path_info'
p2068
asbag57
(g78
g59
NtRp2069
(dp2070
g62
(dp2071
g89
g90
ssg71
g2060
sg64
(lp2072
S':'
asbag57
(g78
g59
NtRp2073
(dp2074
g62
(dp2075
sg71
g2060
sg64
(lp2076
g57
(g58
g59
NtRp2077
(dp2078
g62
(dp2079
g70
I4
ssg71
g2073
sg64
(lp2080
S'/backimg/default/single_company_msg'
p2081
asbasbasbag57
(g73
g59
NtRp2082
(dp2083
g62
(dp2084
sg71
g1591
sg64
(lp2085
g57
(g78
g59
NtRp2086
(dp2087
g62
(dp2088
g82
g83
ssg71
g2082
sg64
(lp2089
S'query_string'
p2090
asbag57
(g78
g59
NtRp2091
(dp2092
g62
(dp2093
g89
g90
ssg71
g2082
sg64
(lp2094
S':'
asbag57
(g78
g59
NtRp2095
(dp2096
g62
(dp2097
sg71
g2082
sg64
(lp2098
g57
(g58
g59
NtRp2099
(dp2100
g62
(dp2101
g70
I4
ssg71
g2095
sg64
(lp2102
S''
asbasbasbag57
(g73
g59
NtRp2103
(dp2104
g62
(dp2105
sg71
g1591
sg64
(lp2106
g57
(g78
g59
NtRp2107
(dp2108
g62
(dp2109
g82
g83
ssg71
g2103
sg64
(lp2110
S'remote_addr'
p2111
asbag57
(g78
g59
NtRp2112
(dp2113
g62
(dp2114
g89
g90
ssg71
g2103
sg64
(lp2115
S':'
asbag57
(g78
g59
NtRp2116
(dp2117
g62
(dp2118
sg71
g2103
sg64
(lp2119
g57
(g58
g59
NtRp2120
(dp2121
g62
(dp2122
g70
I4
ssg71
g2116
sg64
(lp2123
g212
asbasbasbag57
(g73
g59
NtRp2124
(dp2125
g62
(dp2126
sg71
g1591
sg64
(lp2127
g57
(g78
g59
NtRp2128
(dp2129
g62
(dp2130
g82
g83
ssg71
g2124
sg64
(lp2131
S'remote_port'
p2132
asbag57
(g78
g59
NtRp2133
(dp2134
g62
(dp2135
g89
g90
ssg71
g2124
sg64
(lp2136
S':'
asbag57
(g78
g59
NtRp2137
(dp2138
g62
(dp2139
sg71
g2124
sg64
(lp2140
g57
(g58
g59
NtRp2141
(dp2142
g62
(dp2143
g70
I4
ssg71
g2137
sg64
(lp2144
S'50409'
p2145
asbasbasbag57
(g73
g59
NtRp2146
(dp2147
g62
(dp2148
sg71
g1591
sg64
(lp2149
g57
(g78
g59
NtRp2150
(dp2151
g62
(dp2152
g82
g83
ssg71
g2146
sg64
(lp2153
S'request_method'
p2154
asbag57
(g78
g59
NtRp2155
(dp2156
g62
(dp2157
g89
g90
ssg71
g2146
sg64
(lp2158
S':'
asbag57
(g78
g59
NtRp2159
(dp2160
g62
(dp2161
sg71
g2146
sg64
(lp2162
g57
(g58
g59
NtRp2163
(dp2164
g62
(dp2165
g70
I4
ssg71
g2159
sg64
(lp2166
S'GET'
p2167
asbasbasbag57
(g73
g59
NtRp2168
(dp2169
g62
(dp2170
sg71
g1591
sg64
(lp2171
g57
(g78
g59
NtRp2172
(dp2173
g62
(dp2174
g82
g83
ssg71
g2168
sg64
(lp2175
S'request_uri'
p2176
asbag57
(g78
g59
NtRp2177
(dp2178
g62
(dp2179
g89
g90
ssg71
g2168
sg64
(lp2180
S':'
asbag57
(g78
g59
NtRp2181
(dp2182
g62
(dp2183
sg71
g2168
sg64
(lp2184
g57
(g58
g59
NtRp2185
(dp2186
g62
(dp2187
g70
I4
ssg71
g2181
sg64
(lp2188
g2081
asbasbasbag57
(g73
g59
NtRp2189
(dp2190
g62
(dp2191
sg71
g1591
sg64
(lp2192
g57
(g78
g59
NtRp2193
(dp2194
g62
(dp2195
g82
g83
ssg71
g2189
sg64
(lp2196
S'script_name'
p2197
asbag57
(g78
g59
NtRp2198
(dp2199
g62
(dp2200
g89
g90
ssg71
g2189
sg64
(lp2201
S':'
asbag57
(g78
g59
NtRp2202
(dp2203
g62
(dp2204
sg71
g2189
sg64
(lp2205
g57
(g58
g59
NtRp2206
(dp2207
g62
(dp2208
g70
I4
ssg71
g2202
sg64
(lp2209
S''
asbasbasbag57
(g73
g59
NtRp2210
(dp2211
g62
(dp2212
sg71
g1591
sg64
(lp2213
g57
(g78
g59
NtRp2214
(dp2215
g62
(dp2216
g82
g83
ssg71
g2210
sg64
(lp2217
S'server_name'
p2218
asbag57
(g78
g59
NtRp2219
(dp2220
g62
(dp2221
g89
g90
ssg71
g2210
sg64
(lp2222
S':'
asbag57
(g78
g59
NtRp2223
(dp2224
g62
(dp2225
sg71
g2210
sg64
(lp2226
g57
(g58
g59
NtRp2227
(dp2228
g62
(dp2229
g70
I4
ssg71
g2223
sg64
(lp2230
S'Nishant'
p2231
asbasbasbag57
(g73
g59
NtRp2232
(dp2233
g62
(dp2234
sg71
g1591
sg64
(lp2235
g57
(g78
g59
NtRp2236
(dp2237
g62
(dp2238
g82
g83
ssg71
g2232
sg64
(lp2239
S'server_port'
p2240
asbag57
(g78
g59
NtRp2241
(dp2242
g62
(dp2243
g89
g90
ssg71
g2232
sg64
(lp2244
S':'
asbag57
(g78
g59
NtRp2245
(dp2246
g62
(dp2247
sg71
g2232
sg64
(lp2248
g57
(g58
g59
NtRp2249
(dp2250
g62
(dp2251
g70
I4
ssg71
g2245
sg64
(lp2252
S'8000'
p2253
asbasbasbag57
(g73
g59
NtRp2254
(dp2255
g62
(dp2256
sg71
g1591
sg64
(lp2257
g57
(g78
g59
NtRp2258
(dp2259
g62
(dp2260
g82
g83
ssg71
g2254
sg64
(lp2261
S'server_protocol'
p2262
asbag57
(g78
g59
NtRp2263
(dp2264
g62
(dp2265
g89
g90
ssg71
g2254
sg64
(lp2266
S':'
asbag57
(g78
g59
NtRp2267
(dp2268
g62
(dp2269
sg71
g2254
sg64
(lp2270
g57
(g58
g59
NtRp2271
(dp2272
g62
(dp2273
g70
I4
ssg71
g2267
sg64
(lp2274
S'HTTP/1.1'
p2275
asbasbasbag57
(g73
g59
NtRp2276
(dp2277
g62
(dp2278
sg71
g1591
sg64
(lp2279
g57
(g78
g59
NtRp2280
(dp2281
g62
(dp2282
g82
g83
ssg71
g2276
sg64
(lp2283
S'server_software'
p2284
asbag57
(g78
g59
NtRp2285
(dp2286
g62
(dp2287
g89
g90
ssg71
g2276
sg64
(lp2288
S':'
asbag57
(g78
g59
NtRp2289
(dp2290
g62
(dp2291
sg71
g2276
sg64
(lp2292
g57
(g58
g59
NtRp2293
(dp2294
g62
(dp2295
g70
I4
ssg71
g2289
sg64
(lp2296
S'Rocket 1.2.6'
p2297
asbasbasbag57
(g73
g59
NtRp2298
(dp2299
g62
(dp2300
sg71
g1591
sg64
(lp2301
g57
(g78
g59
NtRp2302
(dp2303
g62
(dp2304
g82
g83
ssg71
g2298
sg64
(lp2305
S'web2py_path'
p2306
asbag57
(g78
g59
NtRp2307
(dp2308
g62
(dp2309
g89
g90
ssg71
g2298
sg64
(lp2310
S':'
asbag57
(g78
g59
NtRp2311
(dp2312
g62
(dp2313
sg71
g2298
sg64
(lp2314
g57
(g58
g59
NtRp2315
(dp2316
g62
(dp2317
g70
I4
ssg71
g2311
sg64
(lp2318
g1638
asbasbasbag57
(g73
g59
NtRp2319
(dp2320
g62
(dp2321
sg71
g1591
sg64
(lp2322
g57
(g78
g59
NtRp2323
(dp2324
g62
(dp2325
g82
g83
ssg71
g2319
sg64
(lp2326
S'web2py_version'
p2327
asbag57
(g78
g59
NtRp2328
(dp2329
g62
(dp2330
g89
g90
ssg71
g2319
sg64
(lp2331
S':'
asbag57
(g78
g59
NtRp2332
(dp2333
g62
(dp2334
sg71
g2319
sg64
(lp2335
g57
(g58
g59
NtRp2336
(dp2337
g62
(dp2338
g70
I4
ssg71
g2332
sg64
(lp2339
g57
(g66
g59
NtRp2340
(dp2341
g62
(dp2342
g70
I3
ssg71
Nsg64
(lp2343
g57
(g73
g59
NtRp2344
(dp2345
g62
(dp2346
sg71
g2340
sg64
(lp2347
g57
(g78
g59
NtRp2348
(dp2349
g62
(dp2350
sg71
g2344
sg64
(lp2351
g57
(g58
g59
NtRp2352
(dp2353
g62
(dp2354
g70
I3
ssg71
g2348
sg64
(lp2355
S'2'
asbasbasbag57
(g73
g59
NtRp2356
(dp2357
g62
(dp2358
sg71
g2340
sg64
(lp2359
g57
(g78
g59
NtRp2360
(dp2361
g62
(dp2362
sg71
g2356
sg64
(lp2363
g57
(g58
g59
NtRp2364
(dp2365
g62
(dp2366
g70
I3
ssg71
g2360
sg64
(lp2367
S'4'
asbasbasbag57
(g73
g59
NtRp2368
(dp2369
g62
(dp2370
sg71
g2340
sg64
(lp2371
g57
(g78
g59
NtRp2372
(dp2373
g62
(dp2374
sg71
g2368
sg64
(lp2375
g57
(g58
g59
NtRp2376
(dp2377
g62
(dp2378
g70
I3
ssg71
g2372
sg64
(lp2379
S'1'
asbasbasbag57
(g73
g59
NtRp2380
(dp2381
g62
(dp2382
sg71
g2340
sg64
(lp2383
g57
(g78
g59
NtRp2384
(dp2385
g62
(dp2386
sg71
g2380
sg64
(lp2387
g57
(g58
g59
NtRp2388
(dp2389
g62
(dp2390
g70
I3
ssg71
g2384
sg64
(lp2391
S'alpha.2'
p2392
asbasbasbag57
(g73
g59
NtRp2393
(dp2394
g62
(dp2395
sg71
g2340
sg64
(lp2396
g57
(g78
g59
NtRp2397
(dp2398
g62
(dp2399
sg71
g2393
sg64
(lp2400
g57
(g58
g59
NtRp2401
(dp2402
g62
(dp2403
g70
I3
ssg71
g2397
sg64
(lp2404
S'datetime.datetime(2013, 1, 10, 21, 26, 18)'
p2405
asbasbasbasbasbasbasbag57
(g73
g59
NtRp2406
(dp2407
g62
(dp2408
sg71
g1591
sg64
(lp2409
g57
(g78
g59
NtRp2410
(dp2411
g62
(dp2412
g82
g83
ssg71
g2406
sg64
(lp2413
S'wsgi_errors'
p2414
asbag57
(g78
g59
NtRp2415
(dp2416
g62
(dp2417
g89
g90
ssg71
g2406
sg64
(lp2418
S':'
asbag57
(g78
g59
NtRp2419
(dp2420
g62
(dp2421
sg71
g2406
sg64
(lp2422
g57
(g58
g59
NtRp2423
(dp2424
g62
(dp2425
g70
I4
ssg71
g2419
sg64
(lp2426
S"<open file '<stderr>', mode 'w' at 0xb75210d0>"
p2427
asbasbasbag57
(g73
g59
NtRp2428
(dp2429
g62
(dp2430
sg71
g1591
sg64
(lp2431
g57
(g78
g59
NtRp2432
(dp2433
g62
(dp2434
g82
g83
ssg71
g2428
sg64
(lp2435
S'wsgi_file_wrapper'
p2436
asbag57
(g78
g59
NtRp2437
(dp2438
g62
(dp2439
g89
g90
ssg71
g2428
sg64
(lp2440
S':'
asbag57
(g78
g59
NtRp2441
(dp2442
g62
(dp2443
sg71
g2428
sg64
(lp2444
g57
(g58
g59
NtRp2445
(dp2446
g62
(dp2447
g70
I4
ssg71
g2441
sg64
(lp2448
S'<class wsgiref.util.FileWrapper at 0x9220ddc>'
p2449
asbasbasbag57
(g73
g59
NtRp2450
(dp2451
g62
(dp2452
sg71
g1591
sg64
(lp2453
g57
(g78
g59
NtRp2454
(dp2455
g62
(dp2456
g82
g83
ssg71
g2450
sg64
(lp2457
S'wsgi_input'
p2458
asbag57
(g78
g59
NtRp2459
(dp2460
g62
(dp2461
g89
g90
ssg71
g2450
sg64
(lp2462
S':'
asbag57
(g78
g59
NtRp2463
(dp2464
g62
(dp2465
sg71
g2450
sg64
(lp2466
g57
(g58
g59
NtRp2467
(dp2468
g62
(dp2469
g70
I4
ssg71
g2463
sg64
(lp2470
S'<socket._fileobject object at 0x940846c>'
p2471
asbasbasbag57
(g73
g59
NtRp2472
(dp2473
g62
(dp2474
sg71
g1591
sg64
(lp2475
g57
(g78
g59
NtRp2476
(dp2477
g62
(dp2478
g82
g83
ssg71
g2472
sg64
(lp2479
S'wsgi_multiprocess'
p2480
asbag57
(g78
g59
NtRp2481
(dp2482
g62
(dp2483
g89
g90
ssg71
g2472
sg64
(lp2484
S':'
asbag57
(g78
g59
NtRp2485
(dp2486
g62
(dp2487
sg71
g2472
sg64
(lp2488
g57
(g58
g59
NtRp2489
(dp2490
g62
(dp2491
g70
I4
ssg71
g2485
sg64
(lp2492
g100
asbasbasbag57
(g73
g59
NtRp2493
(dp2494
g62
(dp2495
sg71
g1591
sg64
(lp2496
g57
(g78
g59
NtRp2497
(dp2498
g62
(dp2499
g82
g83
ssg71
g2493
sg64
(lp2500
S'wsgi_multithread'
p2501
asbag57
(g78
g59
NtRp2502
(dp2503
g62
(dp2504
g89
g90
ssg71
g2493
sg64
(lp2505
S':'
asbag57
(g78
g59
NtRp2506
(dp2507
g62
(dp2508
sg71
g2493
sg64
(lp2509
g57
(g58
g59
NtRp2510
(dp2511
g62
(dp2512
g70
I4
ssg71
g2506
sg64
(lp2513
g1729
asbasbasbag57
(g73
g59
NtRp2514
(dp2515
g62
(dp2516
sg71
g1591
sg64
(lp2517
g57
(g78
g59
NtRp2518
(dp2519
g62
(dp2520
g82
g83
ssg71
g2514
sg64
(lp2521
S'wsgi_run_once'
p2522
asbag57
(g78
g59
NtRp2523
(dp2524
g62
(dp2525
g89
g90
ssg71
g2514
sg64
(lp2526
S':'
asbag57
(g78
g59
NtRp2527
(dp2528
g62
(dp2529
sg71
g2514
sg64
(lp2530
g57
(g58
g59
NtRp2531
(dp2532
g62
(dp2533
g70
I4
ssg71
g2527
sg64
(lp2534
g100
asbasbasbag57
(g73
g59
NtRp2535
(dp2536
g62
(dp2537
sg71
g1591
sg64
(lp2538
g57
(g78
g59
NtRp2539
(dp2540
g62
(dp2541
g82
g83
ssg71
g2535
sg64
(lp2542
S'wsgi_url_scheme'
p2543
asbag57
(g78
g59
NtRp2544
(dp2545
g62
(dp2546
g89
g90
ssg71
g2535
sg64
(lp2547
S':'
asbag57
(g78
g59
NtRp2548
(dp2549
g62
(dp2550
sg71
g2535
sg64
(lp2551
g57
(g58
g59
NtRp2552
(dp2553
g62
(dp2554
g70
I4
ssg71
g2548
sg64
(lp2555
S'http'
p2556
asbasbasbag57
(g73
g59
NtRp2557
(dp2558
g62
(dp2559
sg71
g1591
sg64
(lp2560
g57
(g78
g59
NtRp2561
(dp2562
g62
(dp2563
g82
g83
ssg71
g2557
sg64
(lp2564
S'wsgi_version'
p2565
asbag57
(g78
g59
NtRp2566
(dp2567
g62
(dp2568
g89
g90
ssg71
g2557
sg64
(lp2569
S':'
asbag57
(g78
g59
NtRp2570
(dp2571
g62
(dp2572
sg71
g2557
sg64
(lp2573
g57
(g58
g59
NtRp2574
(dp2575
g62
(dp2576
g70
I4
ssg71
g2570
sg64
(lp2577
g57
(g66
g59
NtRp2578
(dp2579
g62
(dp2580
g70
I3
ssg71
Nsg64
(lp2581
g57
(g73
g59
NtRp2582
(dp2583
g62
(dp2584
sg71
g2578
sg64
(lp2585
g57
(g78
g59
NtRp2586
(dp2587
g62
(dp2588
sg71
g2582
sg64
(lp2589
g57
(g58
g59
NtRp2590
(dp2591
g62
(dp2592
g70
I3
ssg71
g2586
sg64
(lp2593
S'1'
asbasbasbag57
(g73
g59
NtRp2594
(dp2595
g62
(dp2596
sg71
g2578
sg64
(lp2597
g57
(g78
g59
NtRp2598
(dp2599
g62
(dp2600
sg71
g2594
sg64
(lp2601
g57
(g58
g59
NtRp2602
(dp2603
g62
(dp2604
g70
I3
ssg71
g2598
sg64
(lp2605
S'0'
asbasbasbasbasbasbasbasbasbasbasbag57
(g73
g59
NtRp2606
(dp2607
g62
(dp2608
sg71
g67
sg64
(lp2609
g57
(g78
g59
NtRp2610
(dp2611
g62
(dp2612
g82
g83
ssg71
g2606
sg64
(lp2613
S'extension'
p2614
asbag57
(g78
g59
NtRp2615
(dp2616
g62
(dp2617
g89
g90
ssg71
g2606
sg64
(lp2618
S':'
asbag57
(g78
g59
NtRp2619
(dp2620
g62
(dp2621
sg71
g2606
sg64
(lp2622
g57
(g58
g59
NtRp2623
(dp2624
g62
(dp2625
g70
I5
ssg71
g2619
sg64
(lp2626
S'html'
p2627
asbasbasbag57
(g73
g59
NtRp2628
(dp2629
g62
(dp2630
sg71
g67
sg64
(lp2631
g57
(g78
g59
NtRp2632
(dp2633
g62
(dp2634
g82
g83
ssg71
g2628
sg64
(lp2635
S'folder'
p2636
asbag57
(g78
g59
NtRp2637
(dp2638
g62
(dp2639
g89
g90
ssg71
g2628
sg64
(lp2640
S':'
asbag57
(g78
g59
NtRp2641
(dp2642
g62
(dp2643
sg71
g2628
sg64
(lp2644
g57
(g58
g59
NtRp2645
(dp2646
g62
(dp2647
g70
I5
ssg71
g2641
sg64
(lp2648
S'/home/nishant/Acaedmics/Sem-2/ITWS-2/web2py/applications/backimg/'
p2649
asbasbasbag57
(g73
g59
NtRp2650
(dp2651
g62
(dp2652
sg71
g67
sg64
(lp2653
g57
(g78
g59
NtRp2654
(dp2655
g62
(dp2656
g82
g83
ssg71
g2650
sg64
(lp2657
S'function'
p2658
asbag57
(g78
g59
NtRp2659
(dp2660
g62
(dp2661
g89
g90
ssg71
g2650
sg64
(lp2662
S':'
asbag57
(g78
g59
NtRp2663
(dp2664
g62
(dp2665
sg71
g2650
sg64
(lp2666
g57
(g58
g59
NtRp2667
(dp2668
g62
(dp2669
g70
I5
ssg71
g2663
sg64
(lp2670
S'single_company_msg'
p2671
asbasbasbag57
(g73
g59
NtRp2672
(dp2673
g62
(dp2674
sg71
g67
sg64
(lp2675
g57
(g78
g59
NtRp2676
(dp2677
g62
(dp2678
g82
g83
ssg71
g2672
sg64
(lp2679
S'get_vars'
p2680
asbag57
(g78
g59
NtRp2681
(dp2682
g62
(dp2683
g89
g90
ssg71
g2672
sg64
(lp2684
S':'
asbag57
(g78
g59
NtRp2685
(dp2686
g62
(dp2687
sg71
g2672
sg64
(lp2688
g57
(g58
g59
NtRp2689
(dp2690
g62
(dp2691
g70
I5
ssg71
g2685
sg64
(lp2692
g57
(g66
g59
NtRp2693
(dp2694
g62
(dp2695
g70
I4
ssg71
Nsg64
(lp2696
sbasbasbasbag57
(g73
g59
NtRp2697
(dp2698
g62
(dp2699
sg71
g67
sg64
(lp2700
g57
(g78
g59
NtRp2701
(dp2702
g62
(dp2703
g82
g83
ssg71
g2697
sg64
(lp2704
S'global_settings'
p2705
asbag57
(g78
g59
NtRp2706
(dp2707
g62
(dp2708
g89
g90
ssg71
g2697
sg64
(lp2709
S':'
asbag57
(g78
g59
NtRp2710
(dp2711
g62
(dp2712
sg71
g2697
sg64
(lp2713
g57
(g58
g59
NtRp2714
(dp2715
g62
(dp2716
g70
I5
ssg71
g2710
sg64
(lp2717
g57
(g66
g59
NtRp2718
(dp2719
g62
(dp2720
g70
I4
ssg71
Nsg64
(lp2721
g57
(g73
g59
NtRp2722
(dp2723
g62
(dp2724
sg71
g2718
sg64
(lp2725
g57
(g78
g59
NtRp2726
(dp2727
g62
(dp2728
g82
g83
ssg71
g2722
sg64
(lp2729
g1603
asbag57
(g78
g59
NtRp2730
(dp2731
g62
(dp2732
g89
g90
ssg71
g2722
sg64
(lp2733
S':'
asbag57
(g78
g59
NtRp2734
(dp2735
g62
(dp2736
sg71
g2722
sg64
(lp2737
g57
(g58
g59
NtRp2738
(dp2739
g62
(dp2740
g70
I4
ssg71
g2734
sg64
(lp2741
S"set(['/home/nishant/Acaedmics/Sem-2/ITWS-2/web2py/applications/Resume_Builder/', '/home/nishant/Acaedmics/Sem-2/ITWS-2/web2py/applications/backimg/', '/home/nishant/Acaedmics/Sem-2/ITWS-2/web2py/applications/welcome/', '/home/nishant/Acaedmics/Sem-2/ITWS-2/web2py/applications/admin/', '/home/nishant/Acaedmics/Sem-2/ITWS-2/web2py/applications/Resume3/', '/home/nishant/Acaedmics/Sem-2/ITWS-2/web2py/applications/Resume_Builder1/'])"
p2742
asbasbasbag57
(g73
g59
NtRp2743
(dp2744
g62
(dp2745
sg71
g2718
sg64
(lp2746
g57
(g78
g59
NtRp2747
(dp2748
g62
(dp2749
g82
g83
ssg71
g2743
sg64
(lp2750
g1625
asbag57
(g78
g59
NtRp2751
(dp2752
g62
(dp2753
g89
g90
ssg71
g2743
sg64
(lp2754
S':'
asbag57
(g78
g59
NtRp2755
(dp2756
g62
(dp2757
sg71
g2743
sg64
(lp2758
g57
(g58
g59
NtRp2759
(dp2760
g62
(dp2761
g70
I4
ssg71
g2755
sg64
(lp2762
g1638
asbasbasbag57
(g73
g59
NtRp2763
(dp2764
g62
(dp2765
sg71
g2718
sg64
(lp2766
g57
(g78
g59
NtRp2767
(dp2768
g62
(dp2769
g82
g83
ssg71
g2763
sg64
(lp2770
g1647
asbag57
(g78
g59
NtRp2771
(dp2772
g62
(dp2773
g89
g90
ssg71
g2763
sg64
(lp2774
S':'
asbag57
(g78
g59
NtRp2775
(dp2776
g62
(dp2777
sg71
g2763
sg64
(lp2778
g57
(g58
g59
NtRp2779
(dp2780
g62
(dp2781
g70
I4
ssg71
g2775
sg64
(lp2782
g57
(g66
g59
NtRp2783
(dp2784
g62
(dp2785
g70
I3
ssg71
Nsg64
(lp2786
sbasbasbasbag57
(g73
g59
NtRp2787
(dp2788
g62
(dp2789
sg71
g2718
sg64
(lp2790
g57
(g78
g59
NtRp2791
(dp2792
g62
(dp2793
g82
g83
ssg71
g2787
sg64
(lp2794
g1672
asbag57
(g78
g59
NtRp2795
(dp2796
g62
(dp2797
g89
g90
ssg71
g2787
sg64
(lp2798
S':'
asbag57
(g78
g59
NtRp2799
(dp2800
g62
(dp2801
sg71
g2787
sg64
(lp2802
g57
(g58
g59
NtRp2803
(dp2804
g62
(dp2805
g70
I4
ssg71
g2799
sg64
(lp2806
S"<Values at 0x929e50c: {'verbose': False, 'ip': '127.0.0.1', 'with_scheduler': False, 'ips': [], 'shutdown_timeout': 5, 'taskbar': False, 'port': 8000, 'maxthreads': None, 'softcron': False, 'server_name': 'Nishant', 'bpython': False, 'nogui': False, 'pid_filename': 'httpserver.pid', 'extcron': False, 'runcron': False, 'run_system_tests': False, 'test': None, 'folder': '/home/nishant/Acaedmics/Sem-2/ITWS-2/web2py', 'config': '', 'import_models': False, 'winservice': '', 'shell': None, 'run': '', 'log_filename': 'httpserver.log', 'debuglevel': 30, 'args': [''], 'socket_timeout': 5, 'ssl_ca_certificate': None, 'scheduler': None, 'profiler_filename': None, 'ssl_private_key': '', 'scheduler_groups': None, 'password': '12345', 'request_queue_size': 5, 'ssl_certificate': '', 'cronjob': False, 'numthreads': None, 'quiet': False, 'interfaces': None, 'minthreads': None, 'timeout': 10, 'plain': False, 'nobanner': False}>"
p2807
asbasbasbag57
(g73
g59
NtRp2808
(dp2809
g62
(dp2810
sg71
g2718
sg64
(lp2811
g57
(g78
g59
NtRp2812
(dp2813
g62
(dp2814
g82
g83
ssg71
g2808
sg64
(lp2815
g1694
asbag57
(g78
g59
NtRp2816
(dp2817
g62
(dp2818
g89
g90
ssg71
g2808
sg64
(lp2819
S':'
asbag57
(g78
g59
NtRp2820
(dp2821
g62
(dp2822
sg71
g2808
sg64
(lp2823
g57
(g58
g59
NtRp2824
(dp2825
g62
(dp2826
g70
I4
ssg71
g2820
sg64
(lp2827
S'set([])'
p2828
asbasbasbag57
(g73
g59
NtRp2829
(dp2830
g62
(dp2831
sg71
g2718
sg64
(lp2832
g57
(g78
g59
NtRp2833
(dp2834
g62
(dp2835
g82
g83
ssg71
g2829
sg64
(lp2836
g1716
asbag57
(g78
g59
NtRp2837
(dp2838
g62
(dp2839
g89
g90
ssg71
g2829
sg64
(lp2840
S':'
asbag57
(g78
g59
NtRp2841
(dp2842
g62
(dp2843
sg71
g2829
sg64
(lp2844
g57
(g58
g59
NtRp2845
(dp2846
g62
(dp2847
g70
I4
ssg71
g2841
sg64
(lp2848
g1729
asbasbasbag57
(g73
g59
NtRp2849
(dp2850
g62
(dp2851
sg71
g2718
sg64
(lp2852
g57
(g78
g59
NtRp2853
(dp2854
g62
(dp2855
g82
g83
ssg71
g2849
sg64
(lp2856
g1738
asbag57
(g78
g59
NtRp2857
(dp2858
g62
(dp2859
g89
g90
ssg71
g2849
sg64
(lp2860
S':'
asbag57
(g78
g59
NtRp2861
(dp2862
g62
(dp2863
sg71
g2849
sg64
(lp2864
g57
(g58
g59
NtRp2865
(dp2866
g62
(dp2867
g70
I4
ssg71
g2861
sg64
(lp2868
g1751
asbasbasbag57
(g73
g59
NtRp2869
(dp2870
g62
(dp2871
sg71
g2718
sg64
(lp2872
g57
(g78
g59
NtRp2873
(dp2874
g62
(dp2875
g82
g83
ssg71
g2869
sg64
(lp2876
g1936
asbag57
(g78
g59
NtRp2877
(dp2878
g62
(dp2879
g89
g90
ssg71
g2869
sg64
(lp2880
S':'
asbag57
(g78
g59
NtRp2881
(dp2882
g62
(dp2883
sg71
g2869
sg64
(lp2884
g57
(g58
g59
NtRp2885
(dp2886
g62
(dp2887
g70
I4
ssg71
g2881
sg64
(lp2888
g100
asbasbasbag57
(g73
g59
NtRp2889
(dp2890
g62
(dp2891
sg71
g2718
sg64
(lp2892
g57
(g78
g59
NtRp2893
(dp2894
g62
(dp2895
g82
g83
ssg71
g2889
sg64
(lp2896
g1957
asbag57
(g78
g59
NtRp2897
(dp2898
g62
(dp2899
g89
g90
ssg71
g2889
sg64
(lp2900
S':'
asbag57
(g78
g59
NtRp2901
(dp2902
g62
(dp2903
sg71
g2889
sg64
(lp2904
g57
(g58
g59
NtRp2905
(dp2906
g62
(dp2907
g70
I4
ssg71
g2901
sg64
(lp2908
g100
asbasbasbag57
(g73
g59
NtRp2909
(dp2910
g62
(dp2911
sg71
g2718
sg64
(lp2912
g57
(g78
g59
NtRp2913
(dp2914
g62
(dp2915
g82
g83
ssg71
g2909
sg64
(lp2916
g1978
asbag57
(g78
g59
NtRp2917
(dp2918
g62
(dp2919
g89
g90
ssg71
g2909
sg64
(lp2920
S':'
asbag57
(g78
g59
NtRp2921
(dp2922
g62
(dp2923
sg71
g2909
sg64
(lp2924
g57
(g58
g59
NtRp2925
(dp2926
g62
(dp2927
g70
I4
ssg71
g2921
sg64
(lp2928
g57
(g66
g59
NtRp2929
(dp2930
g62
(dp2931
g70
I3
ssg71
Nsg64
(lp2932
g57
(g73
g59
NtRp2933
(dp2934
g62
(dp2935
sg71
g2929
sg64
(lp2936
g57
(g78
g59
NtRp2937
(dp2938
g62
(dp2939
sg71
g2933
sg64
(lp2940
g57
(g58
g59
NtRp2941
(dp2942
g62
(dp2943
g70
I3
ssg71
g2937
sg64
(lp2944
g2007
asbasbasbag57
(g73
g59
NtRp2945
(dp2946
g62
(dp2947
sg71
g2929
sg64
(lp2948
g57
(g78
g59
NtRp2949
(dp2950
g62
(dp2951
sg71
g2945
sg64
(lp2952
g57
(g58
g59
NtRp2953
(dp2954
g62
(dp2955
g70
I3
ssg71
g2949
sg64
(lp2956
g2020
asbasbasbag57
(g73
g59
NtRp2957
(dp2958
g62
(dp2959
sg71
g2929
sg64
(lp2960
g57
(g78
g59
NtRp2961
(dp2962
g62
(dp2963
sg71
g2957
sg64
(lp2964
g57
(g58
g59
NtRp2965
(dp2966
g62
(dp2967
g70
I3
ssg71
g2961
sg64
(lp2968
g2033
asbasbasbag57
(g73
g59
NtRp2969
(dp2970
g62
(dp2971
sg71
g2929
sg64
(lp2972
g57
(g78
g59
NtRp2973
(dp2974
g62
(dp2975
sg71
g2969
sg64
(lp2976
g57
(g58
g59
NtRp2977
(dp2978
g62
(dp2979
g70
I3
ssg71
g2973
sg64
(lp2980
g2046
asbasbasbag57
(g73
g59
NtRp2981
(dp2982
g62
(dp2983
sg71
g2929
sg64
(lp2984
g57
(g78
g59
NtRp2985
(dp2986
g62
(dp2987
sg71
g2981
sg64
(lp2988
g57
(g58
g59
NtRp2989
(dp2990
g62
(dp2991
g70
I3
ssg71
g2985
sg64
(lp2992
g2059
asbasbasbasbasbasbasbag57
(g73
g59
NtRp2993
(dp2994
g62
(dp2995
sg71
g2718
sg64
(lp2996
g57
(g78
g59
NtRp2997
(dp2998
g62
(dp2999
g82
g83
ssg71
g2993
sg64
(lp3000
g2327
asbag57
(g78
g59
NtRp3001
(dp3002
g62
(dp3003
g89
g90
ssg71
g2993
sg64
(lp3004
S':'
asbag57
(g78
g59
NtRp3005
(dp3006
g62
(dp3007
sg71
g2993
sg64
(lp3008
g57
(g58
g59
NtRp3009
(dp3010
g62
(dp3011
g70
I4
ssg71
g3005
sg64
(lp3012
g57
(g66
g59
NtRp3013
(dp3014
g62
(dp3015
g70
I3
ssg71
Nsg64
(lp3016
g57
(g73
g59
NtRp3017
(dp3018
g62
(dp3019
sg71
g3013
sg64
(lp3020
g57
(g78
g59
NtRp3021
(dp3022
g62
(dp3023
sg71
g3017
sg64
(lp3024
g57
(g58
g59
NtRp3025
(dp3026
g62
(dp3027
g70
I3
ssg71
g3021
sg64
(lp3028
S'2'
asbasbasbag57
(g73
g59
NtRp3029
(dp3030
g62
(dp3031
sg71
g3013
sg64
(lp3032
g57
(g78
g59
NtRp3033
(dp3034
g62
(dp3035
sg71
g3029
sg64
(lp3036
g57
(g58
g59
NtRp3037
(dp3038
g62
(dp3039
g70
I3
ssg71
g3033
sg64
(lp3040
S'4'
asbasbasbag57
(g73
g59
NtRp3041
(dp3042
g62
(dp3043
sg71
g3013
sg64
(lp3044
g57
(g78
g59
NtRp3045
(dp3046
g62
(dp3047
sg71
g3041
sg64
(lp3048
g57
(g58
g59
NtRp3049
(dp3050
g62
(dp3051
g70
I3
ssg71
g3045
sg64
(lp3052
S'1'
asbasbasbag57
(g73
g59
NtRp3053
(dp3054
g62
(dp3055
sg71
g3013
sg64
(lp3056
g57
(g78
g59
NtRp3057
(dp3058
g62
(dp3059
sg71
g3053
sg64
(lp3060
g57
(g58
g59
NtRp3061
(dp3062
g62
(dp3063
g70
I3
ssg71
g3057
sg64
(lp3064
g2392
asbasbasbag57
(g73
g59
NtRp3065
(dp3066
g62
(dp3067
sg71
g3013
sg64
(lp3068
g57
(g78
g59
NtRp3069
(dp3070
g62
(dp3071
sg71
g3065
sg64
(lp3072
g57
(g58
g59
NtRp3073
(dp3074
g62
(dp3075
g70
I3
ssg71
g3069
sg64
(lp3076
S'datetime.datetime(2013, 1, 10, 21, 26, 18)'
p3077
asbasbasbasbasbasbasbasbasbasbasbag57
(g73
g59
NtRp3078
(dp3079
g62
(dp3080
sg71
g67
sg64
(lp3081
g57
(g78
g59
NtRp3082
(dp3083
g62
(dp3084
g82
g83
ssg71
g3078
sg64
(lp3085
S'is_https'
p3086
asbag57
(g78
g59
NtRp3087
(dp3088
g62
(dp3089
g89
g90
ssg71
g3078
sg64
(lp3090
S':'
asbag57
(g78
g59
NtRp3091
(dp3092
g62
(dp3093
sg71
g3078
sg64
(lp3094
g57
(g58
g59
NtRp3095
(dp3096
g62
(dp3097
g70
I5
ssg71
g3091
sg64
(lp3098
g100
asbasbasbag57
(g73
g59
NtRp3099
(dp3100
g62
(dp3101
sg71
g67
sg64
(lp3102
g57
(g78
g59
NtRp3103
(dp3104
g62
(dp3105
g82
g83
ssg71
g3099
sg64
(lp3106
S'is_local'
p3107
asbag57
(g78
g59
NtRp3108
(dp3109
g62
(dp3110
g89
g90
ssg71
g3099
sg64
(lp3111
S':'
asbag57
(g78
g59
NtRp3112
(dp3113
g62
(dp3114
sg71
g3099
sg64
(lp3115
g57
(g58
g59
NtRp3116
(dp3117
g62
(dp3118
g70
I5
ssg71
g3112
sg64
(lp3119
g1729
asbasbasbag57
(g73
g59
NtRp3120
(dp3121
g62
(dp3122
sg71
g67
sg64
(lp3123
g57
(g78
g59
NtRp3124
(dp3125
g62
(dp3126
g82
g83
ssg71
g3120
sg64
(lp3127
S'is_restful'
p3128
asbag57
(g78
g59
NtRp3129
(dp3130
g62
(dp3131
g89
g90
ssg71
g3120
sg64
(lp3132
S':'
asbag57
(g78
g59
NtRp3133
(dp3134
g62
(dp3135
sg71
g3120
sg64
(lp3136
g57
(g58
g59
NtRp3137
(dp3138
g62
(dp3139
g70
I5
ssg71
g3133
sg64
(lp3140
g100
asbasbasbag57
(g73
g59
NtRp3141
(dp3142
g62
(dp3143
sg71
g67
sg64
(lp3144
g57
(g78
g59
NtRp3145
(dp3146
g62
(dp3147
g82
g83
ssg71
g3141
sg64
(lp3148
S'now'
p3149
asbag57
(g78
g59
NtRp3150
(dp3151
g62
(dp3152
g89
g90
ssg71
g3141
sg64
(lp3153
S':'
asbag57
(g78
g59
NtRp3154
(dp3155
g62
(dp3156
sg71
g3141
sg64
(lp3157
g57
(g58
g59
NtRp3158
(dp3159
g62
(dp3160
g70
I5
ssg71
g3154
sg64
(lp3161
S'datetime.datetime(2013, 4, 30, 15, 12, 31, 685668)'
p3162
asbasbasbag57
(g73
g59
NtRp3163
(dp3164
g62
(dp3165
sg71
g67
sg64
(lp3166
g57
(g78
g59
NtRp3167
(dp3168
g62
(dp3169
g82
g83
ssg71
g3163
sg64
(lp3170
S'post_vars'
p3171
asbag57
(g78
g59
NtRp3172
(dp3173
g62
(dp3174
g89
g90
ssg71
g3163
sg64
(lp3175
S':'
asbag57
(g78
g59
NtRp3176
(dp3177
g62
(dp3178
sg71
g3163
sg64
(lp3179
g57
(g58
g59
NtRp3180
(dp3181
g62
(dp3182
g70
I5
ssg71
g3176
sg64
(lp3183
g57
(g66
g59
NtRp3184
(dp3185
g62
(dp3186
g70
I4
ssg71
Nsg64
(lp3187
sbasbasbasbag57
(g73
g59
NtRp3188
(dp3189
g62
(dp3190
sg71
g67
sg64
(lp3191
g57
(g78
g59
NtRp3192
(dp3193
g62
(dp3194
g82
g83
ssg71
g3188
sg64
(lp3195
S'raw_args'
p3196
asbag57
(g78
g59
NtRp3197
(dp3198
g62
(dp3199
g89
g90
ssg71
g3188
sg64
(lp3200
S':'
asbag57
(g78
g59
NtRp3201
(dp3202
g62
(dp3203
sg71
g3188
sg64
(lp3204
g57
(g58
g59
NtRp3205
(dp3206
g62
(dp3207
g70
I5
ssg71
g3201
sg64
(lp3208
S''
asbasbasbag57
(g73
g59
NtRp3209
(dp3210
g62
(dp3211
sg71
g67
sg64
(lp3212
g57
(g78
g59
NtRp3213
(dp3214
g62
(dp3215
g82
g83
ssg71
g3209
sg64
(lp3216
S'raw_extension'
p3217
asbag57
(g78
g59
NtRp3218
(dp3219
g62
(dp3220
g89
g90
ssg71
g3209
sg64
(lp3221
S':'
asbag57
(g78
g59
NtRp3222
(dp3223
g62
(dp3224
sg71
g3209
sg64
(lp3225
g57
(g58
g59
NtRp3226
(dp3227
g62
(dp3228
g70
I5
ssg71
g3222
sg64
(lp3229
S'None'
p3230
asbasbasbag57
(g73
g59
NtRp3231
(dp3232
g62
(dp3233
sg71
g67
sg64
(lp3234
g57
(g78
g59
NtRp3235
(dp3236
g62
(dp3237
g82
g83
ssg71
g3231
sg64
(lp3238
S'url'
p3239
asbag57
(g78
g59
NtRp3240
(dp3241
g62
(dp3242
g89
g90
ssg71
g3231
sg64
(lp3243
S':'
asbag57
(g78
g59
NtRp3244
(dp3245
g62
(dp3246
sg71
g3231
sg64
(lp3247
g57
(g58
g59
NtRp3248
(dp3249
g62
(dp3250
g70
I5
ssg71
g3244
sg64
(lp3251
g2081
asbasbasbag57
(g73
g59
NtRp3252
(dp3253
g62
(dp3254
sg71
g67
sg64
(lp3255
g57
(g78
g59
NtRp3256
(dp3257
g62
(dp3258
g82
g83
ssg71
g3252
sg64
(lp3259
S'utcnow'
p3260
asbag57
(g78
g59
NtRp3261
(dp3262
g62
(dp3263
g89
g90
ssg71
g3252
sg64
(lp3264
S':'
asbag57
(g78
g59
NtRp3265
(dp3266
g62
(dp3267
sg71
g3252
sg64
(lp3268
g57
(g58
g59
NtRp3269
(dp3270
g62
(dp3271
g70
I5
ssg71
g3265
sg64
(lp3272
S'datetime.datetime(2013, 4, 30, 9, 42, 31, 685738)'
p3273
asbasbasbag57
(g73
g59
NtRp3274
(dp3275
g62
(dp3276
sg71
g67
sg64
(lp3277
g57
(g78
g59
NtRp3278
(dp3279
g62
(dp3280
g82
g83
ssg71
g3274
sg64
(lp3281
S'uuid'
p3282
asbag57
(g78
g59
NtRp3283
(dp3284
g62
(dp3285
g89
g90
ssg71
g3274
sg64
(lp3286
S':'
asbag57
(g78
g59
NtRp3287
(dp3288
g62
(dp3289
sg71
g3274
sg64
(lp3290
g57
(g58
g59
NtRp3291
(dp3292
g62
(dp3293
g70
I5
ssg71
g3287
sg64
(lp3294
S'backimg/127.0.0.1.2013-04-30.15-12-31.e7e8d9c8-cffc-4540-92d9-bd0f8fa5cce6'
p3295
asbasbasbag57
(g73
g59
NtRp3296
(dp3297
g62
(dp3298
sg71
g67
sg64
(lp3299
g57
(g78
g59
NtRp3300
(dp3301
g62
(dp3302
g82
g83
ssg71
g3296
sg64
(lp3303
S'vars'
p3304
asbag57
(g78
g59
NtRp3305
(dp3306
g62
(dp3307
g89
g90
ssg71
g3296
sg64
(lp3308
S':'
asbag57
(g78
g59
NtRp3309
(dp3310
g62
(dp3311
sg71
g3296
sg64
(lp3312
g57
(g58
g59
NtRp3313
(dp3314
g62
(dp3315
g70
I5
ssg71
g3309
sg64
(lp3316
g57
(g66
g59
NtRp3317
(dp3318
g62
(dp3319
g70
I4
ssg71
Nsg64
(lp3320
sbasbasbasbag57
(g73
g59
NtRp3321
(dp3322
g62
(dp3323
sg71
g67
sg64
(lp3324
g57
(g78
g59
NtRp3325
(dp3326
g62
(dp3327
g82
g83
ssg71
g3321
sg64
(lp3328
S'wsgi'
p3329
asbag57
(g78
g59
NtRp3330
(dp3331
g62
(dp3332
g89
g90
ssg71
g3321
sg64
(lp3333
S':'
asbag57
(g78
g59
NtRp3334
(dp3335
g62
(dp3336
sg71
g3321
sg64
(lp3337
g57
(g58
g59
NtRp3338
(dp3339
g62
(dp3340
g70
I5
ssg71
g3334
sg64
(lp3341
g57
(g66
g59
NtRp3342
(dp3343
g62
(dp3344
g70
I4
ssg71
Nsg64
(lp3345
g57
(g73
g59
NtRp3346
(dp3347
g62
(dp3348
sg71
g3342
sg64
(lp3349
g57
(g78
g59
NtRp3350
(dp3351
g62
(dp3352
g82
g83
ssg71
g3346
sg64
(lp3353
S'environ'
p3354
asbag57
(g78
g59
NtRp3355
(dp3356
g62
(dp3357
g89
g90
ssg71
g3346
sg64
(lp3358
S':'
asbag57
(g78
g59
NtRp3359
(dp3360
g62
(dp3361
sg71
g3346
sg64
(lp3362
g57
(g58
g59
NtRp3363
(dp3364
g62
(dp3365
g70
I4
ssg71
g3359
sg64
(lp3366
g57
(g66
g59
NtRp3367
(dp3368
g62
(dp3369
g70
I3
ssg71
Nsg64
(lp3370
g57
(g73
g59
NtRp3371
(dp3372
g62
(dp3373
sg71
g3367
sg64
(lp3374
g57
(g78
g59
NtRp3375
(dp3376
g62
(dp3377
g82
g83
ssg71
g3371
sg64
(lp3378
S'HTTP_ACCEPT'
p3379
asbag57
(g78
g59
NtRp3380
(dp3381
g62
(dp3382
g89
g90
ssg71
g3371
sg64
(lp3383
S':'
asbag57
(g78
g59
NtRp3384
(dp3385
g62
(dp3386
sg71
g3371
sg64
(lp3387
g57
(g58
g59
NtRp3388
(dp3389
g62
(dp3390
g70
I3
ssg71
g3384
sg64
(lp3391
g1773
asbasbasbag57
(g73
g59
NtRp3392
(dp3393
g62
(dp3394
sg71
g3367
sg64
(lp3395
g57
(g78
g59
NtRp3396
(dp3397
g62
(dp3398
g82
g83
ssg71
g3392
sg64
(lp3399
S'HTTP_ACCEPT_ENCODING'
p3400
asbag57
(g78
g59
NtRp3401
(dp3402
g62
(dp3403
g89
g90
ssg71
g3392
sg64
(lp3404
S':'
asbag57
(g78
g59
NtRp3405
(dp3406
g62
(dp3407
sg71
g3392
sg64
(lp3408
g57
(g58
g59
NtRp3409
(dp3410
g62
(dp3411
g70
I3
ssg71
g3405
sg64
(lp3412
g1795
asbasbasbag57
(g73
g59
NtRp3413
(dp3414
g62
(dp3415
sg71
g3367
sg64
(lp3416
g57
(g78
g59
NtRp3417
(dp3418
g62
(dp3419
g82
g83
ssg71
g3413
sg64
(lp3420
S'HTTP_ACCEPT_LANGUAGE'
p3421
asbag57
(g78
g59
NtRp3422
(dp3423
g62
(dp3424
g89
g90
ssg71
g3413
sg64
(lp3425
S':'
asbag57
(g78
g59
NtRp3426
(dp3427
g62
(dp3428
sg71
g3413
sg64
(lp3429
g57
(g58
g59
NtRp3430
(dp3431
g62
(dp3432
g70
I3
ssg71
g3426
sg64
(lp3433
g1817
asbasbasbag57
(g73
g59
NtRp3434
(dp3435
g62
(dp3436
sg71
g3367
sg64
(lp3437
g57
(g78
g59
NtRp3438
(dp3439
g62
(dp3440
g82
g83
ssg71
g3434
sg64
(lp3441
S'HTTP_CONNECTION'
p3442
asbag57
(g78
g59
NtRp3443
(dp3444
g62
(dp3445
g89
g90
ssg71
g3434
sg64
(lp3446
S':'
asbag57
(g78
g59
NtRp3447
(dp3448
g62
(dp3449
sg71
g3434
sg64
(lp3450
g57
(g58
g59
NtRp3451
(dp3452
g62
(dp3453
g70
I3
ssg71
g3447
sg64
(lp3454
g1839
asbasbasbag57
(g73
g59
NtRp3455
(dp3456
g62
(dp3457
sg71
g3367
sg64
(lp3458
g57
(g78
g59
NtRp3459
(dp3460
g62
(dp3461
g82
g83
ssg71
g3455
sg64
(lp3462
S'HTTP_COOKIE'
p3463
asbag57
(g78
g59
NtRp3464
(dp3465
g62
(dp3466
g89
g90
ssg71
g3455
sg64
(lp3467
S':'
asbag57
(g78
g59
NtRp3468
(dp3469
g62
(dp3470
sg71
g3455
sg64
(lp3471
g57
(g58
g59
NtRp3472
(dp3473
g62
(dp3474
g70
I3
ssg71
g3468
sg64
(lp3475
g1861
asbasbasbag57
(g73
g59
NtRp3476
(dp3477
g62
(dp3478
sg71
g3367
sg64
(lp3479
g57
(g78
g59
NtRp3480
(dp3481
g62
(dp3482
g82
g83
ssg71
g3476
sg64
(lp3483
S'HTTP_HOST'
p3484
asbag57
(g78
g59
NtRp3485
(dp3486
g62
(dp3487
g89
g90
ssg71
g3476
sg64
(lp3488
S':'
asbag57
(g78
g59
NtRp3489
(dp3490
g62
(dp3491
sg71
g3476
sg64
(lp3492
g57
(g58
g59
NtRp3493
(dp3494
g62
(dp3495
g70
I3
ssg71
g3489
sg64
(lp3496
g1883
asbasbasbag57
(g73
g59
NtRp3497
(dp3498
g62
(dp3499
sg71
g3367
sg64
(lp3500
g57
(g78
g59
NtRp3501
(dp3502
g62
(dp3503
g82
g83
ssg71
g3497
sg64
(lp3504
S'HTTP_REFERER'
p3505
asbag57
(g78
g59
NtRp3506
(dp3507
g62
(dp3508
g89
g90
ssg71
g3497
sg64
(lp3509
S':'
asbag57
(g78
g59
NtRp3510
(dp3511
g62
(dp3512
sg71
g3497
sg64
(lp3513
g57
(g58
g59
NtRp3514
(dp3515
g62
(dp3516
g70
I3
ssg71
g3510
sg64
(lp3517
g1905
asbasbasbag57
(g73
g59
NtRp3518
(dp3519
g62
(dp3520
sg71
g3367
sg64
(lp3521
g57
(g78
g59
NtRp3522
(dp3523
g62
(dp3524
g82
g83
ssg71
g3518
sg64
(lp3525
S'HTTP_USER_AGENT'
p3526
asbag57
(g78
g59
NtRp3527
(dp3528
g62
(dp3529
g89
g90
ssg71
g3518
sg64
(lp3530
S':'
asbag57
(g78
g59
NtRp3531
(dp3532
g62
(dp3533
sg71
g3518
sg64
(lp3534
g57
(g58
g59
NtRp3535
(dp3536
g62
(dp3537
g70
I3
ssg71
g3531
sg64
(lp3538
g1927
asbasbasbag57
(g73
g59
NtRp3539
(dp3540
g62
(dp3541
sg71
g3367
sg64
(lp3542
g57
(g78
g59
NtRp3543
(dp3544
g62
(dp3545
g82
g83
ssg71
g3539
sg64
(lp3546
S'PATH_INFO'
p3547
asbag57
(g78
g59
NtRp3548
(dp3549
g62
(dp3550
g89
g90
ssg71
g3539
sg64
(lp3551
S':'
asbag57
(g78
g59
NtRp3552
(dp3553
g62
(dp3554
sg71
g3539
sg64
(lp3555
g57
(g58
g59
NtRp3556
(dp3557
g62
(dp3558
g70
I3
ssg71
g3552
sg64
(lp3559
g2081
asbasbasbag57
(g73
g59
NtRp3560
(dp3561
g62
(dp3562
sg71
g3367
sg64
(lp3563
g57
(g78
g59
NtRp3564
(dp3565
g62
(dp3566
g82
g83
ssg71
g3560
sg64
(lp3567
S'QUERY_STRING'
p3568
asbag57
(g78
g59
NtRp3569
(dp3570
g62
(dp3571
g89
g90
ssg71
g3560
sg64
(lp3572
S':'
asbag57
(g78
g59
NtRp3573
(dp3574
g62
(dp3575
sg71
g3560
sg64
(lp3576
g57
(g58
g59
NtRp3577
(dp3578
g62
(dp3579
g70
I3
ssg71
g3573
sg64
(lp3580
S''
asbasbasbag57
(g73
g59
NtRp3581
(dp3582
g62
(dp3583
sg71
g3367
sg64
(lp3584
g57
(g78
g59
NtRp3585
(dp3586
g62
(dp3587
g82
g83
ssg71
g3581
sg64
(lp3588
S'REMOTE_ADDR'
p3589
asbag57
(g78
g59
NtRp3590
(dp3591
g62
(dp3592
g89
g90
ssg71
g3581
sg64
(lp3593
S':'
asbag57
(g78
g59
NtRp3594
(dp3595
g62
(dp3596
sg71
g3581
sg64
(lp3597
g57
(g58
g59
NtRp3598
(dp3599
g62
(dp3600
g70
I3
ssg71
g3594
sg64
(lp3601
g212
asbasbasbag57
(g73
g59
NtRp3602
(dp3603
g62
(dp3604
sg71
g3367
sg64
(lp3605
g57
(g78
g59
NtRp3606
(dp3607
g62
(dp3608
g82
g83
ssg71
g3602
sg64
(lp3609
S'REMOTE_PORT'
p3610
asbag57
(g78
g59
NtRp3611
(dp3612
g62
(dp3613
g89
g90
ssg71
g3602
sg64
(lp3614
S':'
asbag57
(g78
g59
NtRp3615
(dp3616
g62
(dp3617
sg71
g3602
sg64
(lp3618
g57
(g58
g59
NtRp3619
(dp3620
g62
(dp3621
g70
I3
ssg71
g3615
sg64
(lp3622
g2145
asbasbasbag57
(g73
g59
NtRp3623
(dp3624
g62
(dp3625
sg71
g3367
sg64
(lp3626
g57
(g78
g59
NtRp3627
(dp3628
g62
(dp3629
g82
g83
ssg71
g3623
sg64
(lp3630
S'REQUEST_METHOD'
p3631
asbag57
(g78
g59
NtRp3632
(dp3633
g62
(dp3634
g89
g90
ssg71
g3623
sg64
(lp3635
S':'
asbag57
(g78
g59
NtRp3636
(dp3637
g62
(dp3638
sg71
g3623
sg64
(lp3639
g57
(g58
g59
NtRp3640
(dp3641
g62
(dp3642
g70
I3
ssg71
g3636
sg64
(lp3643
g2167
asbasbasbag57
(g73
g59
NtRp3644
(dp3645
g62
(dp3646
sg71
g3367
sg64
(lp3647
g57
(g78
g59
NtRp3648
(dp3649
g62
(dp3650
g82
g83
ssg71
g3644
sg64
(lp3651
S'REQUEST_URI'
p3652
asbag57
(g78
g59
NtRp3653
(dp3654
g62
(dp3655
g89
g90
ssg71
g3644
sg64
(lp3656
S':'
asbag57
(g78
g59
NtRp3657
(dp3658
g62
(dp3659
sg71
g3644
sg64
(lp3660
g57
(g58
g59
NtRp3661
(dp3662
g62
(dp3663
g70
I3
ssg71
g3657
sg64
(lp3664
g2081
asbasbasbag57
(g73
g59
NtRp3665
(dp3666
g62
(dp3667
sg71
g3367
sg64
(lp3668
g57
(g78
g59
NtRp3669
(dp3670
g62
(dp3671
g82
g83
ssg71
g3665
sg64
(lp3672
S'SCRIPT_NAME'
p3673
asbag57
(g78
g59
NtRp3674
(dp3675
g62
(dp3676
g89
g90
ssg71
g3665
sg64
(lp3677
S':'
asbag57
(g78
g59
NtRp3678
(dp3679
g62
(dp3680
sg71
g3665
sg64
(lp3681
g57
(g58
g59
NtRp3682
(dp3683
g62
(dp3684
g70
I3
ssg71
g3678
sg64
(lp3685
S''
asbasbasbag57
(g73
g59
NtRp3686
(dp3687
g62
(dp3688
sg71
g3367
sg64
(lp3689
g57
(g78
g59
NtRp3690
(dp3691
g62
(dp3692
g82
g83
ssg71
g3686
sg64
(lp3693
S'SERVER_NAME'
p3694
asbag57
(g78
g59
NtRp3695
(dp3696
g62
(dp3697
g89
g90
ssg71
g3686
sg64
(lp3698
S':'
asbag57
(g78
g59
NtRp3699
(dp3700
g62
(dp3701
sg71
g3686
sg64
(lp3702
g57
(g58
g59
NtRp3703
(dp3704
g62
(dp3705
g70
I3
ssg71
g3699
sg64
(lp3706
g2231
asbasbasbag57
(g73
g59
NtRp3707
(dp3708
g62
(dp3709
sg71
g3367
sg64
(lp3710
g57
(g78
g59
NtRp3711
(dp3712
g62
(dp3713
g82
g83
ssg71
g3707
sg64
(lp3714
S'SERVER_PORT'
p3715
asbag57
(g78
g59
NtRp3716
(dp3717
g62
(dp3718
g89
g90
ssg71
g3707
sg64
(lp3719
S':'
asbag57
(g78
g59
NtRp3720
(dp3721
g62
(dp3722
sg71
g3707
sg64
(lp3723
g57
(g58
g59
NtRp3724
(dp3725
g62
(dp3726
g70
I3
ssg71
g3720
sg64
(lp3727
g2253
asbasbasbag57
(g73
g59
NtRp3728
(dp3729
g62
(dp3730
sg71
g3367
sg64
(lp3731
g57
(g78
g59
NtRp3732
(dp3733
g62
(dp3734
g82
g83
ssg71
g3728
sg64
(lp3735
S'SERVER_PROTOCOL'
p3736
asbag57
(g78
g59
NtRp3737
(dp3738
g62
(dp3739
g89
g90
ssg71
g3728
sg64
(lp3740
S':'
asbag57
(g78
g59
NtRp3741
(dp3742
g62
(dp3743
sg71
g3728
sg64
(lp3744
g57
(g58
g59
NtRp3745
(dp3746
g62
(dp3747
g70
I3
ssg71
g3741
sg64
(lp3748
g2275
asbasbasbag57
(g73
g59
NtRp3749
(dp3750
g62
(dp3751
sg71
g3367
sg64
(lp3752
g57
(g78
g59
NtRp3753
(dp3754
g62
(dp3755
g82
g83
ssg71
g3749
sg64
(lp3756
S'SERVER_SOFTWARE'
p3757
asbag57
(g78
g59
NtRp3758
(dp3759
g62
(dp3760
g89
g90
ssg71
g3749
sg64
(lp3761
S':'
asbag57
(g78
g59
NtRp3762
(dp3763
g62
(dp3764
sg71
g3749
sg64
(lp3765
g57
(g58
g59
NtRp3766
(dp3767
g62
(dp3768
g70
I3
ssg71
g3762
sg64
(lp3769
g2297
asbasbasbag57
(g73
g59
NtRp3770
(dp3771
g62
(dp3772
sg71
g3367
sg64
(lp3773
g57
(g78
g59
NtRp3774
(dp3775
g62
(dp3776
g82
g83
ssg71
g3770
sg64
(lp3777
S'wsgi.errors'
p3778
asbag57
(g78
g59
NtRp3779
(dp3780
g62
(dp3781
g89
g90
ssg71
g3770
sg64
(lp3782
S':'
asbag57
(g78
g59
NtRp3783
(dp3784
g62
(dp3785
sg71
g3770
sg64
(lp3786
g57
(g58
g59
NtRp3787
(dp3788
g62
(dp3789
g70
I3
ssg71
g3783
sg64
(lp3790
S"<open file '<stderr>', mode 'w' at 0xb75210d0>"
p3791
asbasbasbag57
(g73
g59
NtRp3792
(dp3793
g62
(dp3794
sg71
g3367
sg64
(lp3795
g57
(g78
g59
NtRp3796
(dp3797
g62
(dp3798
g82
g83
ssg71
g3792
sg64
(lp3799
S'wsgi.file_wrapper'
p3800
asbag57
(g78
g59
NtRp3801
(dp3802
g62
(dp3803
g89
g90
ssg71
g3792
sg64
(lp3804
S':'
asbag57
(g78
g59
NtRp3805
(dp3806
g62
(dp3807
sg71
g3792
sg64
(lp3808
g57
(g58
g59
NtRp3809
(dp3810
g62
(dp3811
g70
I3
ssg71
g3805
sg64
(lp3812
S'<class wsgiref.util.FileWrapper at 0x9220ddc>'
p3813
asbasbasbag57
(g73
g59
NtRp3814
(dp3815
g62
(dp3816
sg71
g3367
sg64
(lp3817
g57
(g78
g59
NtRp3818
(dp3819
g62
(dp3820
g82
g83
ssg71
g3814
sg64
(lp3821
S'wsgi.input'
p3822
asbag57
(g78
g59
NtRp3823
(dp3824
g62
(dp3825
g89
g90
ssg71
g3814
sg64
(lp3826
S':'
asbag57
(g78
g59
NtRp3827
(dp3828
g62
(dp3829
sg71
g3814
sg64
(lp3830
g57
(g58
g59
NtRp3831
(dp3832
g62
(dp3833
g70
I3
ssg71
g3827
sg64
(lp3834
S'<cStringIO.StringO object at 0xae8aa760>'
p3835
asbasbasbag57
(g73
g59
NtRp3836
(dp3837
g62
(dp3838
sg71
g3367
sg64
(lp3839
g57
(g78
g59
NtRp3840
(dp3841
g62
(dp3842
g82
g83
ssg71
g3836
sg64
(lp3843
S'wsgi.multiprocess'
p3844
asbag57
(g78
g59
NtRp3845
(dp3846
g62
(dp3847
g89
g90
ssg71
g3836
sg64
(lp3848
S':'
asbag57
(g78
g59
NtRp3849
(dp3850
g62
(dp3851
sg71
g3836
sg64
(lp3852
g57
(g58
g59
NtRp3853
(dp3854
g62
(dp3855
g70
I3
ssg71
g3849
sg64
(lp3856
g100
asbasbasbag57
(g73
g59
NtRp3857
(dp3858
g62
(dp3859
sg71
g3367
sg64
(lp3860
g57
(g78
g59
NtRp3861
(dp3862
g62
(dp3863
g82
g83
ssg71
g3857
sg64
(lp3864
S'wsgi.multithread'
p3865
asbag57
(g78
g59
NtRp3866
(dp3867
g62
(dp3868
g89
g90
ssg71
g3857
sg64
(lp3869
S':'
asbag57
(g78
g59
NtRp3870
(dp3871
g62
(dp3872
sg71
g3857
sg64
(lp3873
g57
(g58
g59
NtRp3874
(dp3875
g62
(dp3876
g70
I3
ssg71
g3870
sg64
(lp3877
g1729
asbasbasbag57
(g73
g59
NtRp3878
(dp3879
g62
(dp3880
sg71
g3367
sg64
(lp3881
g57
(g78
g59
NtRp3882
(dp3883
g62
(dp3884
g82
g83
ssg71
g3878
sg64
(lp3885
S'wsgi.run_once'
p3886
asbag57
(g78
g59
NtRp3887
(dp3888
g62
(dp3889
g89
g90
ssg71
g3878
sg64
(lp3890
S':'
asbag57
(g78
g59
NtRp3891
(dp3892
g62
(dp3893
sg71
g3878
sg64
(lp3894
g57
(g58
g59
NtRp3895
(dp3896
g62
(dp3897
g70
I3
ssg71
g3891
sg64
(lp3898
g100
asbasbasbag57
(g73
g59
NtRp3899
(dp3900
g62
(dp3901
sg71
g3367
sg64
(lp3902
g57
(g78
g59
NtRp3903
(dp3904
g62
(dp3905
g82
g83
ssg71
g3899
sg64
(lp3906
S'wsgi.url_scheme'
p3907
asbag57
(g78
g59
NtRp3908
(dp3909
g62
(dp3910
g89
g90
ssg71
g3899
sg64
(lp3911
S':'
asbag57
(g78
g59
NtRp3912
(dp3913
g62
(dp3914
sg71
g3899
sg64
(lp3915
g57
(g58
g59
NtRp3916
(dp3917
g62
(dp3918
g70
I3
ssg71
g3912
sg64
(lp3919
g2556
asbasbasbag57
(g73
g59
NtRp3920
(dp3921
g62
(dp3922
sg71
g3367
sg64
(lp3923
g57
(g78
g59
NtRp3924
(dp3925
g62
(dp3926
g82
g83
ssg71
g3920
sg64
(lp3927
S'wsgi.version'
p3928
asbag57
(g78
g59
NtRp3929
(dp3930
g62
(dp3931
g89
g90
ssg71
g3920
sg64
(lp3932
S':'
asbag57
(g78
g59
NtRp3933
(dp3934
g62
(dp3935
sg71
g3920
sg64
(lp3936
g57
(g58
g59
NtRp3937
(dp3938
g62
(dp3939
g70
I3
ssg71
g3933
sg64
(lp3940
S'1'
asbasbasbasbasbasbasbasbasbasbasbasbasbsS'frames'
p3941
(lp3942
(dp3943
S'file'
p3944
S'/home/nishant/Acaedmics/Sem-2/ITWS-2/web2py/gluon/restricted.py'
p3945
sS'dump'
p3946
(dp3947
S'environment'
p3948
S"{'A': <class 'gluon.html.A'>, 'Auth': <class 'gluon.tools.Auth'>, 'B': <class 'gluon.html.B'>, 'BEAUTIFY': <class 'gluon.html.BEAUTIFY'>, 'BODY': <class 'gluon.html.BODY'>, 'BR': <class 'gluon.html.BR'>, 'BUTTON': <class 'gluon.html.BUTTON'>, 'CAT': <class 'gluon.html.CAT'>, 'CENTER': <class 'gluon.html.CENTER'>, 'CLEANUP': <class 'gluon.validators.CLEANUP'>, ...}"
p3949
sS'ccode'
p3950
S'<code object <module> at 0x93fb608, file "/home/...cations/backimg/controllers/default.py", line 12>'
p3951
ssS'lnum'
p3952
I212
sS'lines'
p3953
(dp3954
I207
S'    try:'
p3955
sI208
S'        if isinstance(code, types.CodeType):'
p3956
sI209
S'            ccode = code'
p3957
sI210
S'        else:'
p3958
sI211
S'            ccode = compile2(code, layer)'
p3959
sI212
S'        exec ccode in environment'
p3960
sI213
S'    except HTTP:'
p3961
sI214
S'        raise'
p3962
sI215
S'    except RestrictedError:'
p3963
sI216
S'        # do not encapsulate (obfuscate) the original RestrictedError'
p3964
ssS'call'
p3965
S"(code='# -*- coding: utf-8 -*-\\n# this file is released ...ponse._vars=response._caller(single_company_msg)\\n', environment={'A': <class 'gluon.html.A'>, 'Auth': <class 'gluon.tools.Auth'>, 'B': <class 'gluon.html.B'>, 'BEAUTIFY': <class 'gluon.html.BEAUTIFY'>, 'BODY': <class 'gluon.html.BODY'>, 'BR': <class 'gluon.html.BR'>, 'BUTTON': <class 'gluon.html.BUTTON'>, 'CAT': <class 'gluon.html.CAT'>, 'CENTER': <class 'gluon.html.CENTER'>, 'CLEANUP': <class 'gluon.validators.CLEANUP'>, ...}, layer='/home/nishant/Acaedmics/Sem-2/ITWS-2/web2py/applications/backimg/controllers/default.py')"
p3966
sS'func'
p3967
S'restricted'
p3968
sa(dp3969
g3944
S'/home/nishant/Acaedmics/Sem-2/ITWS-2/web2py/applications/backimg/controllers/default.py'
p3970
sg3946
(dp3971
sg3952
I518
sg3953
(dp3972
I512
S'    #pdf.cell(w=60,h=10,txt="",border=2,align=\'L\',fill=\'0\')'
p3973
sI513
S"    #pdf.cell(w=60,h=10,txt=r[0].cstate,border=2,ln=1,align='L',fill='0')"
p3974
sI514
S''
sI515
S"    response.headers['Content-Type']='application/pdf'"
p3975
sI516
S'    return pdf.output(dest="S")'
p3976
sI507
S'    #pdf.cell(w=40,h=10,txt="Address  :",border=2,align=\'L\',fill=\'0\')'
p3977
sI508
S'    #pdf.cell(w=60,h=10,txt="",border=2,align=\'L\',fill=\'0\')'
p3978
sI509
S"    pdf.cell(w=60,h=10,txt=r[0].address+', ',border=2,ln=1,align='L',fill='0')"
p3979
sI510
S'    #pdf.cell(w=60,h=10,txt="",border=2,align=\'L\',fill=\'0\')'
p3980
sI511
S"    pdf.cell(w=60,h=10,txt=r[0].city+', '+r[0].cstate,border=2,ln=1,align='L',fill='0')"
p3981
ssg3965
S'()'
p3982
sg3967
S'<module>'
p3983
sa(dp3984
g3944
S'/home/nishant/Acaedmics/Sem-2/ITWS-2/web2py/gluon/globals.py'
p3985
sg3946
(dp3986
S'self'
p3987
S'undefined'
p3988
sS'f'
S'<function single_company_msg>'
p3989
ssg3952
I193
sg3953
(dp3990
I192
S'        self._vars = None'
p3991
sI193
S'        self._caller = lambda f: f()'
p3992
sI194
S'        self._view_environment = None'
p3993
sI195
S'        self._custom_commit = None'
p3994
sI196
S'        self._custom_rollback = None'
p3995
sI197
S''
sI188
S'        self.menu = []             # used by the default view layout'
p3996
sI189
S'        self.files = []            # used by web2py_ajax.html'
p3997
sI190
S'        self.generic_patterns = []  # patterns to allow generic views'
p3998
sI191
S"        self.delimiters = ('{{', '}}')"
p3999
ssg3965
S'(f=<function single_company_msg>)'
p4000
sg3967
S'<lambda>'
p4001
sa(dp4002
g3944
S'/home/nishant/Acaedmics/Sem-2/ITWS-2/web2py/applications/backimg/controllers/default.py'
p4003
sg3946
(dp4004
S'db.msg.sub'
p4005
S'<gluon.dal.Field object>'
p4006
sS'db.msg.msg'
p4007
S'<gluon.dal.Field object>'
p4008
sS'msgid'
p4009
g3988
sS').select'
p4010
g3988
sS'global auth'
p4011
S'<gluon.tools.Auth object>'
p4012
sS'db.msg.senderid'
p4013
S'<gluon.dal.Field object>'
p4014
sS'db.msg'
p4015
S'<Table msg (id,msg_date,sender,senderid,name,sub,msg)>'
p4016
sS'r'
g3988
sS'db.suth_user'
p4017
g3988
sS'global db'
p4018
S'<DAL uri="sqlite://storage.sqlite">'
p4019
sS'db.msg.msg_date'
p4020
S'<gluon.dal.Field object>'
p4021
sS'auth.user_id'
p4022
S'1'
ssg3952
I235
sg3953
(dp4023
I230
S'    #else:'
p4024
sI231
S"     #   response.flash='Error(s) in filling form'"
p4025
sI232
S'    return dict(form=form)'
p4026
sI233
S''
sI234
S'def single_company_msg():'
p4027
sI235
S'    r=db((msgid==db.msg.senderid) & (db.suth_user.id == auth.user_id)).select(db.msg.msg_date,db.msg.sub,db.msg.msg)'
p4028
sI236
S'    #for msg in dict_companies[i]:'
p4029
sI237
S"        #print 'hi!'"
p4030
sI238
S'    return dict(r=r)'
p4031
sI239
S''
ssg3965
S'()'
p4032
sg3967
S'single_company_msg'
p4033
sasS'pyver'
p4034
S'Python 2.7.3: /usr/bin/python'
p4035
sS'session'
p4036
g57
(g58
g59
NtRp4037
(dp4038
g62
(dp4039
sg64
(lp4040
g57
(g66
g59
NtRp4041
(dp4042
g62
(dp4043
g70
I5
ssg71
Nsg64
(lp4044
g57
(g73
g59
NtRp4045
(dp4046
g62
(dp4047
sg71
g4041
sg64
(lp4048
g57
(g78
g59
NtRp4049
(dp4050
g62
(dp4051
g82
g83
ssg71
g4045
sg64
(lp4052
S'auth'
p4053
asbag57
(g78
g59
NtRp4054
(dp4055
g62
(dp4056
g89
g90
ssg71
g4045
sg64
(lp4057
S':'
asbag57
(g78
g59
NtRp4058
(dp4059
g62
(dp4060
sg71
g4045
sg64
(lp4061
g57
(g58
g59
NtRp4062
(dp4063
g62
(dp4064
g70
I5
ssg71
g4058
sg64
(lp4065
g57
(g66
g59
NtRp4066
(dp4067
g62
(dp4068
g70
I4
ssg71
Nsg64
(lp4069
g57
(g73
g59
NtRp4070
(dp4071
g62
(dp4072
sg71
g4066
sg64
(lp4073
g57
(g78
g59
NtRp4074
(dp4075
g62
(dp4076
g82
g83
ssg71
g4070
sg64
(lp4077
S'expiration'
p4078
asbag57
(g78
g59
NtRp4079
(dp4080
g62
(dp4081
g89
g90
ssg71
g4070
sg64
(lp4082
S':'
asbag57
(g78
g59
NtRp4083
(dp4084
g62
(dp4085
sg71
g4070
sg64
(lp4086
g57
(g58
g59
NtRp4087
(dp4088
g62
(dp4089
g70
I4
ssg71
g4083
sg64
(lp4090
S'2592000'
p4091
asbasbasbag57
(g73
g59
NtRp4092
(dp4093
g62
(dp4094
sg71
g4066
sg64
(lp4095
g57
(g78
g59
NtRp4096
(dp4097
g62
(dp4098
g82
g83
ssg71
g4092
sg64
(lp4099
S'hmac_key'
p4100
asbag57
(g78
g59
NtRp4101
(dp4102
g62
(dp4103
g89
g90
ssg71
g4092
sg64
(lp4104
S':'
asbag57
(g78
g59
NtRp4105
(dp4106
g62
(dp4107
sg71
g4092
sg64
(lp4108
g57
(g58
g59
NtRp4109
(dp4110
g62
(dp4111
g70
I4
ssg71
g4105
sg64
(lp4112
S'bf7f7667-fb13-42c9-87f7-cb9bdcf08bad'
p4113
asbasbasbag57
(g73
g59
NtRp4114
(dp4115
g62
(dp4116
sg71
g4066
sg64
(lp4117
g57
(g78
g59
NtRp4118
(dp4119
g62
(dp4120
g82
g83
ssg71
g4114
sg64
(lp4121
S'last_visit'
p4122
asbag57
(g78
g59
NtRp4123
(dp4124
g62
(dp4125
g89
g90
ssg71
g4114
sg64
(lp4126
S':'
asbag57
(g78
g59
NtRp4127
(dp4128
g62
(dp4129
sg71
g4114
sg64
(lp4130
g57
(g58
g59
NtRp4131
(dp4132
g62
(dp4133
g70
I4
ssg71
g4127
sg64
(lp4134
S'datetime.datetime(2013, 4, 30, 14, 10, 18, 35687)'
p4135
asbasbasbag57
(g73
g59
NtRp4136
(dp4137
g62
(dp4138
sg71
g4066
sg64
(lp4139
g57
(g78
g59
NtRp4140
(dp4141
g62
(dp4142
g82
g83
ssg71
g4136
sg64
(lp4143
S'remember'
p4144
asbag57
(g78
g59
NtRp4145
(dp4146
g62
(dp4147
g89
g90
ssg71
g4136
sg64
(lp4148
S':'
asbag57
(g78
g59
NtRp4149
(dp4150
g62
(dp4151
sg71
g4136
sg64
(lp4152
g57
(g58
g59
NtRp4153
(dp4154
g62
(dp4155
g70
I4
ssg71
g4149
sg64
(lp4156
g1729
asbasbasbag57
(g73
g59
NtRp4157
(dp4158
g62
(dp4159
sg71
g4066
sg64
(lp4160
g57
(g78
g59
NtRp4161
(dp4162
g62
(dp4163
g82
g83
ssg71
g4157
sg64
(lp4164
S'user'
p4165
asbag57
(g78
g59
NtRp4166
(dp4167
g62
(dp4168
g89
g90
ssg71
g4157
sg64
(lp4169
S':'
asbag57
(g78
g59
NtRp4170
(dp4171
g62
(dp4172
sg71
g4157
sg64
(lp4173
g57
(g58
g59
NtRp4174
(dp4175
g62
(dp4176
g70
I4
ssg71
g4170
sg64
(lp4177
g57
(g66
g59
NtRp4178
(dp4179
g62
(dp4180
g70
I3
ssg71
Nsg64
(lp4181
g57
(g73
g59
NtRp4182
(dp4183
g62
(dp4184
sg71
g4178
sg64
(lp4185
g57
(g78
g59
NtRp4186
(dp4187
g62
(dp4188
g82
g83
ssg71
g4182
sg64
(lp4189
S'email'
p4190
asbag57
(g78
g59
NtRp4191
(dp4192
g62
(dp4193
g89
g90
ssg71
g4182
sg64
(lp4194
S':'
asbag57
(g78
g59
NtRp4195
(dp4196
g62
(dp4197
sg71
g4182
sg64
(lp4198
g57
(g58
g59
NtRp4199
(dp4200
g62
(dp4201
g70
I3
ssg71
g4195
sg64
(lp4202
S'nishant.agrawal@students.iiit.ac.in'
p4203
asbasbasbag57
(g73
g59
NtRp4204
(dp4205
g62
(dp4206
sg71
g4178
sg64
(lp4207
g57
(g78
g59
NtRp4208
(dp4209
g62
(dp4210
g82
g83
ssg71
g4204
sg64
(lp4211
S'first_name'
p4212
asbag57
(g78
g59
NtRp4213
(dp4214
g62
(dp4215
g89
g90
ssg71
g4204
sg64
(lp4216
S':'
asbag57
(g78
g59
NtRp4217
(dp4218
g62
(dp4219
sg71
g4204
sg64
(lp4220
g57
(g58
g59
NtRp4221
(dp4222
g62
(dp4223
g70
I3
ssg71
g4217
sg64
(lp4224
S'Nishant (nerd)'
p4225
asbasbasbag57
(g73
g59
NtRp4226
(dp4227
g62
(dp4228
sg71
g4178
sg64
(lp4229
g57
(g78
g59
NtRp4230
(dp4231
g62
(dp4232
g82
g83
ssg71
g4226
sg64
(lp4233
S'id'
p4234
asbag57
(g78
g59
NtRp4235
(dp4236
g62
(dp4237
g89
g90
ssg71
g4226
sg64
(lp4238
S':'
asbag57
(g78
g59
NtRp4239
(dp4240
g62
(dp4241
sg71
g4226
sg64
(lp4242
g57
(g58
g59
NtRp4243
(dp4244
g62
(dp4245
g70
I3
ssg71
g4239
sg64
(lp4246
S'1'
asbasbasbag57
(g73
g59
NtRp4247
(dp4248
g62
(dp4249
sg71
g4178
sg64
(lp4250
g57
(g78
g59
NtRp4251
(dp4252
g62
(dp4253
g82
g83
ssg71
g4247
sg64
(lp4254
S'last_name'
p4255
asbag57
(g78
g59
NtRp4256
(dp4257
g62
(dp4258
g89
g90
ssg71
g4247
sg64
(lp4259
S':'
asbag57
(g78
g59
NtRp4260
(dp4261
g62
(dp4262
sg71
g4247
sg64
(lp4263
g57
(g58
g59
NtRp4264
(dp4265
g62
(dp4266
g70
I3
ssg71
g4260
sg64
(lp4267
S'Agrawal'
p4268
asbasbasbag57
(g73
g59
NtRp4269
(dp4270
g62
(dp4271
sg71
g4178
sg64
(lp4272
g57
(g78
g59
NtRp4273
(dp4274
g62
(dp4275
g82
g83
ssg71
g4269
sg64
(lp4276
S'registration_id'
p4277
asbag57
(g78
g59
NtRp4278
(dp4279
g62
(dp4280
g89
g90
ssg71
g4269
sg64
(lp4281
S':'
asbag57
(g78
g59
NtRp4282
(dp4283
g62
(dp4284
sg71
g4269
sg64
(lp4285
g57
(g58
g59
NtRp4286
(dp4287
g62
(dp4288
g70
I3
ssg71
g4282
sg64
(lp4289
S''
asbasbasbag57
(g73
g59
NtRp4290
(dp4291
g62
(dp4292
sg71
g4178
sg64
(lp4293
g57
(g78
g59
NtRp4294
(dp4295
g62
(dp4296
g82
g83
ssg71
g4290
sg64
(lp4297
S'registration_key'
p4298
asbag57
(g78
g59
NtRp4299
(dp4300
g62
(dp4301
g89
g90
ssg71
g4290
sg64
(lp4302
S':'
asbag57
(g78
g59
NtRp4303
(dp4304
g62
(dp4305
sg71
g4290
sg64
(lp4306
g57
(g58
g59
NtRp4307
(dp4308
g62
(dp4309
g70
I3
ssg71
g4303
sg64
(lp4310
S''
asbasbasbag57
(g73
g59
NtRp4311
(dp4312
g62
(dp4313
sg71
g4178
sg64
(lp4314
g57
(g78
g59
NtRp4315
(dp4316
g62
(dp4317
g82
g83
ssg71
g4311
sg64
(lp4318
S'reset_password_key'
p4319
asbag57
(g78
g59
NtRp4320
(dp4321
g62
(dp4322
g89
g90
ssg71
g4311
sg64
(lp4323
S':'
asbag57
(g78
g59
NtRp4324
(dp4325
g62
(dp4326
sg71
g4311
sg64
(lp4327
g57
(g58
g59
NtRp4328
(dp4329
g62
(dp4330
g70
I3
ssg71
g4324
sg64
(lp4331
S''
asbasbasbasbasbasbasbag57
(g73
g59
NtRp4332
(dp4333
g62
(dp4334
sg71
g4066
sg64
(lp4335
g57
(g78
g59
NtRp4336
(dp4337
g62
(dp4338
g82
g83
ssg71
g4332
sg64
(lp4339
S'user_groups'
p4340
asbag57
(g78
g59
NtRp4341
(dp4342
g62
(dp4343
g89
g90
ssg71
g4332
sg64
(lp4344
S':'
asbag57
(g78
g59
NtRp4345
(dp4346
g62
(dp4347
sg71
g4332
sg64
(lp4348
g57
(g58
g59
NtRp4349
(dp4350
g62
(dp4351
g70
I4
ssg71
g4345
sg64
(lp4352
g57
(g66
g59
NtRp4353
(dp4354
g62
(dp4355
g70
I3
ssg71
Nsg64
(lp4356
g57
(g73
g59
NtRp4357
(dp4358
g62
(dp4359
sg71
g4353
sg64
(lp4360
g57
(g78
g59
NtRp4361
(dp4362
g62
(dp4363
g82
g83
ssg71
g4357
sg64
(lp4364
S'1'
asbag57
(g78
g59
NtRp4365
(dp4366
g62
(dp4367
g89
g90
ssg71
g4357
sg64
(lp4368
S':'
asbag57
(g78
g59
NtRp4369
(dp4370
g62
(dp4371
sg71
g4357
sg64
(lp4372
g57
(g58
g59
NtRp4373
(dp4374
g62
(dp4375
g70
I3
ssg71
g4369
sg64
(lp4376
S'Student'
p4377
asbasbasbasbasbasbasbasbasbasbasbag57
(g73
g59
NtRp4378
(dp4379
g62
(dp4380
sg71
g4041
sg64
(lp4381
g57
(g78
g59
NtRp4382
(dp4383
g62
(dp4384
g82
g83
ssg71
g4378
sg64
(lp4385
S'flash'
p4386
asbag57
(g78
g59
NtRp4387
(dp4388
g62
(dp4389
g89
g90
ssg71
g4378
sg64
(lp4390
S':'
asbag57
(g78
g59
NtRp4391
(dp4392
g62
(dp4393
sg71
g4378
sg64
(lp4394
g57
(g58
g59
NtRp4395
(dp4396
g62
(dp4397
g70
I5
ssg71
g4391
sg64
(lp4398
S'None'
p4399
asbasbasbasbasbsS'etype'
p4400
S"<type 'exceptions.NameError'>"
p4401
sS'date'
p4402
S'Tue Apr 30 15:12:31 2013'
p4403
sS'response'
p4404
g57
(g58
g59
NtRp4405
(dp4406
g62
(dp4407
sg64
(lp4408
g57
(g66
g59
NtRp4409
(dp4410
g62
(dp4411
g70
I5
ssg71
Nsg64
(lp4412
g57
(g73
g59
NtRp4413
(dp4414
g62
(dp4415
sg71
g4409
sg64
(lp4416
g57
(g78
g59
NtRp4417
(dp4418
g62
(dp4419
g82
g83
ssg71
g4413
sg64
(lp4420
g155
asbag57
(g78
g59
NtRp4421
(dp4422
g62
(dp4423
g89
g90
ssg71
g4413
sg64
(lp4424
S':'
asbag57
(g78
g59
NtRp4425
(dp4426
g62
(dp4427
sg71
g4413
sg64
(lp4428
g57
(g58
g59
NtRp4429
(dp4430
g62
(dp4431
g70
I5
ssg71
g4425
sg64
(lp4432
S'<cStringIO.StringO object at 0xaef19760>'
p4433
asbasbasbag57
(g73
g59
NtRp4434
(dp4435
g62
(dp4436
sg71
g4409
sg64
(lp4437
g57
(g78
g59
NtRp4438
(dp4439
g62
(dp4440
g82
g83
ssg71
g4434
sg64
(lp4441
g243
asbag57
(g78
g59
NtRp4442
(dp4443
g62
(dp4444
g89
g90
ssg71
g4434
sg64
(lp4445
S':'
asbag57
(g78
g59
NtRp4446
(dp4447
g62
(dp4448
sg71
g4434
sg64
(lp4449
g57
(g58
g59
NtRp4450
(dp4451
g62
(dp4452
g70
I5
ssg71
g4446
sg64
(lp4453
g57
(g66
g59
NtRp4454
(dp4455
g62
(dp4456
g70
I4
ssg71
Nsg64
(lp4457
g57
(g73
g59
NtRp4458
(dp4459
g62
(dp4460
sg71
g4454
sg64
(lp4461
g57
(g78
g59
NtRp4462
(dp4463
g62
(dp4464
g82
g83
ssg71
g4458
sg64
(lp4465
S'session_id_backimg'
p4466
asbag57
(g78
g59
NtRp4467
(dp4468
g62
(dp4469
g89
g90
ssg71
g4458
sg64
(lp4470
S':'
asbag57
(g78
g59
NtRp4471
(dp4472
g62
(dp4473
sg71
g4458
sg64
(lp4474
g57
(g58
g59
NtRp4475
(dp4476
g62
(dp4477
g70
I4
ssg71
g4471
sg64
(lp4478
g475
ag57
(g66
g59
NtRp4479
(dp4480
g62
(dp4481
g70
I3
ssg71
Nsg64
(lp4482
g57
(g73
g59
NtRp4483
(dp4484
g62
(dp4485
sg71
g4479
sg64
(lp4486
g57
(g78
g59
NtRp4487
(dp4488
g62
(dp4489
g82
g83
ssg71
g4483
sg64
(lp4490
g294
asbag57
(g78
g59
NtRp4491
(dp4492
g62
(dp4493
g89
g90
ssg71
g4483
sg64
(lp4494
S':'
asbag57
(g78
g59
NtRp4495
(dp4496
g62
(dp4497
sg71
g4483
sg64
(lp4498
g57
(g58
g59
NtRp4499
(dp4500
g62
(dp4501
g70
I3
ssg71
g4495
sg64
(lp4502
S''
asbasbasbag57
(g73
g59
NtRp4503
(dp4504
g62
(dp4505
sg71
g4479
sg64
(lp4506
g57
(g78
g59
NtRp4507
(dp4508
g62
(dp4509
g82
g83
ssg71
g4503
sg64
(lp4510
g315
asbag57
(g78
g59
NtRp4511
(dp4512
g62
(dp4513
g89
g90
ssg71
g4503
sg64
(lp4514
S':'
asbag57
(g78
g59
NtRp4515
(dp4516
g62
(dp4517
sg71
g4503
sg64
(lp4518
g57
(g58
g59
NtRp4519
(dp4520
g62
(dp4521
g70
I3
ssg71
g4515
sg64
(lp4522
S''
asbasbasbag57
(g73
g59
NtRp4523
(dp4524
g62
(dp4525
sg71
g4479
sg64
(lp4526
g57
(g78
g59
NtRp4527
(dp4528
g62
(dp4529
g82
g83
ssg71
g4523
sg64
(lp4530
g336
asbag57
(g78
g59
NtRp4531
(dp4532
g62
(dp4533
g89
g90
ssg71
g4523
sg64
(lp4534
S':'
asbag57
(g78
g59
NtRp4535
(dp4536
g62
(dp4537
sg71
g4523
sg64
(lp4538
g57
(g58
g59
NtRp4539
(dp4540
g62
(dp4541
g70
I3
ssg71
g4535
sg64
(lp4542
S'2592000'
p4543
asbasbasbag57
(g73
g59
NtRp4544
(dp4545
g62
(dp4546
sg71
g4479
sg64
(lp4547
g57
(g78
g59
NtRp4548
(dp4549
g62
(dp4550
g82
g83
ssg71
g4544
sg64
(lp4551
g357
asbag57
(g78
g59
NtRp4552
(dp4553
g62
(dp4554
g89
g90
ssg71
g4544
sg64
(lp4555
S':'
asbag57
(g78
g59
NtRp4556
(dp4557
g62
(dp4558
sg71
g4544
sg64
(lp4559
g57
(g58
g59
NtRp4560
(dp4561
g62
(dp4562
g70
I3
ssg71
g4556
sg64
(lp4563
S''
asbasbasbag57
(g73
g59
NtRp4564
(dp4565
g62
(dp4566
sg71
g4479
sg64
(lp4567
g57
(g78
g59
NtRp4568
(dp4569
g62
(dp4570
g82
g83
ssg71
g4564
sg64
(lp4571
g378
asbag57
(g78
g59
NtRp4572
(dp4573
g62
(dp4574
g89
g90
ssg71
g4564
sg64
(lp4575
S':'
asbag57
(g78
g59
NtRp4576
(dp4577
g62
(dp4578
sg71
g4564
sg64
(lp4579
g57
(g58
g59
NtRp4580
(dp4581
g62
(dp4582
g70
I3
ssg71
g4576
sg64
(lp4583
S''
asbasbasbag57
(g73
g59
NtRp4584
(dp4585
g62
(dp4586
sg71
g4479
sg64
(lp4587
g57
(g78
g59
NtRp4588
(dp4589
g62
(dp4590
g82
g83
ssg71
g4584
sg64
(lp4591
g399
asbag57
(g78
g59
NtRp4592
(dp4593
g62
(dp4594
g89
g90
ssg71
g4584
sg64
(lp4595
S':'
asbag57
(g78
g59
NtRp4596
(dp4597
g62
(dp4598
sg71
g4584
sg64
(lp4599
g57
(g58
g59
NtRp4600
(dp4601
g62
(dp4602
g70
I3
ssg71
g4596
sg64
(lp4603
S'/'
asbasbasbag57
(g73
g59
NtRp4604
(dp4605
g62
(dp4606
sg71
g4479
sg64
(lp4607
g57
(g78
g59
NtRp4608
(dp4609
g62
(dp4610
g82
g83
ssg71
g4604
sg64
(lp4611
g420
asbag57
(g78
g59
NtRp4612
(dp4613
g62
(dp4614
g89
g90
ssg71
g4604
sg64
(lp4615
S':'
asbag57
(g78
g59
NtRp4616
(dp4617
g62
(dp4618
sg71
g4604
sg64
(lp4619
g57
(g58
g59
NtRp4620
(dp4621
g62
(dp4622
g70
I3
ssg71
g4616
sg64
(lp4623
S''
asbasbasbag57
(g73
g59
NtRp4624
(dp4625
g62
(dp4626
sg71
g4479
sg64
(lp4627
g57
(g78
g59
NtRp4628
(dp4629
g62
(dp4630
g82
g83
ssg71
g4624
sg64
(lp4631
g441
asbag57
(g78
g59
NtRp4632
(dp4633
g62
(dp4634
g89
g90
ssg71
g4624
sg64
(lp4635
S':'
asbag57
(g78
g59
NtRp4636
(dp4637
g62
(dp4638
sg71
g4624
sg64
(lp4639
g57
(g58
g59
NtRp4640
(dp4641
g62
(dp4642
g70
I3
ssg71
g4636
sg64
(lp4643
S''
asbasbasbasbasbasbasbasbasbasbasbag57
(g73
g59
NtRp4644
(dp4645
g62
(dp4646
sg71
g4409
sg64
(lp4647
g57
(g78
g59
NtRp4648
(dp4649
g62
(dp4650
g82
g83
ssg71
g4644
sg64
(lp4651
S'delimiters'
p4652
asbag57
(g78
g59
NtRp4653
(dp4654
g62
(dp4655
g89
g90
ssg71
g4644
sg64
(lp4656
S':'
asbag57
(g78
g59
NtRp4657
(dp4658
g62
(dp4659
sg71
g4644
sg64
(lp4660
g57
(g58
g59
NtRp4661
(dp4662
g62
(dp4663
g70
I5
ssg71
g4657
sg64
(lp4664
g57
(g66
g59
NtRp4665
(dp4666
g62
(dp4667
g70
I4
ssg71
Nsg64
(lp4668
g57
(g73
g59
NtRp4669
(dp4670
g62
(dp4671
sg71
g4665
sg64
(lp4672
g57
(g78
g59
NtRp4673
(dp4674
g62
(dp4675
sg71
g4669
sg64
(lp4676
g57
(g58
g59
NtRp4677
(dp4678
g62
(dp4679
g70
I4
ssg71
g4673
sg64
(lp4680
S'{{'
p4681
asbasbasbag57
(g73
g59
NtRp4682
(dp4683
g62
(dp4684
sg71
g4665
sg64
(lp4685
g57
(g78
g59
NtRp4686
(dp4687
g62
(dp4688
sg71
g4682
sg64
(lp4689
g57
(g58
g59
NtRp4690
(dp4691
g62
(dp4692
g70
I4
ssg71
g4686
sg64
(lp4693
S'}}'
p4694
asbasbasbasbasbasbasbag57
(g73
g59
NtRp4695
(dp4696
g62
(dp4697
sg71
g4409
sg64
(lp4698
g57
(g78
g59
NtRp4699
(dp4700
g62
(dp4701
g82
g83
ssg71
g4695
sg64
(lp4702
S'files'
p4703
asbag57
(g78
g59
NtRp4704
(dp4705
g62
(dp4706
g89
g90
ssg71
g4695
sg64
(lp4707
S':'
asbag57
(g78
g59
NtRp4708
(dp4709
g62
(dp4710
sg71
g4695
sg64
(lp4711
g57
(g58
g59
NtRp4712
(dp4713
g62
(dp4714
g70
I5
ssg71
g4708
sg64
(lp4715
g57
(g66
g59
NtRp4716
(dp4717
g62
(dp4718
g70
I4
ssg71
Nsg64
(lp4719
sbasbasbasbag57
(g73
g59
NtRp4720
(dp4721
g62
(dp4722
sg71
g4409
sg64
(lp4723
g57
(g78
g59
NtRp4724
(dp4725
g62
(dp4726
g82
g83
ssg71
g4720
sg64
(lp4727
S'flash'
p4728
asbag57
(g78
g59
NtRp4729
(dp4730
g62
(dp4731
g89
g90
ssg71
g4720
sg64
(lp4732
S':'
asbag57
(g78
g59
NtRp4733
(dp4734
g62
(dp4735
sg71
g4720
sg64
(lp4736
g57
(g58
g59
NtRp4737
(dp4738
g62
(dp4739
g70
I5
ssg71
g4733
sg64
(lp4740
S''
asbasbasbag57
(g73
g59
NtRp4741
(dp4742
g62
(dp4743
sg71
g4409
sg64
(lp4744
g57
(g78
g59
NtRp4745
(dp4746
g62
(dp4747
g82
g83
ssg71
g4741
sg64
(lp4748
S'generic_patterns'
p4749
asbag57
(g78
g59
NtRp4750
(dp4751
g62
(dp4752
g89
g90
ssg71
g4741
sg64
(lp4753
S':'
asbag57
(g78
g59
NtRp4754
(dp4755
g62
(dp4756
sg71
g4741
sg64
(lp4757
g57
(g58
g59
NtRp4758
(dp4759
g62
(dp4760
g70
I5
ssg71
g4754
sg64
(lp4761
g57
(g66
g59
NtRp4762
(dp4763
g62
(dp4764
g70
I4
ssg71
Nsg64
(lp4765
g57
(g73
g59
NtRp4766
(dp4767
g62
(dp4768
sg71
g4762
sg64
(lp4769
g57
(g78
g59
NtRp4770
(dp4771
g62
(dp4772
sg71
g4766
sg64
(lp4773
g57
(g58
g59
NtRp4774
(dp4775
g62
(dp4776
g70
I4
ssg71
g4770
sg64
(lp4777
S'*'
asbasbasbasbasbasbasbag57
(g73
g59
NtRp4778
(dp4779
g62
(dp4780
sg71
g4409
sg64
(lp4781
g57
(g78
g59
NtRp4782
(dp4783
g62
(dp4784
g82
g83
ssg71
g4778
sg64
(lp4785
S'google_analytics_id'
p4786
asbag57
(g78
g59
NtRp4787
(dp4788
g62
(dp4789
g89
g90
ssg71
g4778
sg64
(lp4790
S':'
asbag57
(g78
g59
NtRp4791
(dp4792
g62
(dp4793
sg71
g4778
sg64
(lp4794
g57
(g58
g59
NtRp4795
(dp4796
g62
(dp4797
g70
I5
ssg71
g4791
sg64
(lp4798
S'None'
p4799
asbasbasbag57
(g73
g59
NtRp4800
(dp4801
g62
(dp4802
sg71
g4409
sg64
(lp4803
g57
(g78
g59
NtRp4804
(dp4805
g62
(dp4806
g82
g83
ssg71
g4800
sg64
(lp4807
S'headers'
p4808
asbag57
(g78
g59
NtRp4809
(dp4810
g62
(dp4811
g89
g90
ssg71
g4800
sg64
(lp4812
S':'
asbag57
(g78
g59
NtRp4813
(dp4814
g62
(dp4815
sg71
g4800
sg64
(lp4816
g57
(g58
g59
NtRp4817
(dp4818
g62
(dp4819
g70
I5
ssg71
g4813
sg64
(lp4820
g57
(g66
g59
NtRp4821
(dp4822
g62
(dp4823
g70
I4
ssg71
Nsg64
(lp4824
g57
(g73
g59
NtRp4825
(dp4826
g62
(dp4827
sg71
g4821
sg64
(lp4828
g57
(g78
g59
NtRp4829
(dp4830
g62
(dp4831
g82
g83
ssg71
g4825
sg64
(lp4832
S'X-Powered-By'
p4833
asbag57
(g78
g59
NtRp4834
(dp4835
g62
(dp4836
g89
g90
ssg71
g4825
sg64
(lp4837
S':'
asbag57
(g78
g59
NtRp4838
(dp4839
g62
(dp4840
sg71
g4825
sg64
(lp4841
g57
(g58
g59
NtRp4842
(dp4843
g62
(dp4844
g70
I4
ssg71
g4838
sg64
(lp4845
S'web2py'
p4846
asbasbasbasbasbasbasbag57
(g73
g59
NtRp4847
(dp4848
g62
(dp4849
sg71
g4409
sg64
(lp4850
g57
(g78
g59
NtRp4851
(dp4852
g62
(dp4853
g82
g83
ssg71
g4847
sg64
(lp4854
S'logo'
p4855
asbag57
(g78
g59
NtRp4856
(dp4857
g62
(dp4858
g89
g90
ssg71
g4847
sg64
(lp4859
S':'
asbag57
(g78
g59
NtRp4860
(dp4861
g62
(dp4862
sg71
g4847
sg64
(lp4863
g57
(g58
g59
NtRp4864
(dp4865
g62
(dp4866
g70
I5
ssg71
g4860
sg64
(lp4867
g57
(cgluon.html
A
p4868
g59
NtRp4869
(dp4870
g62
(dp4871
S'_class'
p4872
S'brand'
p4873
sS'_href'
p4874
S'http://www.web2py.com/'
p4875
ssg71
Nsg64
(lp4876
g57
(cgluon.html
B
p4877
g59
NtRp4878
(dp4879
g62
(dp4880
sg71
g4869
sg64
(lp4881
S'web'
p4882
ag57
(cgluon.html
SPAN
p4883
g59
NtRp4884
(dp4885
g62
(dp4886
sg71
g4878
sg64
(lp4887
I2
asbaS'py'
p4888
asbacgluon.html
XML_unpickle
p4889
(S's\r\x00\x00\x00&trade;&nbsp;'
tRp4890
asbasbasbasbag57
(g73
g59
NtRp4891
(dp4892
g62
(dp4893
sg71
g4409
sg64
(lp4894
g57
(g78
g59
NtRp4895
(dp4896
g62
(dp4897
g82
g83
ssg71
g4891
sg64
(lp4898
S'menu'
p4899
asbag57
(g78
g59
NtRp4900
(dp4901
g62
(dp4902
g89
g90
ssg71
g4891
sg64
(lp4903
S':'
asbag57
(g78
g59
NtRp4904
(dp4905
g62
(dp4906
sg71
g4891
sg64
(lp4907
g57
(g58
g59
NtRp4908
(dp4909
g62
(dp4910
g70
I5
ssg71
g4904
sg64
(lp4911
g57
(g66
g59
NtRp4912
(dp4913
g62
(dp4914
g70
I4
ssg71
Nsg64
(lp4915
g57
(g73
g59
NtRp4916
(dp4917
g62
(dp4918
sg71
g4912
sg64
(lp4919
g57
(g78
g59
NtRp4920
(dp4921
g62
(dp4922
sg71
g4916
sg64
(lp4923
g57
(g58
g59
NtRp4924
(dp4925
g62
(dp4926
g70
I4
ssg71
g4920
sg64
(lp4927
g57
(g66
g59
NtRp4928
(dp4929
g62
(dp4930
g70
I3
ssg71
Nsg64
(lp4931
g57
(g73
g59
NtRp4932
(dp4933
g62
(dp4934
sg71
g4928
sg64
(lp4935
g57
(g78
g59
NtRp4936
(dp4937
g62
(dp4938
sg71
g4932
sg64
(lp4939
g57
(g58
g59
NtRp4940
(dp4941
g62
(dp4942
g70
I3
ssg71
g4936
sg64
(lp4943
g57
(g4883
g59
NtRp4944
(dp4945
g62
(dp4946
g4872
S'highlighted'
p4947
ssg71
Nsg64
(lp4948
S'Home'
p4949
asbasbasbasbag57
(g73
g59
NtRp4950
(dp4951
g62
(dp4952
sg71
g4928
sg64
(lp4953
g57
(g78
g59
NtRp4954
(dp4955
g62
(dp4956
sg71
g4950
sg64
(lp4957
g57
(g58
g59
NtRp4958
(dp4959
g62
(dp4960
g70
I3
ssg71
g4954
sg64
(lp4961
g100
asbasbasbag57
(g73
g59
NtRp4962
(dp4963
g62
(dp4964
sg71
g4928
sg64
(lp4965
g57
(g78
g59
NtRp4966
(dp4967
g62
(dp4968
sg71
g4962
sg64
(lp4969
g57
(g58
g59
NtRp4970
(dp4971
g62
(dp4972
g70
I3
ssg71
g4966
sg64
(lp4973
S'/backimg/default/index'
p4974
asbasbasbag57
(g73
g59
NtRp4975
(dp4976
g62
(dp4977
sg71
g4928
sg64
(lp4978
g57
(g78
g59
NtRp4979
(dp4980
g62
(dp4981
sg71
g4975
sg64
(lp4982
g57
(g58
g59
NtRp4983
(dp4984
g62
(dp4985
g70
I3
ssg71
g4979
sg64
(lp4986
g57
(g66
g59
NtRp4987
(dp4988
g62
(dp4989
g70
I2
ssg71
Nsg64
(lp4990
sbasbasbasbasbasbasbasbag57
(g73
g59
NtRp4991
(dp4992
g62
(dp4993
sg71
g4912
sg64
(lp4994
g57
(g78
g59
NtRp4995
(dp4996
g62
(dp4997
sg71
g4991
sg64
(lp4998
g57
(g58
g59
NtRp4999
(dp5000
g62
(dp5001
g70
I4
ssg71
g4995
sg64
(lp5002
g57
(g66
g59
NtRp5003
(dp5004
g62
(dp5005
g70
I3
ssg71
Nsg64
(lp5006
g57
(g73
g59
NtRp5007
(dp5008
g62
(dp5009
sg71
g5003
sg64
(lp5010
g57
(g78
g59
NtRp5011
(dp5012
g62
(dp5013
sg71
g5007
sg64
(lp5014
g57
(g58
g59
NtRp5015
(dp5016
g62
(dp5017
g70
I3
ssg71
g5011
sg64
(lp5018
cgluon.languages
lazyT_unpickle
p5019
(S's\r\x00\x00\x00View Messages'
tRp5020
asbasbasbag57
(g73
g59
NtRp5021
(dp5022
g62
(dp5023
sg71
g5003
sg64
(lp5024
g57
(g78
g59
NtRp5025
(dp5026
g62
(dp5027
sg71
g5021
sg64
(lp5028
g57
(g58
g59
NtRp5029
(dp5030
g62
(dp5031
g70
I3
ssg71
g5025
sg64
(lp5032
g100
asbasbasbag57
(g73
g59
NtRp5033
(dp5034
g62
(dp5035
sg71
g5003
sg64
(lp5036
g57
(g78
g59
NtRp5037
(dp5038
g62
(dp5039
sg71
g5033
sg64
(lp5040
g57
(g58
g59
NtRp5041
(dp5042
g62
(dp5043
g70
I3
ssg71
g5037
sg64
(lp5044
S'/backimg/default/view_msg'
p5045
asbasbasbasbasbasbasbag57
(g73
g59
NtRp5046
(dp5047
g62
(dp5048
sg71
g4912
sg64
(lp5049
g57
(g78
g59
NtRp5050
(dp5051
g62
(dp5052
sg71
g5046
sg64
(lp5053
g57
(g58
g59
NtRp5054
(dp5055
g62
(dp5056
g70
I4
ssg71
g5050
sg64
(lp5057
g57
(g66
g59
NtRp5058
(dp5059
g62
(dp5060
g70
I3
ssg71
Nsg64
(lp5061
g57
(g73
g59
NtRp5062
(dp5063
g62
(dp5064
sg71
g5058
sg64
(lp5065
g57
(g78
g59
NtRp5066
(dp5067
g62
(dp5068
sg71
g5062
sg64
(lp5069
g57
(g58
g59
NtRp5070
(dp5071
g62
(dp5072
g70
I3
ssg71
g5066
sg64
(lp5073
g5019
(S's\x0e\x00\x00\x00Update Profile'
tRp5074
asbasbasbag57
(g73
g59
NtRp5075
(dp5076
g62
(dp5077
sg71
g5058
sg64
(lp5078
g57
(g78
g59
NtRp5079
(dp5080
g62
(dp5081
sg71
g5075
sg64
(lp5082
g57
(g58
g59
NtRp5083
(dp5084
g62
(dp5085
g70
I3
ssg71
g5079
sg64
(lp5086
g100
asbasbasbag57
(g73
g59
NtRp5087
(dp5088
g62
(dp5089
sg71
g5058
sg64
(lp5090
g57
(g78
g59
NtRp5091
(dp5092
g62
(dp5093
sg71
g5087
sg64
(lp5094
g57
(g58
g59
NtRp5095
(dp5096
g62
(dp5097
g70
I3
ssg71
g5091
sg64
(lp5098
S'/backimg/default/edit_student'
p5099
asbasbasbasbasbasbasbag57
(g73
g59
NtRp5100
(dp5101
g62
(dp5102
sg71
g4912
sg64
(lp5103
g57
(g78
g59
NtRp5104
(dp5105
g62
(dp5106
sg71
g5100
sg64
(lp5107
g57
(g58
g59
NtRp5108
(dp5109
g62
(dp5110
g70
I4
ssg71
g5104
sg64
(lp5111
g57
(g66
g59
NtRp5112
(dp5113
g62
(dp5114
g70
I3
ssg71
Nsg64
(lp5115
g57
(g73
g59
NtRp5116
(dp5117
g62
(dp5118
sg71
g5112
sg64
(lp5119
g57
(g78
g59
NtRp5120
(dp5121
g62
(dp5122
sg71
g5116
sg64
(lp5123
g57
(g58
g59
NtRp5124
(dp5125
g62
(dp5126
g70
I3
ssg71
g5120
sg64
(lp5127
g5019
(S's\r\x00\x00\x00Add a project'
tRp5128
asbasbasbag57
(g73
g59
NtRp5129
(dp5130
g62
(dp5131
sg71
g5112
sg64
(lp5132
g57
(g78
g59
NtRp5133
(dp5134
g62
(dp5135
sg71
g5129
sg64
(lp5136
g57
(g58
g59
NtRp5137
(dp5138
g62
(dp5139
g70
I3
ssg71
g5133
sg64
(lp5140
g100
asbasbasbag57
(g73
g59
NtRp5141
(dp5142
g62
(dp5143
sg71
g5112
sg64
(lp5144
g57
(g78
g59
NtRp5145
(dp5146
g62
(dp5147
sg71
g5141
sg64
(lp5148
g57
(g58
g59
NtRp5149
(dp5150
g62
(dp5151
g70
I3
ssg71
g5145
sg64
(lp5152
S'/backimg/default/add_project'
p5153
asbasbasbasbasbasbasbag57
(g73
g59
NtRp5154
(dp5155
g62
(dp5156
sg71
g4912
sg64
(lp5157
g57
(g78
g59
NtRp5158
(dp5159
g62
(dp5160
sg71
g5154
sg64
(lp5161
g57
(g58
g59
NtRp5162
(dp5163
g62
(dp5164
g70
I4
ssg71
g5158
sg64
(lp5165
g57
(g66
g59
NtRp5166
(dp5167
g62
(dp5168
g70
I3
ssg71
Nsg64
(lp5169
g57
(g73
g59
NtRp5170
(dp5171
g62
(dp5172
sg71
g5166
sg64
(lp5173
g57
(g78
g59
NtRp5174
(dp5175
g62
(dp5176
sg71
g5170
sg64
(lp5177
g57
(g58
g59
NtRp5178
(dp5179
g62
(dp5180
g70
I3
ssg71
g5174
sg64
(lp5181
g5019
(S's\x08\x00\x00\x00Get PDF!'
tRp5182
asbasbasbag57
(g73
g59
NtRp5183
(dp5184
g62
(dp5185
sg71
g5166
sg64
(lp5186
g57
(g78
g59
NtRp5187
(dp5188
g62
(dp5189
sg71
g5183
sg64
(lp5190
g57
(g58
g59
NtRp5191
(dp5192
g62
(dp5193
g70
I3
ssg71
g5187
sg64
(lp5194
g100
asbasbasbag57
(g73
g59
NtRp5195
(dp5196
g62
(dp5197
sg71
g5166
sg64
(lp5198
g57
(g78
g59
NtRp5199
(dp5200
g62
(dp5201
sg71
g5195
sg64
(lp5202
g57
(g58
g59
NtRp5203
(dp5204
g62
(dp5205
g70
I3
ssg71
g5199
sg64
(lp5206
S'/backimg/default/pdf1'
p5207
asbasbasbasbasbasbasbag57
(g73
g59
NtRp5208
(dp5209
g62
(dp5210
sg71
g4912
sg64
(lp5211
g57
(g78
g59
NtRp5212
(dp5213
g62
(dp5214
sg71
g5208
sg64
(lp5215
g57
(g58
g59
NtRp5216
(dp5217
g62
(dp5218
g70
I4
ssg71
g5212
sg64
(lp5219
g57
(g66
g59
NtRp5220
(dp5221
g62
(dp5222
g70
I3
ssg71
Nsg64
(lp5223
g57
(g73
g59
NtRp5224
(dp5225
g62
(dp5226
sg71
g5220
sg64
(lp5227
g57
(g78
g59
NtRp5228
(dp5229
g62
(dp5230
sg71
g5224
sg64
(lp5231
g57
(g58
g59
NtRp5232
(dp5233
g62
(dp5234
g70
I3
ssg71
g5228
sg64
(lp5235
g5019
(S's\x12\x00\x00\x00Add an Achievement'
tRp5236
asbasbasbag57
(g73
g59
NtRp5237
(dp5238
g62
(dp5239
sg71
g5220
sg64
(lp5240
g57
(g78
g59
NtRp5241
(dp5242
g62
(dp5243
sg71
g5237
sg64
(lp5244
g57
(g58
g59
NtRp5245
(dp5246
g62
(dp5247
g70
I3
ssg71
g5241
sg64
(lp5248
g100
asbasbasbag57
(g73
g59
NtRp5249
(dp5250
g62
(dp5251
sg71
g5220
sg64
(lp5252
g57
(g78
g59
NtRp5253
(dp5254
g62
(dp5255
sg71
g5249
sg64
(lp5256
g57
(g58
g59
NtRp5257
(dp5258
g62
(dp5259
g70
I3
ssg71
g5253
sg64
(lp5260
S'/backimg/default/add_achievement'
p5261
asbasbasbasbasbasbasbasbasbasbasbag57
(g73
g59
NtRp5262
(dp5263
g62
(dp5264
sg71
g4409
sg64
(lp5265
g57
(g78
g59
NtRp5266
(dp5267
g62
(dp5268
g82
g83
ssg71
g5262
sg64
(lp5269
S'meta'
p5270
asbag57
(g78
g59
NtRp5271
(dp5272
g62
(dp5273
g89
g90
ssg71
g5262
sg64
(lp5274
S':'
asbag57
(g78
g59
NtRp5275
(dp5276
g62
(dp5277
sg71
g5262
sg64
(lp5278
g57
(g58
g59
NtRp5279
(dp5280
g62
(dp5281
g70
I5
ssg71
g5275
sg64
(lp5282
g57
(g66
g59
NtRp5283
(dp5284
g62
(dp5285
g70
I4
ssg71
Nsg64
(lp5286
g57
(g73
g59
NtRp5287
(dp5288
g62
(dp5289
sg71
g5283
sg64
(lp5290
g57
(g78
g59
NtRp5291
(dp5292
g62
(dp5293
g82
g83
ssg71
g5287
sg64
(lp5294
S'author'
p5295
asbag57
(g78
g59
NtRp5296
(dp5297
g62
(dp5298
g89
g90
ssg71
g5287
sg64
(lp5299
S':'
asbag57
(g78
g59
NtRp5300
(dp5301
g62
(dp5302
sg71
g5287
sg64
(lp5303
g57
(g58
g59
NtRp5304
(dp5305
g62
(dp5306
g70
I4
ssg71
g5300
sg64
(lp5307
S'Your Name <you@example.com>'
p5308
asbasbasbag57
(g73
g59
NtRp5309
(dp5310
g62
(dp5311
sg71
g5283
sg64
(lp5312
g57
(g78
g59
NtRp5313
(dp5314
g62
(dp5315
g82
g83
ssg71
g5309
sg64
(lp5316
S'description'
p5317
asbag57
(g78
g59
NtRp5318
(dp5319
g62
(dp5320
g89
g90
ssg71
g5309
sg64
(lp5321
S':'
asbag57
(g78
g59
NtRp5322
(dp5323
g62
(dp5324
sg71
g5309
sg64
(lp5325
g57
(g58
g59
NtRp5326
(dp5327
g62
(dp5328
g70
I4
ssg71
g5322
sg64
(lp5329
S'a cool new app'
p5330
asbasbasbag57
(g73
g59
NtRp5331
(dp5332
g62
(dp5333
sg71
g5283
sg64
(lp5334
g57
(g78
g59
NtRp5335
(dp5336
g62
(dp5337
g82
g83
ssg71
g5331
sg64
(lp5338
S'generator'
p5339
asbag57
(g78
g59
NtRp5340
(dp5341
g62
(dp5342
g89
g90
ssg71
g5331
sg64
(lp5343
S':'
asbag57
(g78
g59
NtRp5344
(dp5345
g62
(dp5346
sg71
g5331
sg64
(lp5347
g57
(g58
g59
NtRp5348
(dp5349
g62
(dp5350
g70
I4
ssg71
g5344
sg64
(lp5351
S'Web2py Web Framework'
p5352
asbasbasbag57
(g73
g59
NtRp5353
(dp5354
g62
(dp5355
sg71
g5283
sg64
(lp5356
g57
(g78
g59
NtRp5357
(dp5358
g62
(dp5359
g82
g83
ssg71
g5353
sg64
(lp5360
S'keywords'
p5361
asbag57
(g78
g59
NtRp5362
(dp5363
g62
(dp5364
g89
g90
ssg71
g5353
sg64
(lp5365
S':'
asbag57
(g78
g59
NtRp5366
(dp5367
g62
(dp5368
sg71
g5353
sg64
(lp5369
g57
(g58
g59
NtRp5370
(dp5371
g62
(dp5372
g70
I4
ssg71
g5366
sg64
(lp5373
S'web2py, python, framework'
p5374
asbasbasbasbasbasbasbag57
(g73
g59
NtRp5375
(dp5376
g62
(dp5377
sg71
g4409
sg64
(lp5378
g57
(g78
g59
NtRp5379
(dp5380
g62
(dp5381
g82
g83
ssg71
g5375
sg64
(lp5382
S'models_to_run'
p5383
asbag57
(g78
g59
NtRp5384
(dp5385
g62
(dp5386
g89
g90
ssg71
g5375
sg64
(lp5387
S':'
asbag57
(g78
g59
NtRp5388
(dp5389
g62
(dp5390
sg71
g5375
sg64
(lp5391
g57
(g58
g59
NtRp5392
(dp5393
g62
(dp5394
g70
I5
ssg71
g5388
sg64
(lp5395
g57
(g66
g59
NtRp5396
(dp5397
g62
(dp5398
g70
I4
ssg71
Nsg64
(lp5399
g57
(g73
g59
NtRp5400
(dp5401
g62
(dp5402
sg71
g5396
sg64
(lp5403
g57
(g78
g59
NtRp5404
(dp5405
g62
(dp5406
sg71
g5400
sg64
(lp5407
g57
(g58
g59
NtRp5408
(dp5409
g62
(dp5410
g70
I4
ssg71
g5404
sg64
(lp5411
S'^\\w+\\.py$'
p5412
asbasbasbag57
(g73
g59
NtRp5413
(dp5414
g62
(dp5415
sg71
g5396
sg64
(lp5416
g57
(g78
g59
NtRp5417
(dp5418
g62
(dp5419
sg71
g5413
sg64
(lp5420
g57
(g58
g59
NtRp5421
(dp5422
g62
(dp5423
g70
I4
ssg71
g5417
sg64
(lp5424
S'^default/\\w+\\.py$'
p5425
asbasbasbag57
(g73
g59
NtRp5426
(dp5427
g62
(dp5428
sg71
g5396
sg64
(lp5429
g57
(g78
g59
NtRp5430
(dp5431
g62
(dp5432
sg71
g5426
sg64
(lp5433
g57
(g58
g59
NtRp5434
(dp5435
g62
(dp5436
g70
I4
ssg71
g5430
sg64
(lp5437
S'^default/single_company_msg/\\w+\\.py$'
p5438
asbasbasbasbasbasbasbag57
(g73
g59
NtRp5439
(dp5440
g62
(dp5441
sg71
g4409
sg64
(lp5442
g57
(g78
g59
NtRp5443
(dp5444
g62
(dp5445
g82
g83
ssg71
g5439
sg64
(lp5446
S'postprocessing'
p5447
asbag57
(g78
g59
NtRp5448
(dp5449
g62
(dp5450
g89
g90
ssg71
g5439
sg64
(lp5451
S':'
asbag57
(g78
g59
NtRp5452
(dp5453
g62
(dp5454
sg71
g5439
sg64
(lp5455
g57
(g58
g59
NtRp5456
(dp5457
g62
(dp5458
g70
I5
ssg71
g5452
sg64
(lp5459
g57
(g66
g59
NtRp5460
(dp5461
g62
(dp5462
g70
I4
ssg71
Nsg64
(lp5463
sbasbasbasbag57
(g73
g59
NtRp5464
(dp5465
g62
(dp5466
sg71
g4409
sg64
(lp5467
g57
(g78
g59
NtRp5468
(dp5469
g62
(dp5470
g82
g83
ssg71
g5464
sg64
(lp5471
S'session_cookie_expires'
p5472
asbag57
(g78
g59
NtRp5473
(dp5474
g62
(dp5475
g89
g90
ssg71
g5464
sg64
(lp5476
S':'
asbag57
(g78
g59
NtRp5477
(dp5478
g62
(dp5479
sg71
g5464
sg64
(lp5480
g57
(g58
g59
NtRp5481
(dp5482
g62
(dp5483
g70
I5
ssg71
g5477
sg64
(lp5484
S'None'
p5485
asbasbasbag57
(g73
g59
NtRp5486
(dp5487
g62
(dp5488
sg71
g4409
sg64
(lp5489
g57
(g78
g59
NtRp5490
(dp5491
g62
(dp5492
g82
g83
ssg71
g5486
sg64
(lp5493
S'session_data_name'
p5494
asbag57
(g78
g59
NtRp5495
(dp5496
g62
(dp5497
g89
g90
ssg71
g5486
sg64
(lp5498
S':'
asbag57
(g78
g59
NtRp5499
(dp5500
g62
(dp5501
sg71
g5486
sg64
(lp5502
g57
(g58
g59
NtRp5503
(dp5504
g62
(dp5505
g70
I5
ssg71
g5499
sg64
(lp5506
S'session_data_backimg'
p5507
asbasbasbag57
(g73
g59
NtRp5508
(dp5509
g62
(dp5510
sg71
g4409
sg64
(lp5511
g57
(g78
g59
NtRp5512
(dp5513
g62
(dp5514
g82
g83
ssg71
g5508
sg64
(lp5515
S'session_file'
p5516
asbag57
(g78
g59
NtRp5517
(dp5518
g62
(dp5519
g89
g90
ssg71
g5508
sg64
(lp5520
S':'
asbag57
(g78
g59
NtRp5521
(dp5522
g62
(dp5523
sg71
g5508
sg64
(lp5524
g57
(g58
g59
NtRp5525
(dp5526
g62
(dp5527
g70
I5
ssg71
g5521
sg64
(lp5528
S"<open file '/home/nishant/Acaedmics/Sem-2/ITWS-2/web2py/applications/backimg/sessions/127.0.0.1-510de37e-632d-4f80-b1c3-d8a3bf298387', mode 'rb+' at 0xaf998338>"
p5529
asbasbasbag57
(g73
g59
NtRp5530
(dp5531
g62
(dp5532
sg71
g4409
sg64
(lp5533
g57
(g78
g59
NtRp5534
(dp5535
g62
(dp5536
g82
g83
ssg71
g5530
sg64
(lp5537
S'session_filename'
p5538
asbag57
(g78
g59
NtRp5539
(dp5540
g62
(dp5541
g89
g90
ssg71
g5530
sg64
(lp5542
S':'
asbag57
(g78
g59
NtRp5543
(dp5544
g62
(dp5545
sg71
g5530
sg64
(lp5546
g57
(g58
g59
NtRp5547
(dp5548
g62
(dp5549
g70
I5
ssg71
g5543
sg64
(lp5550
S'/home/nishant/Acaedmics/Sem-2/ITWS-2/web2py/applications/backimg/sessions/127.0.0.1-510de37e-632d-4f80-b1c3-d8a3bf298387'
p5551
asbasbasbag57
(g73
g59
NtRp5552
(dp5553
g62
(dp5554
sg71
g4409
sg64
(lp5555
g57
(g78
g59
NtRp5556
(dp5557
g62
(dp5558
g82
g83
ssg71
g5552
sg64
(lp5559
S'session_id'
p5560
asbag57
(g78
g59
NtRp5561
(dp5562
g62
(dp5563
g89
g90
ssg71
g5552
sg64
(lp5564
S':'
asbag57
(g78
g59
NtRp5565
(dp5566
g62
(dp5567
sg71
g5552
sg64
(lp5568
g57
(g58
g59
NtRp5569
(dp5570
g62
(dp5571
g70
I5
ssg71
g5565
sg64
(lp5572
g475
asbasbasbag57
(g73
g59
NtRp5573
(dp5574
g62
(dp5575
sg71
g4409
sg64
(lp5576
g57
(g78
g59
NtRp5577
(dp5578
g62
(dp5579
g82
g83
ssg71
g5573
sg64
(lp5580
S'session_id_name'
p5581
asbag57
(g78
g59
NtRp5582
(dp5583
g62
(dp5584
g89
g90
ssg71
g5573
sg64
(lp5585
S':'
asbag57
(g78
g59
NtRp5586
(dp5587
g62
(dp5588
sg71
g5573
sg64
(lp5589
g57
(g58
g59
NtRp5590
(dp5591
g62
(dp5592
g70
I5
ssg71
g5586
sg64
(lp5593
g4466
asbasbasbag57
(g73
g59
NtRp5594
(dp5595
g62
(dp5596
sg71
g4409
sg64
(lp5597
g57
(g78
g59
NtRp5598
(dp5599
g62
(dp5600
g82
g83
ssg71
g5594
sg64
(lp5601
S'session_locked'
p5602
asbag57
(g78
g59
NtRp5603
(dp5604
g62
(dp5605
g89
g90
ssg71
g5594
sg64
(lp5606
S':'
asbag57
(g78
g59
NtRp5607
(dp5608
g62
(dp5609
sg71
g5594
sg64
(lp5610
g57
(g58
g59
NtRp5611
(dp5612
g62
(dp5613
g70
I5
ssg71
g5607
sg64
(lp5614
g1729
asbasbasbag57
(g73
g59
NtRp5615
(dp5616
g62
(dp5617
sg71
g4409
sg64
(lp5618
g57
(g78
g59
NtRp5619
(dp5620
g62
(dp5621
g82
g83
ssg71
g5615
sg64
(lp5622
S'session_new'
p5623
asbag57
(g78
g59
NtRp5624
(dp5625
g62
(dp5626
g89
g90
ssg71
g5615
sg64
(lp5627
S':'
asbag57
(g78
g59
NtRp5628
(dp5629
g62
(dp5630
sg71
g5615
sg64
(lp5631
g57
(g58
g59
NtRp5632
(dp5633
g62
(dp5634
g70
I5
ssg71
g5628
sg64
(lp5635
g100
asbasbasbag57
(g73
g59
NtRp5636
(dp5637
g62
(dp5638
sg71
g4409
sg64
(lp5639
g57
(g78
g59
NtRp5640
(dp5641
g62
(dp5642
g82
g83
ssg71
g5636
sg64
(lp5643
S'session_storage_type'
p5644
asbag57
(g78
g59
NtRp5645
(dp5646
g62
(dp5647
g89
g90
ssg71
g5636
sg64
(lp5648
S':'
asbag57
(g78
g59
NtRp5649
(dp5650
g62
(dp5651
sg71
g5636
sg64
(lp5652
g57
(g58
g59
NtRp5653
(dp5654
g62
(dp5655
g70
I5
ssg71
g5649
sg64
(lp5656
g3944
asbasbasbag57
(g73
g59
NtRp5657
(dp5658
g62
(dp5659
sg71
g4409
sg64
(lp5660
g57
(g78
g59
NtRp5661
(dp5662
g62
(dp5663
g82
g83
ssg71
g5657
sg64
(lp5664
S'status'
p5665
asbag57
(g78
g59
NtRp5666
(dp5667
g62
(dp5668
g89
g90
ssg71
g5657
sg64
(lp5669
S':'
asbag57
(g78
g59
NtRp5670
(dp5671
g62
(dp5672
sg71
g5657
sg64
(lp5673
g57
(g58
g59
NtRp5674
(dp5675
g62
(dp5676
g70
I5
ssg71
g5670
sg64
(lp5677
S'200'
p5678
asbasbasbag57
(g73
g59
NtRp5679
(dp5680
g62
(dp5681
sg71
g4409
sg64
(lp5682
g57
(g78
g59
NtRp5683
(dp5684
g62
(dp5685
g82
g83
ssg71
g5679
sg64
(lp5686
S'title'
p5687
asbag57
(g78
g59
NtRp5688
(dp5689
g62
(dp5690
g89
g90
ssg71
g5679
sg64
(lp5691
S':'
asbag57
(g78
g59
NtRp5692
(dp5693
g62
(dp5694
sg71
g5679
sg64
(lp5695
g57
(g58
g59
NtRp5696
(dp5697
g62
(dp5698
g70
I5
ssg71
g5692
sg64
(lp5699
S'Resume Builder'
p5700
asbasbasbag57
(g73
g59
NtRp5701
(dp5702
g62
(dp5703
sg71
g4409
sg64
(lp5704
g57
(g78
g59
NtRp5705
(dp5706
g62
(dp5707
g82
g83
ssg71
g5701
sg64
(lp5708
S'view'
p5709
asbag57
(g78
g59
NtRp5710
(dp5711
g62
(dp5712
g89
g90
ssg71
g5701
sg64
(lp5713
S':'
asbag57
(g78
g59
NtRp5714
(dp5715
g62
(dp5716
sg71
g5701
sg64
(lp5717
g57
(g58
g59
NtRp5718
(dp5719
g62
(dp5720
g70
I5
ssg71
g5714
sg64
(lp5721
S'default/single_company_msg.html'
p5722
asbasbasbasbasbsS'locals'
p5723
(dp5724
ssS'traceback'
p5725
S'Traceback (most recent call last):\n  File "/home/nishant/Acaedmics/Sem-2/ITWS-2/web2py/gluon/restricted.py", line 212, in restricted\n    exec ccode in environment\n  File "/home/nishant/Acaedmics/Sem-2/ITWS-2/web2py/applications/backimg/controllers/default.py", line 518, in <module>\n  File "/home/nishant/Acaedmics/Sem-2/ITWS-2/web2py/gluon/globals.py", line 193, in <lambda>\n    self._caller = lambda f: f()\n  File "/home/nishant/Acaedmics/Sem-2/ITWS-2/web2py/applications/backimg/controllers/default.py", line 235, in single_company_msg\n    r=db((msgid==db.msg.senderid) & (db.suth_user.id == auth.user_id)).select(db.msg.msg_date,db.msg.sub,db.msg.msg)\nNameError: global name \'msgid\' is not defined\n'
p5726
s.