(dp1
S'output'
p2
S"<type 'exceptions.TypeError'> int() argument must be a string or a number, not 'Field'"
p3
sS'layer'
p4
S'/home/nishant/Acaedmics/Sem-2/ITWS-2/web2py/applications/backimg/controllers/default.py'
p5
sS'code'
p6
S'# -*- coding: utf-8 -*-\n# this file is released under public domain and you can use without limitations\n\n#########################################################################\n## This is a samples controller\n## - index is the default action of any application\n## - user is required for authentication and authorization\n## - download is for downloading files uploaded in the db (does streaming)\n## - call exposes all registered services (none by default)\n#########################################################################\n\n@auth.requires_login()\n#@auth.requires_verify_email()\ndef index():\n    r=db(auth.user_id == db.auth_membership.user_id).select(db.auth_membership.group_id)\n    s=db(auth.user_id == db.details.myid).select(db.details.myid)\n    j=db(auth.user_id == db.organisation.myid).select(db.organisation.myid)\n    t=db(auth.user_id == db.details.myid).select()\n    n = len(s)\n    m=len(j)\n\t#if auth.user_id == db.auth_membership.user_id and db.auth_membership.group_id == 1:\n    if r[0][\'group_id\'] == 1 and n == 0:\n        redirect(URL(add_student))\n    elif r[0][\'group_id\'] == 1 and n!=0:\n        return dict(message=T(\'Welcome to Resume Builder!!\'),t=t)\n    elif r[0][\'group_id\'] == 2 and m!=0:\n#\t\treturn dict(message=T(\'Choose your students!\'))\n        redirect(URL(index1))\n    elif r[0][\'group_id\'] == 2 and m == 0:\n        redirect(URL(add_organisation))\n    else:\n\t\t#return dict(message=T(\'Your account has not been activated yet!\'))\n        redirect(URL(index2))\n\n@auth.requires_login()\ndef index1():\n    return dict(message=T(\'Choose Your students!\'))\n\n@auth.requires_login()\ndef index2():\n    return dict(message=T(\'Your account has not been activated by our admin yet!\'))\n    \ndef user():\n    """\n    exposes:\n    http://..../[app]/default/user/login\n    http://..../[app]/default/user/logout\n    http://..../[app]/default/user/register\n    http://..../[app]/default/user/profile\n    http://..../[app]/default/user/retrieve_password\n    http://..../[app]/default/user/change_password\n    use @auth.requires_login()\n        @auth.requires_membership(\'group name\')\n        @auth.requires_permission(\'read\',\'table name\',record_id)\n    to decorate functions that need access control\n    """\n    return dict(form=auth())\n\n@auth.requires_login()\ndef download():\n    """\n    allows downloading of uploaded files\n    http://..../[app]/default/download/[filename]\n    """\n    return response.download(request, db)\n\n\ndef call():\n    """\n    exposes services. for example:\n    http://..../[app]/default/call/jsonrpc\n    decorate with @services.jsonrpc the functions to expose\n    supports xml, json, xmlrpc, jsonrpc, amfrpc, rss, csv\n    """\n    return service()\n\n\n@auth.requires_signature()\ndef data():\n    """\n    http://..../[app]/default/data/tables\n    http://..../[app]/default/data/create/[table]\n    http://..../[app]/default/data/read/[table]/[id]\n    http://..../[app]/default/data/update/[table]/[id]\n    http://..../[app]/default/data/delete/[table]/[id]\n    http://..../[app]/default/data/select/[table]\n    http://..../[app]/default/data/search/[table]\n    but URLs must be signed, i.e. linked with\n      A(\'table\',_href=URL(\'data/tables\',user_signature=True))\n    or with the signed load operator\n      LOAD(\'default\',\'data.load\',args=\'tables\',ajax=True,user_signature=True)\n    """\n    return dict(form=crud())\n    \n@auth.requires_login()\n@auth.requires_membership(\'Student\')\ndef add_student():\n    form = SQLFORM(db.details)\t\t\t#use SQLFORM if you want to insert it as a record too. SQLFORM.factory won\'t insert. It just shows the form and uses it as a query.\n    r=db(auth.user_id==db.auth_user.id).select(db.auth_user.first_name,db.auth_user.last_name)\n    form.vars.name=r[0][\'first_name\']+\' \'+r[0][\'last_name\']\n    form.vars.myid=auth.user_id\n    form.vars.picture="photo.jpg"\n    if form.accepts(request.vars,session):\n\t#redirect(URL(r=request, f=\'student_details?rollno=%d\' % form.vars.rollno))\n        #return dict(message=T(\'Welcome to Resume Builder!!\'))\n        redirect(URL(index))\n\t#redirect(URL(student_details))\n    elif form.errors:\n        response.flash=\'Errors in form\'\n    return dict(form=form)\n\n@auth.requires_login()\n@auth.requires_membership(\'Student\')\ndef edit_student():\n    #studentid = int(request.args(0)) # or int(request.vars.studentid)fpff\n    r=db(auth.user_id==db.details.myid).select(db.details.id)\n    myid=r[0][\'id\']\n    form = SQLFORM(db.details, myid, showid=False, upload=URL(\'download\'))\n    r=db(auth.user_id==db.auth_user.id).select(db.auth_user.first_name,db.auth_user.last_name)\n    form.vars.name=r[0][\'first_name\']+\' \'+r[0][\'last_name\']\n    form.vars.picture="photo.jpg"\n    if form.accepts(request.vars,session):\n        #redirect(URL(r=request, f=\'student_details?rollno=%d\' % form.vars.rollno))\n        redirect(URL(index))\n    elif form.errors:\n        response.flash=\'Errors in form\'\n    return dict(form=form)\n    \n@auth.requires_login()    \n@auth.requires_membership(\'Student\')\ndef student_details():\n\treturn dict(details = db(auth.user_id==db.details.myid).select(db.details.name, db.details.cg))\n\n@auth.requires_login()\n@auth.requires_membership(\'Organisation\')\ndef send_msg():\n    form=SQLFORM(db.msg)\n    temp=db(auth.user_id == db.auth_user.id).select(db.auth_user.first_name, db.auth_user.last_name)\n    company=temp[0][\'first_name\'] + \' \' + temp[0][\'last_name\']\n    form.vars.sender=company\n    form.vars.senderid=auth.user_id\n    if form.accepts(request.vars,session):\n        redirect(URL(index))\n        session.flash=\'Message Successfully sent\'\n    #else:\n     #   response.flash=\'Error in filling form!\'\n    return dict(form=form)\n\n@auth.requires_login()\n@auth.requires_membership(\'Student\')\ndef view_msg():\n    r=db((auth.user_id == db.details.myid) & (db.details.id == db.msg.name)).select(db.msg.senderid, db.msg.sender, db.msg.sub, db.msg.msg)\n    print r\n    dict_companies={}\n    for i in r:\n        if i.sender in dict_companies.keys():\n            dict_companies[i.sender].append(i)\n        else:\n            dict_companies[i.sender]=[]\n            dict_companies[i.sender].append(i)\n    return dict(r=r,dict_companies=dict_companies)\n\n@auth.requires_login()\n@auth.requires_membership(\'Student\')\ndef add_project():\n    form=SQLFORM(db.project)\n    form.vars.myid=auth.user_id\n    if form.accepts(request.vars,session):\n        redirect(URL(index))\n    #else:\n     #   response.flash=\'Error(s) in filling form\'\n    return dict(form=form)\n\n@auth.requires_login()\n@auth.requires_membership(\'Organisation\')\ndef add_organisation():\n    r=db(auth.user_id==db.auth_user.id).select(db.auth_user.first_name,db.auth_user.last_name)\n    form=SQLFORM(db.organisation)\n    form.vars.name=r[0][\'first_name\']+\' \'+r[0][\'last_name\']\n    form.vars.myid=auth.user_id\n    form.vars.logo="photo.jpg"\n    if form.accepts(request.vars,session):\n        redirect(URL(index))\n    #else:\n     #   response.flash=\'Error(s) in filling form\'\n    return dict(form=form)\n    \n@auth.requires_login()\n@auth.requires_membership(\'Organisation\')\ndef edit_organisation():\n    r=db(auth.user_id==db.organisation.myid).select(db.organisation.id)\n    myid=r[0][\'id\']\n    form = SQLFORM(db.organisation, myid, showid=False, upload=URL(\'download\'))\n    r=db(auth.user_id==db.auth_user.id).select(db.auth_user.first_name,db.auth_user.last_name)\n    form.vars.name=r[0][\'first_name\']+\' \'+r[0][\'last_name\']\n    if form.accepts(request.vars,session):\n        #redirect(URL(r=request, f=\'student_details?rollno=%d\' % form.vars.rollno))\n        redirect(URL(index))\n    elif form.errors:\n        response.flash=\'Errors in form\'\n    return dict(form=form)\n    \n@auth.requires_login()\n@auth.requires_membership(\'Organisation\')    \ndef add_vacancies():\n    form=SQLFORM(db.vacancies)\n    form.vars.myid=auth.user_id\n    if form.accepts(request.vars,session):\n        redirect(URL(index))\n    #else:\n     #   response.flash=\'Error(s) in filling form\'\n    return dict(form=form)\n    \n@auth.requires_login()\n@auth.requires_membership(\'Organisation\')\ndef search():\n    db.details.name.readable=True\n    db.details.myid.readable=False\n    grid=SQLFORM.grid(db.details,left=db.project.on(db.project.myid == db.details.myid),sortable=True,deletable=False,create=False,editable=False,fields=[db.details.current_year,db.details.name,db.details.cg,db.details.college,db.details.myid],links=[lambda row:A(\'Download Resume\',_href=URL(\'default\',\'mypdf3\',args=[row.myid]))],csv=False)\n    #grid=SQLFORM.smartgrid(db.details,linked_tables=[\'project\'],editable=False,create=False,deletable=False,fields=[db.details.current_year,db.details.name,db.details.cg,db.details.college,db.project.org])\n    return dict(grid=grid)\n\n\n@auth.requires_login()\n@auth.requires_membership(\'Student\')\ndef add_achievement():\n    form=SQLFORM(db.achievements)\n    form.vars.myid=auth.user_id\n    if form.accepts(request.vars,session):\n        redirect(URL(index))\n    #else:\n     #   response.flash=\'Error(s) in filling form\'\n    return dict(form=form)\n    \ndef single_company_msg():\n    raq=db((int(request.args(0))==int(db.msg.senderid)) & (db.msg.name == auth.user_id)).select(db.msg.msg_date,db.msg.sub,db.msg.msg)\n    print raq\n    #for msg in dict_companies[i]:\n        #print \'hi!\'\n    return dict(r=raq)   \n    \ndef mypdf():\n    r=db(auth.user_id==db.details.myid).select()\n    s=db(auth.user_id==db.project.myid).select()\n    t=db(auth.user_id==db.achievements.myid).select()\n    u=db(db.auth_user.id==auth.user_id).select(db.auth_user.email)\n    from gluon.contrib.pyfpdf import FPDF, HTMLMixin\n    pdf=FPDF()\n    pdf.add_page()\n    pdf.set_font(\'Arial\',\'BU\',40)\n    #pdf.cell(w=60,h=10,txt="",border=2,align=\'L\',fill=\'0\')\n    pdf.set_text_color(100,0,100)\n    pdf.cell(w=80,h=30,txt="Curriculum Vitae",ln=2,border=2,align=\'L\',fill=\'0\')\n    pdf.set_text_color(0,0,0)\n    pdf.set_font(\'Arial\',\'BU\',30)\n    pdf.set_text_color(0,0,100)\n    pdf.cell(w=80,h=30,txt="Biodata",ln=1,border=2,align=\'L\',fill=\'0\')\n    pdf.set_font(\'Arial\',\'\',15)\n    pdf.set_text_color(0,0,0)\n    pdf.cell(w=60,h=10,txt="Name  :",border=2,align=\'L\',fill=\'0\')\n    pdf.cell(w=60,h=10,txt=r[0].name,ln=1,border=2,align=\'L\',fill=\'0\')\n    \n    \n    \n    pdf.set_text_color(0,0,0)\n    pdf.cell(w=60,h=10,txt="Current Year  :",border=2,align=\'L\',fill=\'0\')\n    pdf.cell(w=60,h=10,txt=r[0].current_year,border=2,ln=1,align=\'L\',fill=\'0\')\n    pdf.cell(w=60,h=10,txt="CGPA  :",border=2,align=\'L\',fill=\'0\')\n    pdf.cell(w=60,h=10,txt=str(r[0].cg),ln=1,border=2,align=\'L\',fill=\'0\')\n    pdf.cell(w=60,h=10,txt="College  :",border=2,align=\'L\',fill=\'0\')\n    pdf.cell(w=60,h=10,txt=r[0].college,border=2,ln=1,align=\'L\',fill=\'0\')\n    pdf.cell(w=60,h=10,txt="Branch  :",border=2,align=\'L\',fill=\'0\')\n    pdf.cell(w=60,h=10,txt=r[0].branch,border=2,ln=1,align=\'L\',fill=\'0\')\n    \n    pdf.set_text_color(0,0,0)  \n     \n    #pdf.cell(w=60,h=10,txt="",ln=1,border=2,align=\'L\',fill=\'0\')\n    #pdf.cell(w=60,h=10,txt="",ln=1,border=2,align=\'L\',fill=\'0\')\n    #pdf.cell(w=60,h=10,txt="",ln=1,border=2,align=\'L\',fill=\'0\')\n    pdf.cell(w=60,h=10,txt="",ln=1,border=2,align=\'L\',fill=\'0\')\n    pdf.set_font(\'Arial\',\'BU\',30)\n    pdf.set_text_color(0,0,100)\n    if len(s) != 0:\n        pdf.cell(w=60,h=10,txt="Projects/Interns    ",border=2,align=\'L\',fill=\'0\')\n        pdf.cell(w=60,h=10,txt="                                          ",ln=1,border=2,align=\'L\',fill=\'0\')\n    pdf.set_text_color(0,0,0)\n    for i in s:\n        pdf.set_font(\'Arial\',\'BI\',20)\n        pdf.cell(w=60,h=10,txt=i.name,ln=1,border=2,align=\'L\',fill=\'0\')\n        pdf.set_font(\'Arial\',\'\',15)\n        pdf.cell(w=60,h=10,txt="",ln=1,border=2,align=\'L\',fill=\'0\')\n        pdf.cell(w=60,h=10,txt="Mentor  :",border=2,align=\'L\',fill=\'0\')\n        pdf.cell(w=60,h=10,txt=i.mentor,ln=1,border=2,align=\'L\',fill=\'0\')\n        pdf.cell(w=60,h=10,txt="Organistion  :",border=2,align=\'L\',fill=\'0\')\n        pdf.cell(w=60,h=10,txt=i.org,ln=1,border=2,align=\'L\',fill=\'0\')\n        pdf.cell(w=60,h=10,txt="Description  :",border=2,align=\'L\',fill=\'0\')\n        pdf.cell(w=60,h=10,txt=i.Description,ln=1,border=2,align=\'L\',fill=\'3\')\n        pdf.cell(w=60,h=10,txt="Skills Used  :",border=2,align=\'L\',fill=\'0\')\n        pdf.cell(w=60,h=10,txt=i.skills_used,ln=1,border=2,align=\'L\',fill=\'3\')\n        pdf.cell(w=60,h=10,txt="",ln=1,border=2,align=\'L\',fill=\'0\')\n        #pdf.cell(w=60,h=10,txt="",ln=1,border=2,align=\'L\',fill=\'0\')\n    pdf.set_font(\'Arial\',\'BU\',30)\n    pdf.set_text_color(0,0,100)\n    if len(s) != 0:\n        pdf.cell(w=60,h=10,txt="Achievements    ",border=2,align=\'L\',fill=\'0\')\n        pdf.cell(w=60,h=10,txt="                                          ",ln=1,border=2,align=\'L\',fill=\'0\')\n    pdf.set_text_color(0,0,0)\n    for i in t:\n        pdf.set_font(\'Arial\',\'\',15)\n        pdf.cell(w=60,h=10,txt=i.what,ln=1,border=2,align=\'L\',fill=\'0\')\n    pdf.cell(w=60,h=10,txt="",ln=1,border=2,align=\'L\',fill=\'0\')\n    pdf.cell(w=60,h=10,txt="",ln=1,border=2,align=\'L\',fill=\'0\')\n    pdf.cell(w=60,h=10,txt="",ln=1,border=2,align=\'L\',fill=\'0\')\n    pdf.set_font(\'Arial\',\'BU\',30)\n    pdf.set_text_color(0,0,100)\n    pdf.cell(w=60,h=10,txt="Contact Details",ln=1,border=2,align=\'L\',fill=\'0\')\n    pdf.cell(w=60,h=10,txt="",ln=1,border=2,align=\'L\',fill=\'0\')\n    pdf.set_text_color(0,0,0)\n    pdf.set_font(\'Arial\',\'\',15)\n    #pdf.cell(w=40,h=10,txt="Email  :",border=2,align=\'L\',fill=\'0\')\n    pdf.cell(w=60,h=10,txt=u[0].email,ln=1,border=2,align=\'L\',fill=\'0\')\n    #pdf.cell(w=40,h=10,txt="Address  :",border=2,align=\'L\',fill=\'0\')\n    #pdf.cell(w=60,h=10,txt="",border=2,align=\'L\',fill=\'0\')\n    pdf.cell(w=60,h=10,txt=r[0].address+\', \',border=2,ln=1,align=\'L\',fill=\'0\')\n    #pdf.cell(w=60,h=10,txt="",border=2,align=\'L\',fill=\'0\')\n    pdf.cell(w=60,h=10,txt=r[0].city+\', \'+r[0].cstate,border=2,ln=1,align=\'L\',fill=\'0\')\n    #pdf.cell(w=60,h=10,txt="",border=2,align=\'L\',fill=\'0\')\n    #pdf.cell(w=60,h=10,txt=r[0].cstate,border=2,ln=1,align=\'L\',fill=\'0\')\n    response.headers[\'Content-Type\']=\'application/pdf\'\n    return pdf.output(dest="S")\n    \n#----------------------------------------------------------------------------------------------\n#----------------------------------------------------------------------------------------------\n    \ndef mypdf1():\n    r=db(auth.user_id==db.details.myid).select()\n    s=db(auth.user_id==db.project.myid).select()\n    t=db(auth.user_id==db.achievements.myid).select()\n    u=db(db.auth_user.id==auth.user_id).select(db.auth_user.email)\n    from gluon.contrib.pyfpdf import FPDF, HTMLMixin\n    pdf=FPDF()\n    pdf.add_page()\n    pdf.set_font(\'Arial\',\'BU\',40)\n    pdf.set_text_color(0,0,0)\n    pdf.cell(w=50,h=10,txt="",border=2,align=\'L\',fill=\'0\')\n    pdf.set_font(\'Arial\',\'BU\',40)\n    pdf.set_text_color(0,0,100)\n    pdf.cell(w=80,h=30,txt=r[0].name,ln=1,border=2,align=\'C\',fill=\'0\')\n    pdf.set_font(\'Arial\',\'\',10)\n    pdf.set_text_color(0,0,0)\n    pdf.cell(w=60,h=10,txt="",border=2,align=\'L\',fill=\'0\')\n    pdf.cell(w=60,h=10,txt=u[0].email,ln=1,border=2,align=\'C\',fill=\'0\')\n    pdf.cell(w=60,h=10,txt="",border=2,align=\'L\',fill=\'0\')\n    pdf.cell(w=60,h=10,txt=r[0].address+\', \'+r[0].city+\', \'+r[0].cstate,ln=1,border=2,align=\'C\',fill=\'0\')\n    pdf.set_text_color(0,0,100)\n    pdf.set_font(\'Arial\',\'BU\',30)\n    pdf.cell(w=60,h=10,txt="Education    ",border=2,align=\'L\',fill=\'0\')\n    pdf.cell(w=60,h=10,txt="                                          ",ln=1,border=2,align=\'L\',fill=\'0\')\n    pdf.cell(w=60,h=10,txt="",ln=1,border=2,align=\'L\',fill=\'0\')\n    pdf.set_text_color(0,0,0)\n    pdf.set_font(\'Arial\',\'\',15)\n    pdf.cell(w=20,h=10,txt="",border=2,align=\'L\',fill=\'0\')\n    pdf.cell(w=60,h=10,txt="Current Year  :",border=2,align=\'L\',fill=\'0\')\n    pdf.cell(w=60,h=10,txt=r[0].current_year,border=2,ln=1,align=\'L\',fill=\'0\')\n    pdf.cell(w=20,h=10,txt="",border=2,align=\'L\',fill=\'0\')\n    pdf.cell(w=60,h=10,txt="CGPA  :",border=2,align=\'L\',fill=\'0\')\n    pdf.cell(w=60,h=10,txt=str(r[0].cg),ln=1,border=2,align=\'L\',fill=\'0\')\n    pdf.cell(w=20,h=10,txt="",border=2,align=\'L\',fill=\'0\')\n    pdf.cell(w=60,h=10,txt="College  :",border=2,align=\'L\',fill=\'0\')\n    pdf.cell(w=60,h=10,txt=r[0].college,border=2,ln=1,align=\'L\',fill=\'0\')\n    pdf.cell(w=20,h=10,txt="",border=2,align=\'L\',fill=\'0\')\n    pdf.cell(w=60,h=10,txt="Branch  :",border=2,align=\'L\',fill=\'0\')\n    pdf.cell(w=60,h=10,txt=r[0].branch,border=2,align=\'L\',fill=\'0\')\n    \n    pdf.set_text_color(0,0,0)  \n     \n    pdf.cell(w=60,h=10,txt="",border=2,align=\'L\',fill=\'0\')\n    pdf.cell(w=60,h=10,txt="",border=2,align=\'L\',fill=\'0\')\n    pdf.cell(w=60,h=10,txt="",ln=1,border=2,align=\'L\',fill=\'0\')\n    pdf.cell(w=60,h=10,txt="",ln=1,border=2,align=\'L\',fill=\'0\')\n    pdf.set_text_color(0,0,100)\n    pdf.set_font(\'Arial\',\'BU\',30)\n    if len(s) != 0:\n        pdf.cell(w=60,h=10,txt="Projects/Interns    ",border=2,align=\'L\',fill=\'0\')\n        pdf.cell(w=60,h=10,txt="                                          ",ln=1,border=2,align=\'L\',fill=\'0\')\n    pdf.cell(w=60,h=10,txt="",ln=1,border=2,align=\'L\',fill=\'0\')\n    pdf.set_text_color(0,0,0)\n    for i in s:\n        pdf.set_font(\'Arial\',\'BI\',20)\n        pdf.cell(w=60,h=10,txt=i.name.capitalize(),ln=1,border=2,align=\'L\',fill=\'0\')\n        pdf.set_font(\'Arial\',\'\',15)\n        pdf.cell(w=60,h=10,txt="",ln=1,border=2,align=\'L\',fill=\'0\')\n        pdf.cell(w=20,h=10,txt="",border=2,align=\'L\',fill=\'0\')\n        pdf.cell(w=40,h=10,txt="Mentor  :",border=2,align=\'L\',fill=\'0\')\n        pdf.cell(w=60,h=10,txt=i.mentor,ln=1,border=2,align=\'L\',fill=\'0\')\n        pdf.cell(w=20,h=10,txt="",border=2,align=\'L\',fill=\'0\')\n        pdf.cell(w=40,h=10,txt="Organistion  :",border=2,align=\'L\',fill=\'0\')\n        pdf.cell(w=60,h=10,txt=i.org,ln=1,border=2,align=\'L\',fill=\'0\')\n        pdf.cell(w=20,h=10,txt="",border=2,align=\'L\',fill=\'0\')\n        pdf.cell(w=40,h=10,txt="Description  :",border=2,align=\'L\',fill=\'0\')\n        pdf.cell(w=60,h=10,txt=i.Description,ln=1,border=2,align=\'L\',fill=\'3\')\n        pdf.cell(w=20,h=10,txt="",border=2,align=\'L\',fill=\'0\')\n        pdf.cell(w=40,h=10,txt="Skills Used  :",border=2,align=\'L\',fill=\'0\')\n        pdf.cell(w=60,h=10,txt=i.skills_used,ln=1,border=2,align=\'L\',fill=\'3\')\n        pdf.cell(w=60,h=10,txt="",ln=1,border=2,align=\'L\',fill=\'0\')\n        pdf.cell(w=60,h=10,txt="",ln=1,border=2,align=\'L\',fill=\'0\')\n    pdf.set_font(\'Arial\',\'BU\',30)\n    pdf.set_text_color(0,0,100)\n    pdf.set_font(\'Arial\',\'BU\',30)\n    if len(s) != 0:\n        pdf.cell(w=60,h=10,txt="Achievements    ",border=2,align=\'L\',fill=\'0\')\n        pdf.cell(w=60,h=10,txt="                                          ",ln=1,border=2,align=\'L\',fill=\'0\')\n    pdf.set_text_color(0,0,0)\n    for i in t:\n        pdf.set_font(\'Arial\',\'\',15)\n        pdf.cell(w=60,h=10,txt="               "+i.what,ln=1,border=2,align=\'L\',fill=\'0\')\n\n    response.headers[\'Content-Type\']=\'application/pdf\'\n    return pdf.output(dest="S")\n\n\ndef pdf1():\n    r=db(auth.user_id==db.details.myid).select()\n    return dict(r=r)\n\n@auth.requires_login()\n@auth.requires_membership(\'Organisation\')\ndef mypdf3():\n    \n    r=db(request.args[0]==db.details.myid).select()\n    s=db(request.args[0]==db.project.myid).select()\n    t=db(request.args[0]==db.achievements.myid).select()\n    u=db(db.auth_user.id==request.args[0]).select(db.auth_user.email)\n    from gluon.contrib.pyfpdf import FPDF, HTMLMixin\n    pdf=FPDF()\n    pdf.add_page()\n    pdf.set_font(\'Arial\',\'BU\',40)\n    #pdf.cell(w=60,h=10,txt="",border=2,align=\'L\',fill=\'0\')\n    pdf.set_text_color(100,0,100)\n    pdf.cell(w=80,h=30,txt="Curriculum Vitae",ln=2,border=2,align=\'L\',fill=\'0\')\n    pdf.set_text_color(0,0,0)\n    pdf.set_font(\'Arial\',\'BU\',30)\n    pdf.set_text_color(0,0,100)\n    pdf.cell(w=80,h=30,txt="Biodata",ln=1,border=2,align=\'L\',fill=\'0\')\n    pdf.set_font(\'Arial\',\'\',15)\n    pdf.set_text_color(0,0,0)\n    pdf.cell(w=60,h=10,txt="Name  :",border=2,align=\'L\',fill=\'0\')\n    pdf.cell(w=60,h=10,txt=r[0].name,ln=1,border=2,align=\'L\',fill=\'0\')\n    \n    \n    \n    pdf.set_text_color(0,0,0)\n    pdf.cell(w=60,h=10,txt="Current Year  :",border=2,align=\'L\',fill=\'0\')\n    pdf.cell(w=60,h=10,txt=r[0].current_year,border=2,ln=1,align=\'L\',fill=\'0\')\n    pdf.cell(w=60,h=10,txt="CGPA  :",border=2,align=\'L\',fill=\'0\')\n    pdf.cell(w=60,h=10,txt=str(r[0].cg),ln=1,border=2,align=\'L\',fill=\'0\')\n    pdf.cell(w=60,h=10,txt="College  :",border=2,align=\'L\',fill=\'0\')\n    pdf.cell(w=60,h=10,txt=r[0].college,border=2,ln=1,align=\'L\',fill=\'0\')\n    pdf.cell(w=60,h=10,txt="Branch  :",border=2,align=\'L\',fill=\'0\')\n    pdf.cell(w=60,h=10,txt=r[0].branch,border=2,ln=1,align=\'L\',fill=\'0\')\n    \n    pdf.set_text_color(0,0,0)  \n     \n    #pdf.cell(w=60,h=10,txt="",ln=1,border=2,align=\'L\',fill=\'0\')\n    #pdf.cell(w=60,h=10,txt="",ln=1,border=2,align=\'L\',fill=\'0\')\n    #pdf.cell(w=60,h=10,txt="",ln=1,border=2,align=\'L\',fill=\'0\')\n    pdf.cell(w=60,h=10,txt="",ln=1,border=2,align=\'L\',fill=\'0\')\n    pdf.set_font(\'Arial\',\'BU\',30)\n    pdf.set_text_color(0,0,100)\n    if len(s) != 0:\n        pdf.cell(w=60,h=10,txt="Projects/Interns    ",border=2,align=\'L\',fill=\'0\')\n        pdf.cell(w=60,h=10,txt="                                          ",ln=1,border=2,align=\'L\',fill=\'0\')\n    pdf.set_text_color(0,0,0)\n    for i in s:\n        pdf.set_font(\'Arial\',\'BI\',20)\n        pdf.cell(w=60,h=10,txt=i.name,ln=1,border=2,align=\'L\',fill=\'0\')\n        pdf.set_font(\'Arial\',\'\',15)\n        pdf.cell(w=60,h=10,txt="",ln=1,border=2,align=\'L\',fill=\'0\')\n        pdf.cell(w=60,h=10,txt="Mentor  :",border=2,align=\'L\',fill=\'0\')\n        pdf.cell(w=60,h=10,txt=i.mentor,ln=1,border=2,align=\'L\',fill=\'0\')\n        pdf.cell(w=60,h=10,txt="Organistion  :",border=2,align=\'L\',fill=\'0\')\n        pdf.cell(w=60,h=10,txt=i.org,ln=1,border=2,align=\'L\',fill=\'0\')\n        pdf.cell(w=60,h=10,txt="Description  :",border=2,align=\'L\',fill=\'0\')\n        pdf.cell(w=60,h=10,txt=i.Description,ln=1,border=2,align=\'L\',fill=\'3\')\n        pdf.cell(w=60,h=10,txt="Skills Used  :",border=2,align=\'L\',fill=\'0\')\n        pdf.cell(w=60,h=10,txt=i.skills_used,ln=1,border=2,align=\'L\',fill=\'3\')\n        pdf.cell(w=60,h=10,txt="",ln=1,border=2,align=\'L\',fill=\'0\')\n        #pdf.cell(w=60,h=10,txt="",ln=1,border=2,align=\'L\',fill=\'0\')\n    pdf.set_font(\'Arial\',\'BU\',30)\n    pdf.set_text_color(0,0,100)\n    if len(s) != 0:\n        pdf.cell(w=60,h=10,txt="Achievements    ",border=2,align=\'L\',fill=\'0\')\n        pdf.cell(w=60,h=10,txt="                                          ",ln=1,border=2,align=\'L\',fill=\'0\')\n    pdf.set_text_color(0,0,0)\n    for i in t:\n        pdf.set_font(\'Arial\',\'\',15)\n        pdf.cell(w=60,h=10,txt=i.what,ln=1,border=2,align=\'L\',fill=\'0\')\n    pdf.cell(w=60,h=10,txt="",ln=1,border=2,align=\'L\',fill=\'0\')\n    pdf.cell(w=60,h=10,txt="",ln=1,border=2,align=\'L\',fill=\'0\')\n    pdf.cell(w=60,h=10,txt="",ln=1,border=2,align=\'L\',fill=\'0\')\n    pdf.set_font(\'Arial\',\'BU\',30)\n    pdf.set_text_color(0,0,100)\n    pdf.cell(w=60,h=10,txt="Contact Details",ln=1,border=2,align=\'L\',fill=\'0\')\n    pdf.cell(w=60,h=10,txt="",ln=1,border=2,align=\'L\',fill=\'0\')\n    pdf.set_text_color(0,0,0)\n    pdf.set_font(\'Arial\',\'\',15)\n    #pdf.cell(w=40,h=10,txt="Email  :",border=2,align=\'L\',fill=\'0\')\n    pdf.cell(w=60,h=10,txt=u[0].email,ln=1,border=2,align=\'L\',fill=\'0\')\n    #pdf.cell(w=40,h=10,txt="Address  :",border=2,align=\'L\',fill=\'0\')\n    #pdf.cell(w=60,h=10,txt="",border=2,align=\'L\',fill=\'0\')\n    pdf.cell(w=60,h=10,txt=r[0].address+\', \',border=2,ln=1,align=\'L\',fill=\'0\')\n    #pdf.cell(w=60,h=10,txt="",border=2,align=\'L\',fill=\'0\')\n    pdf.cell(w=60,h=10,txt=r[0].city+\', \'+r[0].cstate,border=2,ln=1,align=\'L\',fill=\'0\')\n    #pdf.cell(w=60,h=10,txt="",border=2,align=\'L\',fill=\'0\')\n    #pdf.cell(w=60,h=10,txt=r[0].cstate,border=2,ln=1,align=\'L\',fill=\'0\')\n  \n    response.headers[\'Content-Type\']=\'application/pdf\'\n    return pdf.output(dest="S")\n\nresponse._vars=response._caller(single_company_msg)\n'
p7
sS'snapshot'
p8
(dp9
S'exception'
p10
(dp11
S'__hash__'
p12
S"<method-wrapper '__hash__' of exceptions.TypeError object>"
p13
sS'__setattr__'
p14
S"<method-wrapper '__setattr__' of exceptions.TypeError object>"
p15
sS'__reduce_ex__'
p16
S'<built-in method __reduce_ex__ of exceptions.TypeError object>'
p17
sS'__getslice__'
p18
S"<method-wrapper '__getslice__' of exceptions.TypeError object>"
p19
sS'__getitem__'
p20
S"<method-wrapper '__getitem__' of exceptions.TypeError object>"
p21
sS'__setstate__'
p22
S'<built-in method __setstate__ of exceptions.TypeError object>'
p23
sS'__reduce__'
p24
S'<built-in method __reduce__ of exceptions.TypeError object>'
p25
sS'__str__'
p26
S"<method-wrapper '__str__' of exceptions.TypeError object>"
p27
sS'__format__'
p28
S'<built-in method __format__ of exceptions.TypeError object>'
p29
sS'__getattribute__'
p30
S"<method-wrapper '__getattribute__' of exceptions.TypeError object>"
p31
sS'__class__'
p32
S"<type 'exceptions.TypeError'>"
p33
sS'__unicode__'
p34
S'<built-in method __unicode__ of exceptions.TypeError object>'
p35
sS'__delattr__'
p36
S"<method-wrapper '__delattr__' of exceptions.TypeError object>"
p37
sS'__subclasshook__'
p38
S'<built-in method __subclasshook__ of type object>'
p39
sS'__repr__'
p40
S"<method-wrapper '__repr__' of exceptions.TypeError object>"
p41
sS'args'
p42
S'("int() argument must be a string or a number, not \'Field\'",)'
p43
sS'__dict__'
p44
S'{}'
p45
sS'__sizeof__'
p46
S'<built-in method __sizeof__ of exceptions.TypeError object>'
p47
sS'__doc__'
p48
S"'Inappropriate argument type.'"
p49
sS'__init__'
p50
S"<method-wrapper '__init__' of exceptions.TypeError object>"
p51
sS'__new__'
p52
S'<built-in method __new__ of type object>'
p53
ssS'evalue'
p54
S"int() argument must be a string or a number, not 'Field'"
p55
sS'request'
p56
ccopy_reg
_reconstructor
p57
(cgluon.html
BEAUTIFY
p58
c__builtin__
object
p59
NtRp60
(dp61
S'attributes'
p62
(dp63
sS'components'
p64
(lp65
g57
(cgluon.html
TABLE
p66
g59
NtRp67
(dp68
g62
(dp69
S'level'
p70
I5
ssS'parent'
p71
Nsg64
(lp72
g57
(cgluon.html
TR
p73
g59
NtRp74
(dp75
g62
(dp76
sg71
g67
sg64
(lp77
g57
(cgluon.html
TD
p78
g59
NtRp79
(dp80
g62
(dp81
S'_style'
p82
S'font-weight:bold;vertical-align:top'
p83
ssg71
g74
sg64
(lp84
S'ajax'
p85
asbag57
(g78
g59
NtRp86
(dp87
g62
(dp88
S'_valign'
p89
S'top'
p90
ssg71
g74
sg64
(lp91
S':'
asbag57
(g78
g59
NtRp92
(dp93
g62
(dp94
sg71
g74
sg64
(lp95
g57
(g58
g59
NtRp96
(dp97
g62
(dp98
g70
I5
ssg71
g92
sg64
(lp99
S'False'
p100
asbasbasbag57
(g73
g59
NtRp101
(dp102
g62
(dp103
sg71
g67
sg64
(lp104
g57
(g78
g59
NtRp105
(dp106
g62
(dp107
g82
g83
ssg71
g101
sg64
(lp108
S'application'
p109
asbag57
(g78
g59
NtRp110
(dp111
g62
(dp112
g89
g90
ssg71
g101
sg64
(lp113
S':'
asbag57
(g78
g59
NtRp114
(dp115
g62
(dp116
sg71
g101
sg64
(lp117
g57
(g58
g59
NtRp118
(dp119
g62
(dp120
g70
I5
ssg71
g114
sg64
(lp121
S'backimg'
p122
asbasbasbag57
(g73
g59
NtRp123
(dp124
g62
(dp125
sg71
g67
sg64
(lp126
g57
(g78
g59
NtRp127
(dp128
g62
(dp129
g82
g83
ssg71
g123
sg64
(lp130
g42
asbag57
(g78
g59
NtRp131
(dp132
g62
(dp133
g89
g90
ssg71
g123
sg64
(lp134
S':'
asbag57
(g78
g59
NtRp135
(dp136
g62
(dp137
sg71
g123
sg64
(lp138
g57
(g58
g59
NtRp139
(dp140
g62
(dp141
g70
I5
ssg71
g135
sg64
(lp142
g57
(g66
g59
NtRp143
(dp144
g62
(dp145
g70
I4
ssg71
Nsg64
(lp146
g57
(g73
g59
NtRp147
(dp148
g62
(dp149
sg71
g143
sg64
(lp150
g57
(g78
g59
NtRp151
(dp152
g62
(dp153
sg71
g147
sg64
(lp154
g57
(g58
g59
NtRp155
(dp156
g62
(dp157
g70
I4
ssg71
g151
sg64
(lp158
S'2'
asbasbasbasbasbasbasbag57
(g73
g59
NtRp159
(dp160
g62
(dp161
sg71
g67
sg64
(lp162
g57
(g78
g59
NtRp163
(dp164
g62
(dp165
g82
g83
ssg71
g159
sg64
(lp166
S'body'
p167
asbag57
(g78
g59
NtRp168
(dp169
g62
(dp170
g89
g90
ssg71
g159
sg64
(lp171
S':'
asbag57
(g78
g59
NtRp172
(dp173
g62
(dp174
sg71
g159
sg64
(lp175
g57
(g58
g59
NtRp176
(dp177
g62
(dp178
g70
I5
ssg71
g172
sg64
(lp179
S'<cStringIO.StringO object at 0xaf5c6920>'
p180
asbasbasbag57
(g73
g59
NtRp181
(dp182
g62
(dp183
sg71
g67
sg64
(lp184
g57
(g78
g59
NtRp185
(dp186
g62
(dp187
g82
g83
ssg71
g181
sg64
(lp188
S'cid'
p189
asbag57
(g78
g59
NtRp190
(dp191
g62
(dp192
g89
g90
ssg71
g181
sg64
(lp193
S':'
asbag57
(g78
g59
NtRp194
(dp195
g62
(dp196
sg71
g181
sg64
(lp197
g57
(g58
g59
NtRp198
(dp199
g62
(dp200
g70
I5
ssg71
g194
sg64
(lp201
S'None'
p202
asbasbasbag57
(g73
g59
NtRp203
(dp204
g62
(dp205
sg71
g67
sg64
(lp206
g57
(g78
g59
NtRp207
(dp208
g62
(dp209
g82
g83
ssg71
g203
sg64
(lp210
S'client'
p211
asbag57
(g78
g59
NtRp212
(dp213
g62
(dp214
g89
g90
ssg71
g203
sg64
(lp215
S':'
asbag57
(g78
g59
NtRp216
(dp217
g62
(dp218
sg71
g203
sg64
(lp219
g57
(g58
g59
NtRp220
(dp221
g62
(dp222
g70
I5
ssg71
g216
sg64
(lp223
S'127.0.0.1'
p224
asbasbasbag57
(g73
g59
NtRp225
(dp226
g62
(dp227
sg71
g67
sg64
(lp228
g57
(g78
g59
NtRp229
(dp230
g62
(dp231
g82
g83
ssg71
g225
sg64
(lp232
S'controller'
p233
asbag57
(g78
g59
NtRp234
(dp235
g62
(dp236
g89
g90
ssg71
g225
sg64
(lp237
S':'
asbag57
(g78
g59
NtRp238
(dp239
g62
(dp240
sg71
g225
sg64
(lp241
g57
(g58
g59
NtRp242
(dp243
g62
(dp244
g70
I5
ssg71
g238
sg64
(lp245
S'default'
p246
asbasbasbag57
(g73
g59
NtRp247
(dp248
g62
(dp249
sg71
g67
sg64
(lp250
g57
(g78
g59
NtRp251
(dp252
g62
(dp253
g82
g83
ssg71
g247
sg64
(lp254
S'cookies'
p255
asbag57
(g78
g59
NtRp256
(dp257
g62
(dp258
g89
g90
ssg71
g247
sg64
(lp259
S':'
asbag57
(g78
g59
NtRp260
(dp261
g62
(dp262
sg71
g247
sg64
(lp263
g57
(g58
g59
NtRp264
(dp265
g62
(dp266
g70
I5
ssg71
g260
sg64
(lp267
g57
(g66
g59
NtRp268
(dp269
g62
(dp270
g70
I4
ssg71
Nsg64
(lp271
g57
(g73
g59
NtRp272
(dp273
g62
(dp274
sg71
g268
sg64
(lp275
g57
(g78
g59
NtRp276
(dp277
g62
(dp278
g82
g83
ssg71
g272
sg64
(lp279
S'session_id_admin'
p280
asbag57
(g78
g59
NtRp281
(dp282
g62
(dp283
g89
g90
ssg71
g272
sg64
(lp284
S':'
asbag57
(g78
g59
NtRp285
(dp286
g62
(dp287
sg71
g272
sg64
(lp288
g57
(g58
g59
NtRp289
(dp290
g62
(dp291
g70
I4
ssg71
g285
sg64
(lp292
S'127.0.0.1-d8499d8b-4f3a-4ee5-a081-5f93717a670d'
p293
ag57
(g66
g59
NtRp294
(dp295
g62
(dp296
g70
I3
ssg71
Nsg64
(lp297
g57
(g73
g59
NtRp298
(dp299
g62
(dp300
sg71
g294
sg64
(lp301
g57
(g78
g59
NtRp302
(dp303
g62
(dp304
g82
g83
ssg71
g298
sg64
(lp305
S'comment'
p306
asbag57
(g78
g59
NtRp307
(dp308
g62
(dp309
g89
g90
ssg71
g298
sg64
(lp310
S':'
asbag57
(g78
g59
NtRp311
(dp312
g62
(dp313
sg71
g298
sg64
(lp314
g57
(g58
g59
NtRp315
(dp316
g62
(dp317
g70
I3
ssg71
g311
sg64
(lp318
S''
asbasbasbag57
(g73
g59
NtRp319
(dp320
g62
(dp321
sg71
g294
sg64
(lp322
g57
(g78
g59
NtRp323
(dp324
g62
(dp325
g82
g83
ssg71
g319
sg64
(lp326
S'domain'
p327
asbag57
(g78
g59
NtRp328
(dp329
g62
(dp330
g89
g90
ssg71
g319
sg64
(lp331
S':'
asbag57
(g78
g59
NtRp332
(dp333
g62
(dp334
sg71
g319
sg64
(lp335
g57
(g58
g59
NtRp336
(dp337
g62
(dp338
g70
I3
ssg71
g332
sg64
(lp339
S''
asbasbasbag57
(g73
g59
NtRp340
(dp341
g62
(dp342
sg71
g294
sg64
(lp343
g57
(g78
g59
NtRp344
(dp345
g62
(dp346
g82
g83
ssg71
g340
sg64
(lp347
S'expires'
p348
asbag57
(g78
g59
NtRp349
(dp350
g62
(dp351
g89
g90
ssg71
g340
sg64
(lp352
S':'
asbag57
(g78
g59
NtRp353
(dp354
g62
(dp355
sg71
g340
sg64
(lp356
g57
(g58
g59
NtRp357
(dp358
g62
(dp359
g70
I3
ssg71
g353
sg64
(lp360
S''
asbasbasbag57
(g73
g59
NtRp361
(dp362
g62
(dp363
sg71
g294
sg64
(lp364
g57
(g78
g59
NtRp365
(dp366
g62
(dp367
g82
g83
ssg71
g361
sg64
(lp368
S'httponly'
p369
asbag57
(g78
g59
NtRp370
(dp371
g62
(dp372
g89
g90
ssg71
g361
sg64
(lp373
S':'
asbag57
(g78
g59
NtRp374
(dp375
g62
(dp376
sg71
g361
sg64
(lp377
g57
(g58
g59
NtRp378
(dp379
g62
(dp380
g70
I3
ssg71
g374
sg64
(lp381
S''
asbasbasbag57
(g73
g59
NtRp382
(dp383
g62
(dp384
sg71
g294
sg64
(lp385
g57
(g78
g59
NtRp386
(dp387
g62
(dp388
g82
g83
ssg71
g382
sg64
(lp389
S'max-age'
p390
asbag57
(g78
g59
NtRp391
(dp392
g62
(dp393
g89
g90
ssg71
g382
sg64
(lp394
S':'
asbag57
(g78
g59
NtRp395
(dp396
g62
(dp397
sg71
g382
sg64
(lp398
g57
(g58
g59
NtRp399
(dp400
g62
(dp401
g70
I3
ssg71
g395
sg64
(lp402
S''
asbasbasbag57
(g73
g59
NtRp403
(dp404
g62
(dp405
sg71
g294
sg64
(lp406
g57
(g78
g59
NtRp407
(dp408
g62
(dp409
g82
g83
ssg71
g403
sg64
(lp410
S'path'
p411
asbag57
(g78
g59
NtRp412
(dp413
g62
(dp414
g89
g90
ssg71
g403
sg64
(lp415
S':'
asbag57
(g78
g59
NtRp416
(dp417
g62
(dp418
sg71
g403
sg64
(lp419
g57
(g58
g59
NtRp420
(dp421
g62
(dp422
g70
I3
ssg71
g416
sg64
(lp423
S''
asbasbasbag57
(g73
g59
NtRp424
(dp425
g62
(dp426
sg71
g294
sg64
(lp427
g57
(g78
g59
NtRp428
(dp429
g62
(dp430
g82
g83
ssg71
g424
sg64
(lp431
S'secure'
p432
asbag57
(g78
g59
NtRp433
(dp434
g62
(dp435
g89
g90
ssg71
g424
sg64
(lp436
S':'
asbag57
(g78
g59
NtRp437
(dp438
g62
(dp439
sg71
g424
sg64
(lp440
g57
(g58
g59
NtRp441
(dp442
g62
(dp443
g70
I3
ssg71
g437
sg64
(lp444
S''
asbasbasbag57
(g73
g59
NtRp445
(dp446
g62
(dp447
sg71
g294
sg64
(lp448
g57
(g78
g59
NtRp449
(dp450
g62
(dp451
g82
g83
ssg71
g445
sg64
(lp452
S'version'
p453
asbag57
(g78
g59
NtRp454
(dp455
g62
(dp456
g89
g90
ssg71
g445
sg64
(lp457
S':'
asbag57
(g78
g59
NtRp458
(dp459
g62
(dp460
sg71
g445
sg64
(lp461
g57
(g58
g59
NtRp462
(dp463
g62
(dp464
g70
I3
ssg71
g458
sg64
(lp465
S''
asbasbasbasbasbasbasbag57
(g73
g59
NtRp466
(dp467
g62
(dp468
sg71
g268
sg64
(lp469
g57
(g78
g59
NtRp470
(dp471
g62
(dp472
g82
g83
ssg71
g466
sg64
(lp473
S'session_id_backimg'
p474
asbag57
(g78
g59
NtRp475
(dp476
g62
(dp477
g89
g90
ssg71
g466
sg64
(lp478
S':'
asbag57
(g78
g59
NtRp479
(dp480
g62
(dp481
sg71
g466
sg64
(lp482
g57
(g58
g59
NtRp483
(dp484
g62
(dp485
g70
I4
ssg71
g479
sg64
(lp486
S'127.0.0.1-510de37e-632d-4f80-b1c3-d8a3bf298387'
p487
ag57
(g66
g59
NtRp488
(dp489
g62
(dp490
g70
I3
ssg71
Nsg64
(lp491
g57
(g73
g59
NtRp492
(dp493
g62
(dp494
sg71
g488
sg64
(lp495
g57
(g78
g59
NtRp496
(dp497
g62
(dp498
g82
g83
ssg71
g492
sg64
(lp499
g306
asbag57
(g78
g59
NtRp500
(dp501
g62
(dp502
g89
g90
ssg71
g492
sg64
(lp503
S':'
asbag57
(g78
g59
NtRp504
(dp505
g62
(dp506
sg71
g492
sg64
(lp507
g57
(g58
g59
NtRp508
(dp509
g62
(dp510
g70
I3
ssg71
g504
sg64
(lp511
S''
asbasbasbag57
(g73
g59
NtRp512
(dp513
g62
(dp514
sg71
g488
sg64
(lp515
g57
(g78
g59
NtRp516
(dp517
g62
(dp518
g82
g83
ssg71
g512
sg64
(lp519
g327
asbag57
(g78
g59
NtRp520
(dp521
g62
(dp522
g89
g90
ssg71
g512
sg64
(lp523
S':'
asbag57
(g78
g59
NtRp524
(dp525
g62
(dp526
sg71
g512
sg64
(lp527
g57
(g58
g59
NtRp528
(dp529
g62
(dp530
g70
I3
ssg71
g524
sg64
(lp531
S''
asbasbasbag57
(g73
g59
NtRp532
(dp533
g62
(dp534
sg71
g488
sg64
(lp535
g57
(g78
g59
NtRp536
(dp537
g62
(dp538
g82
g83
ssg71
g532
sg64
(lp539
g348
asbag57
(g78
g59
NtRp540
(dp541
g62
(dp542
g89
g90
ssg71
g532
sg64
(lp543
S':'
asbag57
(g78
g59
NtRp544
(dp545
g62
(dp546
sg71
g532
sg64
(lp547
g57
(g58
g59
NtRp548
(dp549
g62
(dp550
g70
I3
ssg71
g544
sg64
(lp551
S''
asbasbasbag57
(g73
g59
NtRp552
(dp553
g62
(dp554
sg71
g488
sg64
(lp555
g57
(g78
g59
NtRp556
(dp557
g62
(dp558
g82
g83
ssg71
g552
sg64
(lp559
g369
asbag57
(g78
g59
NtRp560
(dp561
g62
(dp562
g89
g90
ssg71
g552
sg64
(lp563
S':'
asbag57
(g78
g59
NtRp564
(dp565
g62
(dp566
sg71
g552
sg64
(lp567
g57
(g58
g59
NtRp568
(dp569
g62
(dp570
g70
I3
ssg71
g564
sg64
(lp571
S''
asbasbasbag57
(g73
g59
NtRp572
(dp573
g62
(dp574
sg71
g488
sg64
(lp575
g57
(g78
g59
NtRp576
(dp577
g62
(dp578
g82
g83
ssg71
g572
sg64
(lp579
g390
asbag57
(g78
g59
NtRp580
(dp581
g62
(dp582
g89
g90
ssg71
g572
sg64
(lp583
S':'
asbag57
(g78
g59
NtRp584
(dp585
g62
(dp586
sg71
g572
sg64
(lp587
g57
(g58
g59
NtRp588
(dp589
g62
(dp590
g70
I3
ssg71
g584
sg64
(lp591
S''
asbasbasbag57
(g73
g59
NtRp592
(dp593
g62
(dp594
sg71
g488
sg64
(lp595
g57
(g78
g59
NtRp596
(dp597
g62
(dp598
g82
g83
ssg71
g592
sg64
(lp599
g411
asbag57
(g78
g59
NtRp600
(dp601
g62
(dp602
g89
g90
ssg71
g592
sg64
(lp603
S':'
asbag57
(g78
g59
NtRp604
(dp605
g62
(dp606
sg71
g592
sg64
(lp607
g57
(g58
g59
NtRp608
(dp609
g62
(dp610
g70
I3
ssg71
g604
sg64
(lp611
S''
asbasbasbag57
(g73
g59
NtRp612
(dp613
g62
(dp614
sg71
g488
sg64
(lp615
g57
(g78
g59
NtRp616
(dp617
g62
(dp618
g82
g83
ssg71
g612
sg64
(lp619
g432
asbag57
(g78
g59
NtRp620
(dp621
g62
(dp622
g89
g90
ssg71
g612
sg64
(lp623
S':'
asbag57
(g78
g59
NtRp624
(dp625
g62
(dp626
sg71
g612
sg64
(lp627
g57
(g58
g59
NtRp628
(dp629
g62
(dp630
g70
I3
ssg71
g624
sg64
(lp631
S''
asbasbasbag57
(g73
g59
NtRp632
(dp633
g62
(dp634
sg71
g488
sg64
(lp635
g57
(g78
g59
NtRp636
(dp637
g62
(dp638
g82
g83
ssg71
g632
sg64
(lp639
g453
asbag57
(g78
g59
NtRp640
(dp641
g62
(dp642
g89
g90
ssg71
g632
sg64
(lp643
S':'
asbag57
(g78
g59
NtRp644
(dp645
g62
(dp646
sg71
g632
sg64
(lp647
g57
(g58
g59
NtRp648
(dp649
g62
(dp650
g70
I3
ssg71
g644
sg64
(lp651
S''
asbasbasbasbasbasbasbag57
(g73
g59
NtRp652
(dp653
g62
(dp654
sg71
g268
sg64
(lp655
g57
(g78
g59
NtRp656
(dp657
g62
(dp658
g82
g83
ssg71
g652
sg64
(lp659
S'session_id_resume1'
p660
asbag57
(g78
g59
NtRp661
(dp662
g62
(dp663
g89
g90
ssg71
g652
sg64
(lp664
S':'
asbag57
(g78
g59
NtRp665
(dp666
g62
(dp667
sg71
g652
sg64
(lp668
g57
(g58
g59
NtRp669
(dp670
g62
(dp671
g70
I4
ssg71
g665
sg64
(lp672
S'127.0.0.1-5cabbee1-4f7f-4691-8820-683475549a85'
p673
ag57
(g66
g59
NtRp674
(dp675
g62
(dp676
g70
I3
ssg71
Nsg64
(lp677
g57
(g73
g59
NtRp678
(dp679
g62
(dp680
sg71
g674
sg64
(lp681
g57
(g78
g59
NtRp682
(dp683
g62
(dp684
g82
g83
ssg71
g678
sg64
(lp685
g306
asbag57
(g78
g59
NtRp686
(dp687
g62
(dp688
g89
g90
ssg71
g678
sg64
(lp689
S':'
asbag57
(g78
g59
NtRp690
(dp691
g62
(dp692
sg71
g678
sg64
(lp693
g57
(g58
g59
NtRp694
(dp695
g62
(dp696
g70
I3
ssg71
g690
sg64
(lp697
S''
asbasbasbag57
(g73
g59
NtRp698
(dp699
g62
(dp700
sg71
g674
sg64
(lp701
g57
(g78
g59
NtRp702
(dp703
g62
(dp704
g82
g83
ssg71
g698
sg64
(lp705
g327
asbag57
(g78
g59
NtRp706
(dp707
g62
(dp708
g89
g90
ssg71
g698
sg64
(lp709
S':'
asbag57
(g78
g59
NtRp710
(dp711
g62
(dp712
sg71
g698
sg64
(lp713
g57
(g58
g59
NtRp714
(dp715
g62
(dp716
g70
I3
ssg71
g710
sg64
(lp717
S''
asbasbasbag57
(g73
g59
NtRp718
(dp719
g62
(dp720
sg71
g674
sg64
(lp721
g57
(g78
g59
NtRp722
(dp723
g62
(dp724
g82
g83
ssg71
g718
sg64
(lp725
g348
asbag57
(g78
g59
NtRp726
(dp727
g62
(dp728
g89
g90
ssg71
g718
sg64
(lp729
S':'
asbag57
(g78
g59
NtRp730
(dp731
g62
(dp732
sg71
g718
sg64
(lp733
g57
(g58
g59
NtRp734
(dp735
g62
(dp736
g70
I3
ssg71
g730
sg64
(lp737
S''
asbasbasbag57
(g73
g59
NtRp738
(dp739
g62
(dp740
sg71
g674
sg64
(lp741
g57
(g78
g59
NtRp742
(dp743
g62
(dp744
g82
g83
ssg71
g738
sg64
(lp745
g369
asbag57
(g78
g59
NtRp746
(dp747
g62
(dp748
g89
g90
ssg71
g738
sg64
(lp749
S':'
asbag57
(g78
g59
NtRp750
(dp751
g62
(dp752
sg71
g738
sg64
(lp753
g57
(g58
g59
NtRp754
(dp755
g62
(dp756
g70
I3
ssg71
g750
sg64
(lp757
S''
asbasbasbag57
(g73
g59
NtRp758
(dp759
g62
(dp760
sg71
g674
sg64
(lp761
g57
(g78
g59
NtRp762
(dp763
g62
(dp764
g82
g83
ssg71
g758
sg64
(lp765
g390
asbag57
(g78
g59
NtRp766
(dp767
g62
(dp768
g89
g90
ssg71
g758
sg64
(lp769
S':'
asbag57
(g78
g59
NtRp770
(dp771
g62
(dp772
sg71
g758
sg64
(lp773
g57
(g58
g59
NtRp774
(dp775
g62
(dp776
g70
I3
ssg71
g770
sg64
(lp777
S''
asbasbasbag57
(g73
g59
NtRp778
(dp779
g62
(dp780
sg71
g674
sg64
(lp781
g57
(g78
g59
NtRp782
(dp783
g62
(dp784
g82
g83
ssg71
g778
sg64
(lp785
g411
asbag57
(g78
g59
NtRp786
(dp787
g62
(dp788
g89
g90
ssg71
g778
sg64
(lp789
S':'
asbag57
(g78
g59
NtRp790
(dp791
g62
(dp792
sg71
g778
sg64
(lp793
g57
(g58
g59
NtRp794
(dp795
g62
(dp796
g70
I3
ssg71
g790
sg64
(lp797
S''
asbasbasbag57
(g73
g59
NtRp798
(dp799
g62
(dp800
sg71
g674
sg64
(lp801
g57
(g78
g59
NtRp802
(dp803
g62
(dp804
g82
g83
ssg71
g798
sg64
(lp805
g432
asbag57
(g78
g59
NtRp806
(dp807
g62
(dp808
g89
g90
ssg71
g798
sg64
(lp809
S':'
asbag57
(g78
g59
NtRp810
(dp811
g62
(dp812
sg71
g798
sg64
(lp813
g57
(g58
g59
NtRp814
(dp815
g62
(dp816
g70
I3
ssg71
g810
sg64
(lp817
S''
asbasbasbag57
(g73
g59
NtRp818
(dp819
g62
(dp820
sg71
g674
sg64
(lp821
g57
(g78
g59
NtRp822
(dp823
g62
(dp824
g82
g83
ssg71
g818
sg64
(lp825
g453
asbag57
(g78
g59
NtRp826
(dp827
g62
(dp828
g89
g90
ssg71
g818
sg64
(lp829
S':'
asbag57
(g78
g59
NtRp830
(dp831
g62
(dp832
sg71
g818
sg64
(lp833
g57
(g58
g59
NtRp834
(dp835
g62
(dp836
g70
I3
ssg71
g830
sg64
(lp837
S''
asbasbasbasbasbasbasbag57
(g73
g59
NtRp838
(dp839
g62
(dp840
sg71
g268
sg64
(lp841
g57
(g78
g59
NtRp842
(dp843
g62
(dp844
g82
g83
ssg71
g838
sg64
(lp845
S'session_id_resume3'
p846
asbag57
(g78
g59
NtRp847
(dp848
g62
(dp849
g89
g90
ssg71
g838
sg64
(lp850
S':'
asbag57
(g78
g59
NtRp851
(dp852
g62
(dp853
sg71
g838
sg64
(lp854
g57
(g58
g59
NtRp855
(dp856
g62
(dp857
g70
I4
ssg71
g851
sg64
(lp858
S'127.0.0.1-17dca7f9-d885-4883-b0a8-563fbf96ad62'
p859
ag57
(g66
g59
NtRp860
(dp861
g62
(dp862
g70
I3
ssg71
Nsg64
(lp863
g57
(g73
g59
NtRp864
(dp865
g62
(dp866
sg71
g860
sg64
(lp867
g57
(g78
g59
NtRp868
(dp869
g62
(dp870
g82
g83
ssg71
g864
sg64
(lp871
g306
asbag57
(g78
g59
NtRp872
(dp873
g62
(dp874
g89
g90
ssg71
g864
sg64
(lp875
S':'
asbag57
(g78
g59
NtRp876
(dp877
g62
(dp878
sg71
g864
sg64
(lp879
g57
(g58
g59
NtRp880
(dp881
g62
(dp882
g70
I3
ssg71
g876
sg64
(lp883
S''
asbasbasbag57
(g73
g59
NtRp884
(dp885
g62
(dp886
sg71
g860
sg64
(lp887
g57
(g78
g59
NtRp888
(dp889
g62
(dp890
g82
g83
ssg71
g884
sg64
(lp891
g327
asbag57
(g78
g59
NtRp892
(dp893
g62
(dp894
g89
g90
ssg71
g884
sg64
(lp895
S':'
asbag57
(g78
g59
NtRp896
(dp897
g62
(dp898
sg71
g884
sg64
(lp899
g57
(g58
g59
NtRp900
(dp901
g62
(dp902
g70
I3
ssg71
g896
sg64
(lp903
S''
asbasbasbag57
(g73
g59
NtRp904
(dp905
g62
(dp906
sg71
g860
sg64
(lp907
g57
(g78
g59
NtRp908
(dp909
g62
(dp910
g82
g83
ssg71
g904
sg64
(lp911
g348
asbag57
(g78
g59
NtRp912
(dp913
g62
(dp914
g89
g90
ssg71
g904
sg64
(lp915
S':'
asbag57
(g78
g59
NtRp916
(dp917
g62
(dp918
sg71
g904
sg64
(lp919
g57
(g58
g59
NtRp920
(dp921
g62
(dp922
g70
I3
ssg71
g916
sg64
(lp923
S''
asbasbasbag57
(g73
g59
NtRp924
(dp925
g62
(dp926
sg71
g860
sg64
(lp927
g57
(g78
g59
NtRp928
(dp929
g62
(dp930
g82
g83
ssg71
g924
sg64
(lp931
g369
asbag57
(g78
g59
NtRp932
(dp933
g62
(dp934
g89
g90
ssg71
g924
sg64
(lp935
S':'
asbag57
(g78
g59
NtRp936
(dp937
g62
(dp938
sg71
g924
sg64
(lp939
g57
(g58
g59
NtRp940
(dp941
g62
(dp942
g70
I3
ssg71
g936
sg64
(lp943
S''
asbasbasbag57
(g73
g59
NtRp944
(dp945
g62
(dp946
sg71
g860
sg64
(lp947
g57
(g78
g59
NtRp948
(dp949
g62
(dp950
g82
g83
ssg71
g944
sg64
(lp951
g390
asbag57
(g78
g59
NtRp952
(dp953
g62
(dp954
g89
g90
ssg71
g944
sg64
(lp955
S':'
asbag57
(g78
g59
NtRp956
(dp957
g62
(dp958
sg71
g944
sg64
(lp959
g57
(g58
g59
NtRp960
(dp961
g62
(dp962
g70
I3
ssg71
g956
sg64
(lp963
S''
asbasbasbag57
(g73
g59
NtRp964
(dp965
g62
(dp966
sg71
g860
sg64
(lp967
g57
(g78
g59
NtRp968
(dp969
g62
(dp970
g82
g83
ssg71
g964
sg64
(lp971
g411
asbag57
(g78
g59
NtRp972
(dp973
g62
(dp974
g89
g90
ssg71
g964
sg64
(lp975
S':'
asbag57
(g78
g59
NtRp976
(dp977
g62
(dp978
sg71
g964
sg64
(lp979
g57
(g58
g59
NtRp980
(dp981
g62
(dp982
g70
I3
ssg71
g976
sg64
(lp983
S''
asbasbasbag57
(g73
g59
NtRp984
(dp985
g62
(dp986
sg71
g860
sg64
(lp987
g57
(g78
g59
NtRp988
(dp989
g62
(dp990
g82
g83
ssg71
g984
sg64
(lp991
g432
asbag57
(g78
g59
NtRp992
(dp993
g62
(dp994
g89
g90
ssg71
g984
sg64
(lp995
S':'
asbag57
(g78
g59
NtRp996
(dp997
g62
(dp998
sg71
g984
sg64
(lp999
g57
(g58
g59
NtRp1000
(dp1001
g62
(dp1002
g70
I3
ssg71
g996
sg64
(lp1003
S''
asbasbasbag57
(g73
g59
NtRp1004
(dp1005
g62
(dp1006
sg71
g860
sg64
(lp1007
g57
(g78
g59
NtRp1008
(dp1009
g62
(dp1010
g82
g83
ssg71
g1004
sg64
(lp1011
g453
asbag57
(g78
g59
NtRp1012
(dp1013
g62
(dp1014
g89
g90
ssg71
g1004
sg64
(lp1015
S':'
asbag57
(g78
g59
NtRp1016
(dp1017
g62
(dp1018
sg71
g1004
sg64
(lp1019
g57
(g58
g59
NtRp1020
(dp1021
g62
(dp1022
g70
I3
ssg71
g1016
sg64
(lp1023
S''
asbasbasbasbasbasbasbag57
(g73
g59
NtRp1024
(dp1025
g62
(dp1026
sg71
g268
sg64
(lp1027
g57
(g78
g59
NtRp1028
(dp1029
g62
(dp1030
g82
g83
ssg71
g1024
sg64
(lp1031
S'session_id_resume_builder'
p1032
asbag57
(g78
g59
NtRp1033
(dp1034
g62
(dp1035
g89
g90
ssg71
g1024
sg64
(lp1036
S':'
asbag57
(g78
g59
NtRp1037
(dp1038
g62
(dp1039
sg71
g1024
sg64
(lp1040
g57
(g58
g59
NtRp1041
(dp1042
g62
(dp1043
g70
I4
ssg71
g1037
sg64
(lp1044
S'127.0.0.1-f4ac87da-ca09-456f-9fc4-8cc4998ece7f'
p1045
ag57
(g66
g59
NtRp1046
(dp1047
g62
(dp1048
g70
I3
ssg71
Nsg64
(lp1049
g57
(g73
g59
NtRp1050
(dp1051
g62
(dp1052
sg71
g1046
sg64
(lp1053
g57
(g78
g59
NtRp1054
(dp1055
g62
(dp1056
g82
g83
ssg71
g1050
sg64
(lp1057
g306
asbag57
(g78
g59
NtRp1058
(dp1059
g62
(dp1060
g89
g90
ssg71
g1050
sg64
(lp1061
S':'
asbag57
(g78
g59
NtRp1062
(dp1063
g62
(dp1064
sg71
g1050
sg64
(lp1065
g57
(g58
g59
NtRp1066
(dp1067
g62
(dp1068
g70
I3
ssg71
g1062
sg64
(lp1069
S''
asbasbasbag57
(g73
g59
NtRp1070
(dp1071
g62
(dp1072
sg71
g1046
sg64
(lp1073
g57
(g78
g59
NtRp1074
(dp1075
g62
(dp1076
g82
g83
ssg71
g1070
sg64
(lp1077
g327
asbag57
(g78
g59
NtRp1078
(dp1079
g62
(dp1080
g89
g90
ssg71
g1070
sg64
(lp1081
S':'
asbag57
(g78
g59
NtRp1082
(dp1083
g62
(dp1084
sg71
g1070
sg64
(lp1085
g57
(g58
g59
NtRp1086
(dp1087
g62
(dp1088
g70
I3
ssg71
g1082
sg64
(lp1089
S''
asbasbasbag57
(g73
g59
NtRp1090
(dp1091
g62
(dp1092
sg71
g1046
sg64
(lp1093
g57
(g78
g59
NtRp1094
(dp1095
g62
(dp1096
g82
g83
ssg71
g1090
sg64
(lp1097
g348
asbag57
(g78
g59
NtRp1098
(dp1099
g62
(dp1100
g89
g90
ssg71
g1090
sg64
(lp1101
S':'
asbag57
(g78
g59
NtRp1102
(dp1103
g62
(dp1104
sg71
g1090
sg64
(lp1105
g57
(g58
g59
NtRp1106
(dp1107
g62
(dp1108
g70
I3
ssg71
g1102
sg64
(lp1109
S''
asbasbasbag57
(g73
g59
NtRp1110
(dp1111
g62
(dp1112
sg71
g1046
sg64
(lp1113
g57
(g78
g59
NtRp1114
(dp1115
g62
(dp1116
g82
g83
ssg71
g1110
sg64
(lp1117
g369
asbag57
(g78
g59
NtRp1118
(dp1119
g62
(dp1120
g89
g90
ssg71
g1110
sg64
(lp1121
S':'
asbag57
(g78
g59
NtRp1122
(dp1123
g62
(dp1124
sg71
g1110
sg64
(lp1125
g57
(g58
g59
NtRp1126
(dp1127
g62
(dp1128
g70
I3
ssg71
g1122
sg64
(lp1129
S''
asbasbasbag57
(g73
g59
NtRp1130
(dp1131
g62
(dp1132
sg71
g1046
sg64
(lp1133
g57
(g78
g59
NtRp1134
(dp1135
g62
(dp1136
g82
g83
ssg71
g1130
sg64
(lp1137
g390
asbag57
(g78
g59
NtRp1138
(dp1139
g62
(dp1140
g89
g90
ssg71
g1130
sg64
(lp1141
S':'
asbag57
(g78
g59
NtRp1142
(dp1143
g62
(dp1144
sg71
g1130
sg64
(lp1145
g57
(g58
g59
NtRp1146
(dp1147
g62
(dp1148
g70
I3
ssg71
g1142
sg64
(lp1149
S''
asbasbasbag57
(g73
g59
NtRp1150
(dp1151
g62
(dp1152
sg71
g1046
sg64
(lp1153
g57
(g78
g59
NtRp1154
(dp1155
g62
(dp1156
g82
g83
ssg71
g1150
sg64
(lp1157
g411
asbag57
(g78
g59
NtRp1158
(dp1159
g62
(dp1160
g89
g90
ssg71
g1150
sg64
(lp1161
S':'
asbag57
(g78
g59
NtRp1162
(dp1163
g62
(dp1164
sg71
g1150
sg64
(lp1165
g57
(g58
g59
NtRp1166
(dp1167
g62
(dp1168
g70
I3
ssg71
g1162
sg64
(lp1169
S''
asbasbasbag57
(g73
g59
NtRp1170
(dp1171
g62
(dp1172
sg71
g1046
sg64
(lp1173
g57
(g78
g59
NtRp1174
(dp1175
g62
(dp1176
g82
g83
ssg71
g1170
sg64
(lp1177
g432
asbag57
(g78
g59
NtRp1178
(dp1179
g62
(dp1180
g89
g90
ssg71
g1170
sg64
(lp1181
S':'
asbag57
(g78
g59
NtRp1182
(dp1183
g62
(dp1184
sg71
g1170
sg64
(lp1185
g57
(g58
g59
NtRp1186
(dp1187
g62
(dp1188
g70
I3
ssg71
g1182
sg64
(lp1189
S''
asbasbasbag57
(g73
g59
NtRp1190
(dp1191
g62
(dp1192
sg71
g1046
sg64
(lp1193
g57
(g78
g59
NtRp1194
(dp1195
g62
(dp1196
g82
g83
ssg71
g1190
sg64
(lp1197
g453
asbag57
(g78
g59
NtRp1198
(dp1199
g62
(dp1200
g89
g90
ssg71
g1190
sg64
(lp1201
S':'
asbag57
(g78
g59
NtRp1202
(dp1203
g62
(dp1204
sg71
g1190
sg64
(lp1205
g57
(g58
g59
NtRp1206
(dp1207
g62
(dp1208
g70
I3
ssg71
g1202
sg64
(lp1209
S''
asbasbasbasbasbasbasbag57
(g73
g59
NtRp1210
(dp1211
g62
(dp1212
sg71
g268
sg64
(lp1213
g57
(g78
g59
NtRp1214
(dp1215
g62
(dp1216
g82
g83
ssg71
g1210
sg64
(lp1217
S'session_id_resume_builder1'
p1218
asbag57
(g78
g59
NtRp1219
(dp1220
g62
(dp1221
g89
g90
ssg71
g1210
sg64
(lp1222
S':'
asbag57
(g78
g59
NtRp1223
(dp1224
g62
(dp1225
sg71
g1210
sg64
(lp1226
g57
(g58
g59
NtRp1227
(dp1228
g62
(dp1229
g70
I4
ssg71
g1223
sg64
(lp1230
S'127.0.0.1-874fcc84-4492-47e2-8b26-f280183a236c'
p1231
ag57
(g66
g59
NtRp1232
(dp1233
g62
(dp1234
g70
I3
ssg71
Nsg64
(lp1235
g57
(g73
g59
NtRp1236
(dp1237
g62
(dp1238
sg71
g1232
sg64
(lp1239
g57
(g78
g59
NtRp1240
(dp1241
g62
(dp1242
g82
g83
ssg71
g1236
sg64
(lp1243
g306
asbag57
(g78
g59
NtRp1244
(dp1245
g62
(dp1246
g89
g90
ssg71
g1236
sg64
(lp1247
S':'
asbag57
(g78
g59
NtRp1248
(dp1249
g62
(dp1250
sg71
g1236
sg64
(lp1251
g57
(g58
g59
NtRp1252
(dp1253
g62
(dp1254
g70
I3
ssg71
g1248
sg64
(lp1255
S''
asbasbasbag57
(g73
g59
NtRp1256
(dp1257
g62
(dp1258
sg71
g1232
sg64
(lp1259
g57
(g78
g59
NtRp1260
(dp1261
g62
(dp1262
g82
g83
ssg71
g1256
sg64
(lp1263
g327
asbag57
(g78
g59
NtRp1264
(dp1265
g62
(dp1266
g89
g90
ssg71
g1256
sg64
(lp1267
S':'
asbag57
(g78
g59
NtRp1268
(dp1269
g62
(dp1270
sg71
g1256
sg64
(lp1271
g57
(g58
g59
NtRp1272
(dp1273
g62
(dp1274
g70
I3
ssg71
g1268
sg64
(lp1275
S''
asbasbasbag57
(g73
g59
NtRp1276
(dp1277
g62
(dp1278
sg71
g1232
sg64
(lp1279
g57
(g78
g59
NtRp1280
(dp1281
g62
(dp1282
g82
g83
ssg71
g1276
sg64
(lp1283
g348
asbag57
(g78
g59
NtRp1284
(dp1285
g62
(dp1286
g89
g90
ssg71
g1276
sg64
(lp1287
S':'
asbag57
(g78
g59
NtRp1288
(dp1289
g62
(dp1290
sg71
g1276
sg64
(lp1291
g57
(g58
g59
NtRp1292
(dp1293
g62
(dp1294
g70
I3
ssg71
g1288
sg64
(lp1295
S''
asbasbasbag57
(g73
g59
NtRp1296
(dp1297
g62
(dp1298
sg71
g1232
sg64
(lp1299
g57
(g78
g59
NtRp1300
(dp1301
g62
(dp1302
g82
g83
ssg71
g1296
sg64
(lp1303
g369
asbag57
(g78
g59
NtRp1304
(dp1305
g62
(dp1306
g89
g90
ssg71
g1296
sg64
(lp1307
S':'
asbag57
(g78
g59
NtRp1308
(dp1309
g62
(dp1310
sg71
g1296
sg64
(lp1311
g57
(g58
g59
NtRp1312
(dp1313
g62
(dp1314
g70
I3
ssg71
g1308
sg64
(lp1315
S''
asbasbasbag57
(g73
g59
NtRp1316
(dp1317
g62
(dp1318
sg71
g1232
sg64
(lp1319
g57
(g78
g59
NtRp1320
(dp1321
g62
(dp1322
g82
g83
ssg71
g1316
sg64
(lp1323
g390
asbag57
(g78
g59
NtRp1324
(dp1325
g62
(dp1326
g89
g90
ssg71
g1316
sg64
(lp1327
S':'
asbag57
(g78
g59
NtRp1328
(dp1329
g62
(dp1330
sg71
g1316
sg64
(lp1331
g57
(g58
g59
NtRp1332
(dp1333
g62
(dp1334
g70
I3
ssg71
g1328
sg64
(lp1335
S''
asbasbasbag57
(g73
g59
NtRp1336
(dp1337
g62
(dp1338
sg71
g1232
sg64
(lp1339
g57
(g78
g59
NtRp1340
(dp1341
g62
(dp1342
g82
g83
ssg71
g1336
sg64
(lp1343
g411
asbag57
(g78
g59
NtRp1344
(dp1345
g62
(dp1346
g89
g90
ssg71
g1336
sg64
(lp1347
S':'
asbag57
(g78
g59
NtRp1348
(dp1349
g62
(dp1350
sg71
g1336
sg64
(lp1351
g57
(g58
g59
NtRp1352
(dp1353
g62
(dp1354
g70
I3
ssg71
g1348
sg64
(lp1355
S''
asbasbasbag57
(g73
g59
NtRp1356
(dp1357
g62
(dp1358
sg71
g1232
sg64
(lp1359
g57
(g78
g59
NtRp1360
(dp1361
g62
(dp1362
g82
g83
ssg71
g1356
sg64
(lp1363
g432
asbag57
(g78
g59
NtRp1364
(dp1365
g62
(dp1366
g89
g90
ssg71
g1356
sg64
(lp1367
S':'
asbag57
(g78
g59
NtRp1368
(dp1369
g62
(dp1370
sg71
g1356
sg64
(lp1371
g57
(g58
g59
NtRp1372
(dp1373
g62
(dp1374
g70
I3
ssg71
g1368
sg64
(lp1375
S''
asbasbasbag57
(g73
g59
NtRp1376
(dp1377
g62
(dp1378
sg71
g1232
sg64
(lp1379
g57
(g78
g59
NtRp1380
(dp1381
g62
(dp1382
g82
g83
ssg71
g1376
sg64
(lp1383
g453
asbag57
(g78
g59
NtRp1384
(dp1385
g62
(dp1386
g89
g90
ssg71
g1376
sg64
(lp1387
S':'
asbag57
(g78
g59
NtRp1388
(dp1389
g62
(dp1390
sg71
g1376
sg64
(lp1391
g57
(g58
g59
NtRp1392
(dp1393
g62
(dp1394
g70
I3
ssg71
g1388
sg64
(lp1395
S''
asbasbasbasbasbasbasbag57
(g73
g59
NtRp1396
(dp1397
g62
(dp1398
sg71
g268
sg64
(lp1399
g57
(g78
g59
NtRp1400
(dp1401
g62
(dp1402
g82
g83
ssg71
g1396
sg64
(lp1403
S'session_id_welcome'
p1404
asbag57
(g78
g59
NtRp1405
(dp1406
g62
(dp1407
g89
g90
ssg71
g1396
sg64
(lp1408
S':'
asbag57
(g78
g59
NtRp1409
(dp1410
g62
(dp1411
sg71
g1396
sg64
(lp1412
g57
(g58
g59
NtRp1413
(dp1414
g62
(dp1415
g70
I4
ssg71
g1409
sg64
(lp1416
S'127.0.0.1-9588ecb3-2af1-42db-96f8-c83b95fcc2b6'
p1417
ag57
(g66
g59
NtRp1418
(dp1419
g62
(dp1420
g70
I3
ssg71
Nsg64
(lp1421
g57
(g73
g59
NtRp1422
(dp1423
g62
(dp1424
sg71
g1418
sg64
(lp1425
g57
(g78
g59
NtRp1426
(dp1427
g62
(dp1428
g82
g83
ssg71
g1422
sg64
(lp1429
g306
asbag57
(g78
g59
NtRp1430
(dp1431
g62
(dp1432
g89
g90
ssg71
g1422
sg64
(lp1433
S':'
asbag57
(g78
g59
NtRp1434
(dp1435
g62
(dp1436
sg71
g1422
sg64
(lp1437
g57
(g58
g59
NtRp1438
(dp1439
g62
(dp1440
g70
I3
ssg71
g1434
sg64
(lp1441
S''
asbasbasbag57
(g73
g59
NtRp1442
(dp1443
g62
(dp1444
sg71
g1418
sg64
(lp1445
g57
(g78
g59
NtRp1446
(dp1447
g62
(dp1448
g82
g83
ssg71
g1442
sg64
(lp1449
g327
asbag57
(g78
g59
NtRp1450
(dp1451
g62
(dp1452
g89
g90
ssg71
g1442
sg64
(lp1453
S':'
asbag57
(g78
g59
NtRp1454
(dp1455
g62
(dp1456
sg71
g1442
sg64
(lp1457
g57
(g58
g59
NtRp1458
(dp1459
g62
(dp1460
g70
I3
ssg71
g1454
sg64
(lp1461
S''
asbasbasbag57
(g73
g59
NtRp1462
(dp1463
g62
(dp1464
sg71
g1418
sg64
(lp1465
g57
(g78
g59
NtRp1466
(dp1467
g62
(dp1468
g82
g83
ssg71
g1462
sg64
(lp1469
g348
asbag57
(g78
g59
NtRp1470
(dp1471
g62
(dp1472
g89
g90
ssg71
g1462
sg64
(lp1473
S':'
asbag57
(g78
g59
NtRp1474
(dp1475
g62
(dp1476
sg71
g1462
sg64
(lp1477
g57
(g58
g59
NtRp1478
(dp1479
g62
(dp1480
g70
I3
ssg71
g1474
sg64
(lp1481
S''
asbasbasbag57
(g73
g59
NtRp1482
(dp1483
g62
(dp1484
sg71
g1418
sg64
(lp1485
g57
(g78
g59
NtRp1486
(dp1487
g62
(dp1488
g82
g83
ssg71
g1482
sg64
(lp1489
g369
asbag57
(g78
g59
NtRp1490
(dp1491
g62
(dp1492
g89
g90
ssg71
g1482
sg64
(lp1493
S':'
asbag57
(g78
g59
NtRp1494
(dp1495
g62
(dp1496
sg71
g1482
sg64
(lp1497
g57
(g58
g59
NtRp1498
(dp1499
g62
(dp1500
g70
I3
ssg71
g1494
sg64
(lp1501
S''
asbasbasbag57
(g73
g59
NtRp1502
(dp1503
g62
(dp1504
sg71
g1418
sg64
(lp1505
g57
(g78
g59
NtRp1506
(dp1507
g62
(dp1508
g82
g83
ssg71
g1502
sg64
(lp1509
g390
asbag57
(g78
g59
NtRp1510
(dp1511
g62
(dp1512
g89
g90
ssg71
g1502
sg64
(lp1513
S':'
asbag57
(g78
g59
NtRp1514
(dp1515
g62
(dp1516
sg71
g1502
sg64
(lp1517
g57
(g58
g59
NtRp1518
(dp1519
g62
(dp1520
g70
I3
ssg71
g1514
sg64
(lp1521
S''
asbasbasbag57
(g73
g59
NtRp1522
(dp1523
g62
(dp1524
sg71
g1418
sg64
(lp1525
g57
(g78
g59
NtRp1526
(dp1527
g62
(dp1528
g82
g83
ssg71
g1522
sg64
(lp1529
g411
asbag57
(g78
g59
NtRp1530
(dp1531
g62
(dp1532
g89
g90
ssg71
g1522
sg64
(lp1533
S':'
asbag57
(g78
g59
NtRp1534
(dp1535
g62
(dp1536
sg71
g1522
sg64
(lp1537
g57
(g58
g59
NtRp1538
(dp1539
g62
(dp1540
g70
I3
ssg71
g1534
sg64
(lp1541
S''
asbasbasbag57
(g73
g59
NtRp1542
(dp1543
g62
(dp1544
sg71
g1418
sg64
(lp1545
g57
(g78
g59
NtRp1546
(dp1547
g62
(dp1548
g82
g83
ssg71
g1542
sg64
(lp1549
g432
asbag57
(g78
g59
NtRp1550
(dp1551
g62
(dp1552
g89
g90
ssg71
g1542
sg64
(lp1553
S':'
asbag57
(g78
g59
NtRp1554
(dp1555
g62
(dp1556
sg71
g1542
sg64
(lp1557
g57
(g58
g59
NtRp1558
(dp1559
g62
(dp1560
g70
I3
ssg71
g1554
sg64
(lp1561
S''
asbasbasbag57
(g73
g59
NtRp1562
(dp1563
g62
(dp1564
sg71
g1418
sg64
(lp1565
g57
(g78
g59
NtRp1566
(dp1567
g62
(dp1568
g82
g83
ssg71
g1562
sg64
(lp1569
g453
asbag57
(g78
g59
NtRp1570
(dp1571
g62
(dp1572
g89
g90
ssg71
g1562
sg64
(lp1573
S':'
asbag57
(g78
g59
NtRp1574
(dp1575
g62
(dp1576
sg71
g1562
sg64
(lp1577
g57
(g58
g59
NtRp1578
(dp1579
g62
(dp1580
g70
I3
ssg71
g1574
sg64
(lp1581
S''
asbasbasbasbasbasbasbasbasbasbasbag57
(g73
g59
NtRp1582
(dp1583
g62
(dp1584
sg71
g67
sg64
(lp1585
g57
(g78
g59
NtRp1586
(dp1587
g62
(dp1588
g82
g83
ssg71
g1582
sg64
(lp1589
S'env'
p1590
asbag57
(g78
g59
NtRp1591
(dp1592
g62
(dp1593
g89
g90
ssg71
g1582
sg64
(lp1594
S':'
asbag57
(g78
g59
NtRp1595
(dp1596
g62
(dp1597
sg71
g1582
sg64
(lp1598
g57
(g58
g59
NtRp1599
(dp1600
g62
(dp1601
g70
I5
ssg71
g1595
sg64
(lp1602
g57
(g66
g59
NtRp1603
(dp1604
g62
(dp1605
g70
I4
ssg71
Nsg64
(lp1606
g57
(g73
g59
NtRp1607
(dp1608
g62
(dp1609
sg71
g1603
sg64
(lp1610
g57
(g78
g59
NtRp1611
(dp1612
g62
(dp1613
g82
g83
ssg71
g1607
sg64
(lp1614
S'app_folders'
p1615
asbag57
(g78
g59
NtRp1616
(dp1617
g62
(dp1618
g89
g90
ssg71
g1607
sg64
(lp1619
S':'
asbag57
(g78
g59
NtRp1620
(dp1621
g62
(dp1622
sg71
g1607
sg64
(lp1623
g57
(g58
g59
NtRp1624
(dp1625
g62
(dp1626
g70
I4
ssg71
g1620
sg64
(lp1627
S"set(['/home/nishant/Acaedmics/Sem-2/ITWS-2/web2py/applications/backimg/', '/home/nishant/Acaedmics/Sem-2/ITWS-2/web2py/applications/admin/'])"
p1628
asbasbasbag57
(g73
g59
NtRp1629
(dp1630
g62
(dp1631
sg71
g1603
sg64
(lp1632
g57
(g78
g59
NtRp1633
(dp1634
g62
(dp1635
g82
g83
ssg71
g1629
sg64
(lp1636
S'applications_parent'
p1637
asbag57
(g78
g59
NtRp1638
(dp1639
g62
(dp1640
g89
g90
ssg71
g1629
sg64
(lp1641
S':'
asbag57
(g78
g59
NtRp1642
(dp1643
g62
(dp1644
sg71
g1629
sg64
(lp1645
g57
(g58
g59
NtRp1646
(dp1647
g62
(dp1648
g70
I4
ssg71
g1642
sg64
(lp1649
S'/home/nishant/Acaedmics/Sem-2/ITWS-2/web2py'
p1650
asbasbasbag57
(g73
g59
NtRp1651
(dp1652
g62
(dp1653
sg71
g1603
sg64
(lp1654
g57
(g78
g59
NtRp1655
(dp1656
g62
(dp1657
g82
g83
ssg71
g1651
sg64
(lp1658
S'cmd_args'
p1659
asbag57
(g78
g59
NtRp1660
(dp1661
g62
(dp1662
g89
g90
ssg71
g1651
sg64
(lp1663
S':'
asbag57
(g78
g59
NtRp1664
(dp1665
g62
(dp1666
sg71
g1651
sg64
(lp1667
g57
(g58
g59
NtRp1668
(dp1669
g62
(dp1670
g70
I4
ssg71
g1664
sg64
(lp1671
g57
(g66
g59
NtRp1672
(dp1673
g62
(dp1674
g70
I3
ssg71
Nsg64
(lp1675
sbasbasbasbag57
(g73
g59
NtRp1676
(dp1677
g62
(dp1678
sg71
g1603
sg64
(lp1679
g57
(g78
g59
NtRp1680
(dp1681
g62
(dp1682
g82
g83
ssg71
g1676
sg64
(lp1683
S'cmd_options'
p1684
asbag57
(g78
g59
NtRp1685
(dp1686
g62
(dp1687
g89
g90
ssg71
g1676
sg64
(lp1688
S':'
asbag57
(g78
g59
NtRp1689
(dp1690
g62
(dp1691
sg71
g1676
sg64
(lp1692
g57
(g58
g59
NtRp1693
(dp1694
g62
(dp1695
g70
I4
ssg71
g1689
sg64
(lp1696
S"<Values at 0x990450c: {'verbose': False, 'ip': '127.0.0.1', 'with_scheduler': False, 'ips': [], 'shutdown_timeout': 5, 'taskbar': False, 'port': 8000, 'maxthreads': None, 'softcron': False, 'server_name': 'Nishant', 'bpython': False, 'nogui': False, 'pid_filename': 'httpserver.pid', 'extcron': False, 'runcron': False, 'run_system_tests': False, 'test': None, 'folder': '/home/nishant/Acaedmics/Sem-2/ITWS-2/web2py', 'config': '', 'import_models': False, 'winservice': '', 'shell': None, 'run': '', 'log_filename': 'httpserver.log', 'debuglevel': 30, 'args': [''], 'socket_timeout': 5, 'ssl_ca_certificate': None, 'scheduler': None, 'profiler_filename': None, 'ssl_private_key': '', 'scheduler_groups': None, 'password': 'a', 'request_queue_size': 5, 'ssl_certificate': '', 'cronjob': False, 'numthreads': None, 'quiet': False, 'interfaces': None, 'minthreads': None, 'timeout': 10, 'plain': False, 'nobanner': False}>"
p1697
asbasbasbag57
(g73
g59
NtRp1698
(dp1699
g62
(dp1700
sg71
g1603
sg64
(lp1701
g57
(g78
g59
NtRp1702
(dp1703
g62
(dp1704
g82
g83
ssg71
g1698
sg64
(lp1705
S'db_sessions'
p1706
asbag57
(g78
g59
NtRp1707
(dp1708
g62
(dp1709
g89
g90
ssg71
g1698
sg64
(lp1710
S':'
asbag57
(g78
g59
NtRp1711
(dp1712
g62
(dp1713
sg71
g1698
sg64
(lp1714
g57
(g58
g59
NtRp1715
(dp1716
g62
(dp1717
g70
I4
ssg71
g1711
sg64
(lp1718
S'set([])'
p1719
asbasbasbag57
(g73
g59
NtRp1720
(dp1721
g62
(dp1722
sg71
g1603
sg64
(lp1723
g57
(g78
g59
NtRp1724
(dp1725
g62
(dp1726
g82
g83
ssg71
g1720
sg64
(lp1727
S'debugging'
p1728
asbag57
(g78
g59
NtRp1729
(dp1730
g62
(dp1731
g89
g90
ssg71
g1720
sg64
(lp1732
S':'
asbag57
(g78
g59
NtRp1733
(dp1734
g62
(dp1735
sg71
g1720
sg64
(lp1736
g57
(g58
g59
NtRp1737
(dp1738
g62
(dp1739
g70
I4
ssg71
g1733
sg64
(lp1740
g100
asbasbasbag57
(g73
g59
NtRp1741
(dp1742
g62
(dp1743
sg71
g1603
sg64
(lp1744
g57
(g78
g59
NtRp1745
(dp1746
g62
(dp1747
g82
g83
ssg71
g1741
sg64
(lp1748
S'gluon_parent'
p1749
asbag57
(g78
g59
NtRp1750
(dp1751
g62
(dp1752
g89
g90
ssg71
g1741
sg64
(lp1753
S':'
asbag57
(g78
g59
NtRp1754
(dp1755
g62
(dp1756
sg71
g1741
sg64
(lp1757
g57
(g58
g59
NtRp1758
(dp1759
g62
(dp1760
g70
I4
ssg71
g1754
sg64
(lp1761
S'/home/nishant/Acaedmics/Sem-2/ITWS-2/web2py'
p1762
asbasbasbag57
(g73
g59
NtRp1763
(dp1764
g62
(dp1765
sg71
g1603
sg64
(lp1766
g57
(g78
g59
NtRp1767
(dp1768
g62
(dp1769
g82
g83
ssg71
g1763
sg64
(lp1770
S'http_accept'
p1771
asbag57
(g78
g59
NtRp1772
(dp1773
g62
(dp1774
g89
g90
ssg71
g1763
sg64
(lp1775
S':'
asbag57
(g78
g59
NtRp1776
(dp1777
g62
(dp1778
sg71
g1763
sg64
(lp1779
g57
(g58
g59
NtRp1780
(dp1781
g62
(dp1782
g70
I4
ssg71
g1776
sg64
(lp1783
S'text/html,application/xhtml+xml,application/xml;q=0.9,*/*;q=0.8'
p1784
asbasbasbag57
(g73
g59
NtRp1785
(dp1786
g62
(dp1787
sg71
g1603
sg64
(lp1788
g57
(g78
g59
NtRp1789
(dp1790
g62
(dp1791
g82
g83
ssg71
g1785
sg64
(lp1792
S'http_accept_encoding'
p1793
asbag57
(g78
g59
NtRp1794
(dp1795
g62
(dp1796
g89
g90
ssg71
g1785
sg64
(lp1797
S':'
asbag57
(g78
g59
NtRp1798
(dp1799
g62
(dp1800
sg71
g1785
sg64
(lp1801
g57
(g58
g59
NtRp1802
(dp1803
g62
(dp1804
g70
I4
ssg71
g1798
sg64
(lp1805
S'gzip, deflate'
p1806
asbasbasbag57
(g73
g59
NtRp1807
(dp1808
g62
(dp1809
sg71
g1603
sg64
(lp1810
g57
(g78
g59
NtRp1811
(dp1812
g62
(dp1813
g82
g83
ssg71
g1807
sg64
(lp1814
S'http_accept_language'
p1815
asbag57
(g78
g59
NtRp1816
(dp1817
g62
(dp1818
g89
g90
ssg71
g1807
sg64
(lp1819
S':'
asbag57
(g78
g59
NtRp1820
(dp1821
g62
(dp1822
sg71
g1807
sg64
(lp1823
g57
(g58
g59
NtRp1824
(dp1825
g62
(dp1826
g70
I4
ssg71
g1820
sg64
(lp1827
S'en-US,en;q=0.5'
p1828
asbasbasbag57
(g73
g59
NtRp1829
(dp1830
g62
(dp1831
sg71
g1603
sg64
(lp1832
g57
(g78
g59
NtRp1833
(dp1834
g62
(dp1835
g82
g83
ssg71
g1829
sg64
(lp1836
S'http_connection'
p1837
asbag57
(g78
g59
NtRp1838
(dp1839
g62
(dp1840
g89
g90
ssg71
g1829
sg64
(lp1841
S':'
asbag57
(g78
g59
NtRp1842
(dp1843
g62
(dp1844
sg71
g1829
sg64
(lp1845
g57
(g58
g59
NtRp1846
(dp1847
g62
(dp1848
g70
I4
ssg71
g1842
sg64
(lp1849
S'keep-alive'
p1850
asbasbasbag57
(g73
g59
NtRp1851
(dp1852
g62
(dp1853
sg71
g1603
sg64
(lp1854
g57
(g78
g59
NtRp1855
(dp1856
g62
(dp1857
g82
g83
ssg71
g1851
sg64
(lp1858
S'http_cookie'
p1859
asbag57
(g78
g59
NtRp1860
(dp1861
g62
(dp1862
g89
g90
ssg71
g1851
sg64
(lp1863
S':'
asbag57
(g78
g59
NtRp1864
(dp1865
g62
(dp1866
sg71
g1851
sg64
(lp1867
g57
(g58
g59
NtRp1868
(dp1869
g62
(dp1870
g70
I4
ssg71
g1864
sg64
(lp1871
S'session_id_resume1=127.0.0.1-5cabbee1-4f7f-4691-8820-683475549a85; session_id_resume_builder=127.0.0.1-f4ac87da-ca09-456f-9fc4-8cc4998ece7f; session_id_welcome=127.0.0.1-9588ecb3-2af1-42db-96f8-c83b95fcc2b6; session_id_admin=127.0.0.1-d8499d8b-4f3a-4ee5-a081-5f93717a670d; session_id_resume_builder1=127.0.0.1-874fcc84-4492-47e2-8b26-f280183a236c; session_id_resume3=127.0.0.1-17dca7f9-d885-4883-b0a8-563fbf96ad62; session_id_backimg=127.0.0.1-510de37e-632d-4f80-b1c3-d8a3bf298387'
p1872
asbasbasbag57
(g73
g59
NtRp1873
(dp1874
g62
(dp1875
sg71
g1603
sg64
(lp1876
g57
(g78
g59
NtRp1877
(dp1878
g62
(dp1879
g82
g83
ssg71
g1873
sg64
(lp1880
S'http_host'
p1881
asbag57
(g78
g59
NtRp1882
(dp1883
g62
(dp1884
g89
g90
ssg71
g1873
sg64
(lp1885
S':'
asbag57
(g78
g59
NtRp1886
(dp1887
g62
(dp1888
sg71
g1873
sg64
(lp1889
g57
(g58
g59
NtRp1890
(dp1891
g62
(dp1892
g70
I4
ssg71
g1886
sg64
(lp1893
S'127.0.0.1:8000'
p1894
asbasbasbag57
(g73
g59
NtRp1895
(dp1896
g62
(dp1897
sg71
g1603
sg64
(lp1898
g57
(g78
g59
NtRp1899
(dp1900
g62
(dp1901
g82
g83
ssg71
g1895
sg64
(lp1902
S'http_referer'
p1903
asbag57
(g78
g59
NtRp1904
(dp1905
g62
(dp1906
g89
g90
ssg71
g1895
sg64
(lp1907
S':'
asbag57
(g78
g59
NtRp1908
(dp1909
g62
(dp1910
sg71
g1895
sg64
(lp1911
g57
(g58
g59
NtRp1912
(dp1913
g62
(dp1914
g70
I4
ssg71
g1908
sg64
(lp1915
S'http://127.0.0.1:8000/backimg/default/view_msg'
p1916
asbasbasbag57
(g73
g59
NtRp1917
(dp1918
g62
(dp1919
sg71
g1603
sg64
(lp1920
g57
(g78
g59
NtRp1921
(dp1922
g62
(dp1923
g82
g83
ssg71
g1917
sg64
(lp1924
S'http_user_agent'
p1925
asbag57
(g78
g59
NtRp1926
(dp1927
g62
(dp1928
g89
g90
ssg71
g1917
sg64
(lp1929
S':'
asbag57
(g78
g59
NtRp1930
(dp1931
g62
(dp1932
sg71
g1917
sg64
(lp1933
g57
(g58
g59
NtRp1934
(dp1935
g62
(dp1936
g70
I4
ssg71
g1930
sg64
(lp1937
S'Mozilla/5.0 (X11; Ubuntu; Linux i686; rv:20.0) Gecko/20100101 Firefox/20.0'
p1938
asbasbasbag57
(g73
g59
NtRp1939
(dp1940
g62
(dp1941
sg71
g1603
sg64
(lp1942
g57
(g78
g59
NtRp1943
(dp1944
g62
(dp1945
g82
g83
ssg71
g1939
sg64
(lp1946
S'is_jython'
p1947
asbag57
(g78
g59
NtRp1948
(dp1949
g62
(dp1950
g89
g90
ssg71
g1939
sg64
(lp1951
S':'
asbag57
(g78
g59
NtRp1952
(dp1953
g62
(dp1954
sg71
g1939
sg64
(lp1955
g57
(g58
g59
NtRp1956
(dp1957
g62
(dp1958
g70
I4
ssg71
g1952
sg64
(lp1959
g100
asbasbasbag57
(g73
g59
NtRp1960
(dp1961
g62
(dp1962
sg71
g1603
sg64
(lp1963
g57
(g78
g59
NtRp1964
(dp1965
g62
(dp1966
g82
g83
ssg71
g1960
sg64
(lp1967
S'is_pypy'
p1968
asbag57
(g78
g59
NtRp1969
(dp1970
g62
(dp1971
g89
g90
ssg71
g1960
sg64
(lp1972
S':'
asbag57
(g78
g59
NtRp1973
(dp1974
g62
(dp1975
sg71
g1960
sg64
(lp1976
g57
(g58
g59
NtRp1977
(dp1978
g62
(dp1979
g70
I4
ssg71
g1973
sg64
(lp1980
g100
asbasbasbag57
(g73
g59
NtRp1981
(dp1982
g62
(dp1983
sg71
g1603
sg64
(lp1984
g57
(g78
g59
NtRp1985
(dp1986
g62
(dp1987
g82
g83
ssg71
g1981
sg64
(lp1988
S'local_hosts'
p1989
asbag57
(g78
g59
NtRp1990
(dp1991
g62
(dp1992
g89
g90
ssg71
g1981
sg64
(lp1993
S':'
asbag57
(g78
g59
NtRp1994
(dp1995
g62
(dp1996
sg71
g1981
sg64
(lp1997
g57
(g58
g59
NtRp1998
(dp1999
g62
(dp2000
g70
I4
ssg71
g1994
sg64
(lp2001
g57
(g66
g59
NtRp2002
(dp2003
g62
(dp2004
g70
I3
ssg71
Nsg64
(lp2005
g57
(g73
g59
NtRp2006
(dp2007
g62
(dp2008
sg71
g2002
sg64
(lp2009
g57
(g78
g59
NtRp2010
(dp2011
g62
(dp2012
sg71
g2006
sg64
(lp2013
g57
(g58
g59
NtRp2014
(dp2015
g62
(dp2016
g70
I3
ssg71
g2010
sg64
(lp2017
S'::1'
p2018
asbasbasbag57
(g73
g59
NtRp2019
(dp2020
g62
(dp2021
sg71
g2002
sg64
(lp2022
g57
(g78
g59
NtRp2023
(dp2024
g62
(dp2025
sg71
g2019
sg64
(lp2026
g57
(g58
g59
NtRp2027
(dp2028
g62
(dp2029
g70
I3
ssg71
g2023
sg64
(lp2030
S'127.0.1.1'
p2031
asbasbasbag57
(g73
g59
NtRp2032
(dp2033
g62
(dp2034
sg71
g2002
sg64
(lp2035
g57
(g78
g59
NtRp2036
(dp2037
g62
(dp2038
sg71
g2032
sg64
(lp2039
g57
(g58
g59
NtRp2040
(dp2041
g62
(dp2042
g70
I3
ssg71
g2036
sg64
(lp2043
S'::ffff:127.0.0.1'
p2044
asbasbasbag57
(g73
g59
NtRp2045
(dp2046
g62
(dp2047
sg71
g2002
sg64
(lp2048
g57
(g78
g59
NtRp2049
(dp2050
g62
(dp2051
sg71
g2045
sg64
(lp2052
g57
(g58
g59
NtRp2053
(dp2054
g62
(dp2055
g70
I3
ssg71
g2049
sg64
(lp2056
S'127.0.0.1'
p2057
asbasbasbag57
(g73
g59
NtRp2058
(dp2059
g62
(dp2060
sg71
g2002
sg64
(lp2061
g57
(g78
g59
NtRp2062
(dp2063
g62
(dp2064
sg71
g2058
sg64
(lp2065
g57
(g58
g59
NtRp2066
(dp2067
g62
(dp2068
g70
I3
ssg71
g2062
sg64
(lp2069
S'Nishant'
p2070
asbasbasbasbasbasbasbag57
(g73
g59
NtRp2071
(dp2072
g62
(dp2073
sg71
g1603
sg64
(lp2074
g57
(g78
g59
NtRp2075
(dp2076
g62
(dp2077
g82
g83
ssg71
g2071
sg64
(lp2078
S'path_info'
p2079
asbag57
(g78
g59
NtRp2080
(dp2081
g62
(dp2082
g89
g90
ssg71
g2071
sg64
(lp2083
S':'
asbag57
(g78
g59
NtRp2084
(dp2085
g62
(dp2086
sg71
g2071
sg64
(lp2087
g57
(g58
g59
NtRp2088
(dp2089
g62
(dp2090
g70
I4
ssg71
g2084
sg64
(lp2091
S'/backimg/default/single_company_msg/2'
p2092
asbasbasbag57
(g73
g59
NtRp2093
(dp2094
g62
(dp2095
sg71
g1603
sg64
(lp2096
g57
(g78
g59
NtRp2097
(dp2098
g62
(dp2099
g82
g83
ssg71
g2093
sg64
(lp2100
S'query_string'
p2101
asbag57
(g78
g59
NtRp2102
(dp2103
g62
(dp2104
g89
g90
ssg71
g2093
sg64
(lp2105
S':'
asbag57
(g78
g59
NtRp2106
(dp2107
g62
(dp2108
sg71
g2093
sg64
(lp2109
g57
(g58
g59
NtRp2110
(dp2111
g62
(dp2112
g70
I4
ssg71
g2106
sg64
(lp2113
S''
asbasbasbag57
(g73
g59
NtRp2114
(dp2115
g62
(dp2116
sg71
g1603
sg64
(lp2117
g57
(g78
g59
NtRp2118
(dp2119
g62
(dp2120
g82
g83
ssg71
g2114
sg64
(lp2121
S'remote_addr'
p2122
asbag57
(g78
g59
NtRp2123
(dp2124
g62
(dp2125
g89
g90
ssg71
g2114
sg64
(lp2126
S':'
asbag57
(g78
g59
NtRp2127
(dp2128
g62
(dp2129
sg71
g2114
sg64
(lp2130
g57
(g58
g59
NtRp2131
(dp2132
g62
(dp2133
g70
I4
ssg71
g2127
sg64
(lp2134
g224
asbasbasbag57
(g73
g59
NtRp2135
(dp2136
g62
(dp2137
sg71
g1603
sg64
(lp2138
g57
(g78
g59
NtRp2139
(dp2140
g62
(dp2141
g82
g83
ssg71
g2135
sg64
(lp2142
S'remote_port'
p2143
asbag57
(g78
g59
NtRp2144
(dp2145
g62
(dp2146
g89
g90
ssg71
g2135
sg64
(lp2147
S':'
asbag57
(g78
g59
NtRp2148
(dp2149
g62
(dp2150
sg71
g2135
sg64
(lp2151
g57
(g58
g59
NtRp2152
(dp2153
g62
(dp2154
g70
I4
ssg71
g2148
sg64
(lp2155
S'50465'
p2156
asbasbasbag57
(g73
g59
NtRp2157
(dp2158
g62
(dp2159
sg71
g1603
sg64
(lp2160
g57
(g78
g59
NtRp2161
(dp2162
g62
(dp2163
g82
g83
ssg71
g2157
sg64
(lp2164
S'request_method'
p2165
asbag57
(g78
g59
NtRp2166
(dp2167
g62
(dp2168
g89
g90
ssg71
g2157
sg64
(lp2169
S':'
asbag57
(g78
g59
NtRp2170
(dp2171
g62
(dp2172
sg71
g2157
sg64
(lp2173
g57
(g58
g59
NtRp2174
(dp2175
g62
(dp2176
g70
I4
ssg71
g2170
sg64
(lp2177
S'GET'
p2178
asbasbasbag57
(g73
g59
NtRp2179
(dp2180
g62
(dp2181
sg71
g1603
sg64
(lp2182
g57
(g78
g59
NtRp2183
(dp2184
g62
(dp2185
g82
g83
ssg71
g2179
sg64
(lp2186
S'request_uri'
p2187
asbag57
(g78
g59
NtRp2188
(dp2189
g62
(dp2190
g89
g90
ssg71
g2179
sg64
(lp2191
S':'
asbag57
(g78
g59
NtRp2192
(dp2193
g62
(dp2194
sg71
g2179
sg64
(lp2195
g57
(g58
g59
NtRp2196
(dp2197
g62
(dp2198
g70
I4
ssg71
g2192
sg64
(lp2199
g2092
asbasbasbag57
(g73
g59
NtRp2200
(dp2201
g62
(dp2202
sg71
g1603
sg64
(lp2203
g57
(g78
g59
NtRp2204
(dp2205
g62
(dp2206
g82
g83
ssg71
g2200
sg64
(lp2207
S'script_name'
p2208
asbag57
(g78
g59
NtRp2209
(dp2210
g62
(dp2211
g89
g90
ssg71
g2200
sg64
(lp2212
S':'
asbag57
(g78
g59
NtRp2213
(dp2214
g62
(dp2215
sg71
g2200
sg64
(lp2216
g57
(g58
g59
NtRp2217
(dp2218
g62
(dp2219
g70
I4
ssg71
g2213
sg64
(lp2220
S''
asbasbasbag57
(g73
g59
NtRp2221
(dp2222
g62
(dp2223
sg71
g1603
sg64
(lp2224
g57
(g78
g59
NtRp2225
(dp2226
g62
(dp2227
g82
g83
ssg71
g2221
sg64
(lp2228
S'server_name'
p2229
asbag57
(g78
g59
NtRp2230
(dp2231
g62
(dp2232
g89
g90
ssg71
g2221
sg64
(lp2233
S':'
asbag57
(g78
g59
NtRp2234
(dp2235
g62
(dp2236
sg71
g2221
sg64
(lp2237
g57
(g58
g59
NtRp2238
(dp2239
g62
(dp2240
g70
I4
ssg71
g2234
sg64
(lp2241
S'Nishant'
p2242
asbasbasbag57
(g73
g59
NtRp2243
(dp2244
g62
(dp2245
sg71
g1603
sg64
(lp2246
g57
(g78
g59
NtRp2247
(dp2248
g62
(dp2249
g82
g83
ssg71
g2243
sg64
(lp2250
S'server_port'
p2251
asbag57
(g78
g59
NtRp2252
(dp2253
g62
(dp2254
g89
g90
ssg71
g2243
sg64
(lp2255
S':'
asbag57
(g78
g59
NtRp2256
(dp2257
g62
(dp2258
sg71
g2243
sg64
(lp2259
g57
(g58
g59
NtRp2260
(dp2261
g62
(dp2262
g70
I4
ssg71
g2256
sg64
(lp2263
S'8000'
p2264
asbasbasbag57
(g73
g59
NtRp2265
(dp2266
g62
(dp2267
sg71
g1603
sg64
(lp2268
g57
(g78
g59
NtRp2269
(dp2270
g62
(dp2271
g82
g83
ssg71
g2265
sg64
(lp2272
S'server_protocol'
p2273
asbag57
(g78
g59
NtRp2274
(dp2275
g62
(dp2276
g89
g90
ssg71
g2265
sg64
(lp2277
S':'
asbag57
(g78
g59
NtRp2278
(dp2279
g62
(dp2280
sg71
g2265
sg64
(lp2281
g57
(g58
g59
NtRp2282
(dp2283
g62
(dp2284
g70
I4
ssg71
g2278
sg64
(lp2285
S'HTTP/1.1'
p2286
asbasbasbag57
(g73
g59
NtRp2287
(dp2288
g62
(dp2289
sg71
g1603
sg64
(lp2290
g57
(g78
g59
NtRp2291
(dp2292
g62
(dp2293
g82
g83
ssg71
g2287
sg64
(lp2294
S'server_software'
p2295
asbag57
(g78
g59
NtRp2296
(dp2297
g62
(dp2298
g89
g90
ssg71
g2287
sg64
(lp2299
S':'
asbag57
(g78
g59
NtRp2300
(dp2301
g62
(dp2302
sg71
g2287
sg64
(lp2303
g57
(g58
g59
NtRp2304
(dp2305
g62
(dp2306
g70
I4
ssg71
g2300
sg64
(lp2307
S'Rocket 1.2.6'
p2308
asbasbasbag57
(g73
g59
NtRp2309
(dp2310
g62
(dp2311
sg71
g1603
sg64
(lp2312
g57
(g78
g59
NtRp2313
(dp2314
g62
(dp2315
g82
g83
ssg71
g2309
sg64
(lp2316
S'web2py_path'
p2317
asbag57
(g78
g59
NtRp2318
(dp2319
g62
(dp2320
g89
g90
ssg71
g2309
sg64
(lp2321
S':'
asbag57
(g78
g59
NtRp2322
(dp2323
g62
(dp2324
sg71
g2309
sg64
(lp2325
g57
(g58
g59
NtRp2326
(dp2327
g62
(dp2328
g70
I4
ssg71
g2322
sg64
(lp2329
g1650
asbasbasbag57
(g73
g59
NtRp2330
(dp2331
g62
(dp2332
sg71
g1603
sg64
(lp2333
g57
(g78
g59
NtRp2334
(dp2335
g62
(dp2336
g82
g83
ssg71
g2330
sg64
(lp2337
S'web2py_version'
p2338
asbag57
(g78
g59
NtRp2339
(dp2340
g62
(dp2341
g89
g90
ssg71
g2330
sg64
(lp2342
S':'
asbag57
(g78
g59
NtRp2343
(dp2344
g62
(dp2345
sg71
g2330
sg64
(lp2346
g57
(g58
g59
NtRp2347
(dp2348
g62
(dp2349
g70
I4
ssg71
g2343
sg64
(lp2350
g57
(g66
g59
NtRp2351
(dp2352
g62
(dp2353
g70
I3
ssg71
Nsg64
(lp2354
g57
(g73
g59
NtRp2355
(dp2356
g62
(dp2357
sg71
g2351
sg64
(lp2358
g57
(g78
g59
NtRp2359
(dp2360
g62
(dp2361
sg71
g2355
sg64
(lp2362
g57
(g58
g59
NtRp2363
(dp2364
g62
(dp2365
g70
I3
ssg71
g2359
sg64
(lp2366
S'2'
asbasbasbag57
(g73
g59
NtRp2367
(dp2368
g62
(dp2369
sg71
g2351
sg64
(lp2370
g57
(g78
g59
NtRp2371
(dp2372
g62
(dp2373
sg71
g2367
sg64
(lp2374
g57
(g58
g59
NtRp2375
(dp2376
g62
(dp2377
g70
I3
ssg71
g2371
sg64
(lp2378
S'4'
asbasbasbag57
(g73
g59
NtRp2379
(dp2380
g62
(dp2381
sg71
g2351
sg64
(lp2382
g57
(g78
g59
NtRp2383
(dp2384
g62
(dp2385
sg71
g2379
sg64
(lp2386
g57
(g58
g59
NtRp2387
(dp2388
g62
(dp2389
g70
I3
ssg71
g2383
sg64
(lp2390
S'1'
asbasbasbag57
(g73
g59
NtRp2391
(dp2392
g62
(dp2393
sg71
g2351
sg64
(lp2394
g57
(g78
g59
NtRp2395
(dp2396
g62
(dp2397
sg71
g2391
sg64
(lp2398
g57
(g58
g59
NtRp2399
(dp2400
g62
(dp2401
g70
I3
ssg71
g2395
sg64
(lp2402
S'alpha.2'
p2403
asbasbasbag57
(g73
g59
NtRp2404
(dp2405
g62
(dp2406
sg71
g2351
sg64
(lp2407
g57
(g78
g59
NtRp2408
(dp2409
g62
(dp2410
sg71
g2404
sg64
(lp2411
g57
(g58
g59
NtRp2412
(dp2413
g62
(dp2414
g70
I3
ssg71
g2408
sg64
(lp2415
S'datetime.datetime(2013, 1, 10, 21, 26, 18)'
p2416
asbasbasbasbasbasbasbag57
(g73
g59
NtRp2417
(dp2418
g62
(dp2419
sg71
g1603
sg64
(lp2420
g57
(g78
g59
NtRp2421
(dp2422
g62
(dp2423
g82
g83
ssg71
g2417
sg64
(lp2424
S'wsgi_errors'
p2425
asbag57
(g78
g59
NtRp2426
(dp2427
g62
(dp2428
g89
g90
ssg71
g2417
sg64
(lp2429
S':'
asbag57
(g78
g59
NtRp2430
(dp2431
g62
(dp2432
sg71
g2417
sg64
(lp2433
g57
(g58
g59
NtRp2434
(dp2435
g62
(dp2436
g70
I4
ssg71
g2430
sg64
(lp2437
S"<open file '<stderr>', mode 'w' at 0xb75660d0>"
p2438
asbasbasbag57
(g73
g59
NtRp2439
(dp2440
g62
(dp2441
sg71
g1603
sg64
(lp2442
g57
(g78
g59
NtRp2443
(dp2444
g62
(dp2445
g82
g83
ssg71
g2439
sg64
(lp2446
S'wsgi_file_wrapper'
p2447
asbag57
(g78
g59
NtRp2448
(dp2449
g62
(dp2450
g89
g90
ssg71
g2439
sg64
(lp2451
S':'
asbag57
(g78
g59
NtRp2452
(dp2453
g62
(dp2454
sg71
g2439
sg64
(lp2455
g57
(g58
g59
NtRp2456
(dp2457
g62
(dp2458
g70
I4
ssg71
g2452
sg64
(lp2459
S'<class wsgiref.util.FileWrapper at 0x9886ddc>'
p2460
asbasbasbag57
(g73
g59
NtRp2461
(dp2462
g62
(dp2463
sg71
g1603
sg64
(lp2464
g57
(g78
g59
NtRp2465
(dp2466
g62
(dp2467
g82
g83
ssg71
g2461
sg64
(lp2468
S'wsgi_input'
p2469
asbag57
(g78
g59
NtRp2470
(dp2471
g62
(dp2472
g89
g90
ssg71
g2461
sg64
(lp2473
S':'
asbag57
(g78
g59
NtRp2474
(dp2475
g62
(dp2476
sg71
g2461
sg64
(lp2477
g57
(g58
g59
NtRp2478
(dp2479
g62
(dp2480
g70
I4
ssg71
g2474
sg64
(lp2481
S'<socket._fileobject object at 0x9ad86ec>'
p2482
asbasbasbag57
(g73
g59
NtRp2483
(dp2484
g62
(dp2485
sg71
g1603
sg64
(lp2486
g57
(g78
g59
NtRp2487
(dp2488
g62
(dp2489
g82
g83
ssg71
g2483
sg64
(lp2490
S'wsgi_multiprocess'
p2491
asbag57
(g78
g59
NtRp2492
(dp2493
g62
(dp2494
g89
g90
ssg71
g2483
sg64
(lp2495
S':'
asbag57
(g78
g59
NtRp2496
(dp2497
g62
(dp2498
sg71
g2483
sg64
(lp2499
g57
(g58
g59
NtRp2500
(dp2501
g62
(dp2502
g70
I4
ssg71
g2496
sg64
(lp2503
g100
asbasbasbag57
(g73
g59
NtRp2504
(dp2505
g62
(dp2506
sg71
g1603
sg64
(lp2507
g57
(g78
g59
NtRp2508
(dp2509
g62
(dp2510
g82
g83
ssg71
g2504
sg64
(lp2511
S'wsgi_multithread'
p2512
asbag57
(g78
g59
NtRp2513
(dp2514
g62
(dp2515
g89
g90
ssg71
g2504
sg64
(lp2516
S':'
asbag57
(g78
g59
NtRp2517
(dp2518
g62
(dp2519
sg71
g2504
sg64
(lp2520
g57
(g58
g59
NtRp2521
(dp2522
g62
(dp2523
g70
I4
ssg71
g2517
sg64
(lp2524
S'True'
p2525
asbasbasbag57
(g73
g59
NtRp2526
(dp2527
g62
(dp2528
sg71
g1603
sg64
(lp2529
g57
(g78
g59
NtRp2530
(dp2531
g62
(dp2532
g82
g83
ssg71
g2526
sg64
(lp2533
S'wsgi_run_once'
p2534
asbag57
(g78
g59
NtRp2535
(dp2536
g62
(dp2537
g89
g90
ssg71
g2526
sg64
(lp2538
S':'
asbag57
(g78
g59
NtRp2539
(dp2540
g62
(dp2541
sg71
g2526
sg64
(lp2542
g57
(g58
g59
NtRp2543
(dp2544
g62
(dp2545
g70
I4
ssg71
g2539
sg64
(lp2546
g100
asbasbasbag57
(g73
g59
NtRp2547
(dp2548
g62
(dp2549
sg71
g1603
sg64
(lp2550
g57
(g78
g59
NtRp2551
(dp2552
g62
(dp2553
g82
g83
ssg71
g2547
sg64
(lp2554
S'wsgi_url_scheme'
p2555
asbag57
(g78
g59
NtRp2556
(dp2557
g62
(dp2558
g89
g90
ssg71
g2547
sg64
(lp2559
S':'
asbag57
(g78
g59
NtRp2560
(dp2561
g62
(dp2562
sg71
g2547
sg64
(lp2563
g57
(g58
g59
NtRp2564
(dp2565
g62
(dp2566
g70
I4
ssg71
g2560
sg64
(lp2567
S'http'
p2568
asbasbasbag57
(g73
g59
NtRp2569
(dp2570
g62
(dp2571
sg71
g1603
sg64
(lp2572
g57
(g78
g59
NtRp2573
(dp2574
g62
(dp2575
g82
g83
ssg71
g2569
sg64
(lp2576
S'wsgi_version'
p2577
asbag57
(g78
g59
NtRp2578
(dp2579
g62
(dp2580
g89
g90
ssg71
g2569
sg64
(lp2581
S':'
asbag57
(g78
g59
NtRp2582
(dp2583
g62
(dp2584
sg71
g2569
sg64
(lp2585
g57
(g58
g59
NtRp2586
(dp2587
g62
(dp2588
g70
I4
ssg71
g2582
sg64
(lp2589
g57
(g66
g59
NtRp2590
(dp2591
g62
(dp2592
g70
I3
ssg71
Nsg64
(lp2593
g57
(g73
g59
NtRp2594
(dp2595
g62
(dp2596
sg71
g2590
sg64
(lp2597
g57
(g78
g59
NtRp2598
(dp2599
g62
(dp2600
sg71
g2594
sg64
(lp2601
g57
(g58
g59
NtRp2602
(dp2603
g62
(dp2604
g70
I3
ssg71
g2598
sg64
(lp2605
S'1'
asbasbasbag57
(g73
g59
NtRp2606
(dp2607
g62
(dp2608
sg71
g2590
sg64
(lp2609
g57
(g78
g59
NtRp2610
(dp2611
g62
(dp2612
sg71
g2606
sg64
(lp2613
g57
(g58
g59
NtRp2614
(dp2615
g62
(dp2616
g70
I3
ssg71
g2610
sg64
(lp2617
S'0'
asbasbasbasbasbasbasbasbasbasbasbag57
(g73
g59
NtRp2618
(dp2619
g62
(dp2620
sg71
g67
sg64
(lp2621
g57
(g78
g59
NtRp2622
(dp2623
g62
(dp2624
g82
g83
ssg71
g2618
sg64
(lp2625
S'extension'
p2626
asbag57
(g78
g59
NtRp2627
(dp2628
g62
(dp2629
g89
g90
ssg71
g2618
sg64
(lp2630
S':'
asbag57
(g78
g59
NtRp2631
(dp2632
g62
(dp2633
sg71
g2618
sg64
(lp2634
g57
(g58
g59
NtRp2635
(dp2636
g62
(dp2637
g70
I5
ssg71
g2631
sg64
(lp2638
S'html'
p2639
asbasbasbag57
(g73
g59
NtRp2640
(dp2641
g62
(dp2642
sg71
g67
sg64
(lp2643
g57
(g78
g59
NtRp2644
(dp2645
g62
(dp2646
g82
g83
ssg71
g2640
sg64
(lp2647
S'folder'
p2648
asbag57
(g78
g59
NtRp2649
(dp2650
g62
(dp2651
g89
g90
ssg71
g2640
sg64
(lp2652
S':'
asbag57
(g78
g59
NtRp2653
(dp2654
g62
(dp2655
sg71
g2640
sg64
(lp2656
g57
(g58
g59
NtRp2657
(dp2658
g62
(dp2659
g70
I5
ssg71
g2653
sg64
(lp2660
S'/home/nishant/Acaedmics/Sem-2/ITWS-2/web2py/applications/backimg/'
p2661
asbasbasbag57
(g73
g59
NtRp2662
(dp2663
g62
(dp2664
sg71
g67
sg64
(lp2665
g57
(g78
g59
NtRp2666
(dp2667
g62
(dp2668
g82
g83
ssg71
g2662
sg64
(lp2669
S'function'
p2670
asbag57
(g78
g59
NtRp2671
(dp2672
g62
(dp2673
g89
g90
ssg71
g2662
sg64
(lp2674
S':'
asbag57
(g78
g59
NtRp2675
(dp2676
g62
(dp2677
sg71
g2662
sg64
(lp2678
g57
(g58
g59
NtRp2679
(dp2680
g62
(dp2681
g70
I5
ssg71
g2675
sg64
(lp2682
S'single_company_msg'
p2683
asbasbasbag57
(g73
g59
NtRp2684
(dp2685
g62
(dp2686
sg71
g67
sg64
(lp2687
g57
(g78
g59
NtRp2688
(dp2689
g62
(dp2690
g82
g83
ssg71
g2684
sg64
(lp2691
S'get_vars'
p2692
asbag57
(g78
g59
NtRp2693
(dp2694
g62
(dp2695
g89
g90
ssg71
g2684
sg64
(lp2696
S':'
asbag57
(g78
g59
NtRp2697
(dp2698
g62
(dp2699
sg71
g2684
sg64
(lp2700
g57
(g58
g59
NtRp2701
(dp2702
g62
(dp2703
g70
I5
ssg71
g2697
sg64
(lp2704
g57
(g66
g59
NtRp2705
(dp2706
g62
(dp2707
g70
I4
ssg71
Nsg64
(lp2708
sbasbasbasbag57
(g73
g59
NtRp2709
(dp2710
g62
(dp2711
sg71
g67
sg64
(lp2712
g57
(g78
g59
NtRp2713
(dp2714
g62
(dp2715
g82
g83
ssg71
g2709
sg64
(lp2716
S'global_settings'
p2717
asbag57
(g78
g59
NtRp2718
(dp2719
g62
(dp2720
g89
g90
ssg71
g2709
sg64
(lp2721
S':'
asbag57
(g78
g59
NtRp2722
(dp2723
g62
(dp2724
sg71
g2709
sg64
(lp2725
g57
(g58
g59
NtRp2726
(dp2727
g62
(dp2728
g70
I5
ssg71
g2722
sg64
(lp2729
g57
(g66
g59
NtRp2730
(dp2731
g62
(dp2732
g70
I4
ssg71
Nsg64
(lp2733
g57
(g73
g59
NtRp2734
(dp2735
g62
(dp2736
sg71
g2730
sg64
(lp2737
g57
(g78
g59
NtRp2738
(dp2739
g62
(dp2740
g82
g83
ssg71
g2734
sg64
(lp2741
g1615
asbag57
(g78
g59
NtRp2742
(dp2743
g62
(dp2744
g89
g90
ssg71
g2734
sg64
(lp2745
S':'
asbag57
(g78
g59
NtRp2746
(dp2747
g62
(dp2748
sg71
g2734
sg64
(lp2749
g57
(g58
g59
NtRp2750
(dp2751
g62
(dp2752
g70
I4
ssg71
g2746
sg64
(lp2753
S"set(['/home/nishant/Acaedmics/Sem-2/ITWS-2/web2py/applications/backimg/', '/home/nishant/Acaedmics/Sem-2/ITWS-2/web2py/applications/admin/'])"
p2754
asbasbasbag57
(g73
g59
NtRp2755
(dp2756
g62
(dp2757
sg71
g2730
sg64
(lp2758
g57
(g78
g59
NtRp2759
(dp2760
g62
(dp2761
g82
g83
ssg71
g2755
sg64
(lp2762
g1637
asbag57
(g78
g59
NtRp2763
(dp2764
g62
(dp2765
g89
g90
ssg71
g2755
sg64
(lp2766
S':'
asbag57
(g78
g59
NtRp2767
(dp2768
g62
(dp2769
sg71
g2755
sg64
(lp2770
g57
(g58
g59
NtRp2771
(dp2772
g62
(dp2773
g70
I4
ssg71
g2767
sg64
(lp2774
g1650
asbasbasbag57
(g73
g59
NtRp2775
(dp2776
g62
(dp2777
sg71
g2730
sg64
(lp2778
g57
(g78
g59
NtRp2779
(dp2780
g62
(dp2781
g82
g83
ssg71
g2775
sg64
(lp2782
g1659
asbag57
(g78
g59
NtRp2783
(dp2784
g62
(dp2785
g89
g90
ssg71
g2775
sg64
(lp2786
S':'
asbag57
(g78
g59
NtRp2787
(dp2788
g62
(dp2789
sg71
g2775
sg64
(lp2790
g57
(g58
g59
NtRp2791
(dp2792
g62
(dp2793
g70
I4
ssg71
g2787
sg64
(lp2794
g57
(g66
g59
NtRp2795
(dp2796
g62
(dp2797
g70
I3
ssg71
Nsg64
(lp2798
sbasbasbasbag57
(g73
g59
NtRp2799
(dp2800
g62
(dp2801
sg71
g2730
sg64
(lp2802
g57
(g78
g59
NtRp2803
(dp2804
g62
(dp2805
g82
g83
ssg71
g2799
sg64
(lp2806
g1684
asbag57
(g78
g59
NtRp2807
(dp2808
g62
(dp2809
g89
g90
ssg71
g2799
sg64
(lp2810
S':'
asbag57
(g78
g59
NtRp2811
(dp2812
g62
(dp2813
sg71
g2799
sg64
(lp2814
g57
(g58
g59
NtRp2815
(dp2816
g62
(dp2817
g70
I4
ssg71
g2811
sg64
(lp2818
S"<Values at 0x990450c: {'verbose': False, 'ip': '127.0.0.1', 'with_scheduler': False, 'ips': [], 'shutdown_timeout': 5, 'taskbar': False, 'port': 8000, 'maxthreads': None, 'softcron': False, 'server_name': 'Nishant', 'bpython': False, 'nogui': False, 'pid_filename': 'httpserver.pid', 'extcron': False, 'runcron': False, 'run_system_tests': False, 'test': None, 'folder': '/home/nishant/Acaedmics/Sem-2/ITWS-2/web2py', 'config': '', 'import_models': False, 'winservice': '', 'shell': None, 'run': '', 'log_filename': 'httpserver.log', 'debuglevel': 30, 'args': [''], 'socket_timeout': 5, 'ssl_ca_certificate': None, 'scheduler': None, 'profiler_filename': None, 'ssl_private_key': '', 'scheduler_groups': None, 'password': 'a', 'request_queue_size': 5, 'ssl_certificate': '', 'cronjob': False, 'numthreads': None, 'quiet': False, 'interfaces': None, 'minthreads': None, 'timeout': 10, 'plain': False, 'nobanner': False}>"
p2819
asbasbasbag57
(g73
g59
NtRp2820
(dp2821
g62
(dp2822
sg71
g2730
sg64
(lp2823
g57
(g78
g59
NtRp2824
(dp2825
g62
(dp2826
g82
g83
ssg71
g2820
sg64
(lp2827
g1706
asbag57
(g78
g59
NtRp2828
(dp2829
g62
(dp2830
g89
g90
ssg71
g2820
sg64
(lp2831
S':'
asbag57
(g78
g59
NtRp2832
(dp2833
g62
(dp2834
sg71
g2820
sg64
(lp2835
g57
(g58
g59
NtRp2836
(dp2837
g62
(dp2838
g70
I4
ssg71
g2832
sg64
(lp2839
S'set([])'
p2840
asbasbasbag57
(g73
g59
NtRp2841
(dp2842
g62
(dp2843
sg71
g2730
sg64
(lp2844
g57
(g78
g59
NtRp2845
(dp2846
g62
(dp2847
g82
g83
ssg71
g2841
sg64
(lp2848
g1728
asbag57
(g78
g59
NtRp2849
(dp2850
g62
(dp2851
g89
g90
ssg71
g2841
sg64
(lp2852
S':'
asbag57
(g78
g59
NtRp2853
(dp2854
g62
(dp2855
sg71
g2841
sg64
(lp2856
g57
(g58
g59
NtRp2857
(dp2858
g62
(dp2859
g70
I4
ssg71
g2853
sg64
(lp2860
g100
asbasbasbag57
(g73
g59
NtRp2861
(dp2862
g62
(dp2863
sg71
g2730
sg64
(lp2864
g57
(g78
g59
NtRp2865
(dp2866
g62
(dp2867
g82
g83
ssg71
g2861
sg64
(lp2868
g1749
asbag57
(g78
g59
NtRp2869
(dp2870
g62
(dp2871
g89
g90
ssg71
g2861
sg64
(lp2872
S':'
asbag57
(g78
g59
NtRp2873
(dp2874
g62
(dp2875
sg71
g2861
sg64
(lp2876
g57
(g58
g59
NtRp2877
(dp2878
g62
(dp2879
g70
I4
ssg71
g2873
sg64
(lp2880
g1762
asbasbasbag57
(g73
g59
NtRp2881
(dp2882
g62
(dp2883
sg71
g2730
sg64
(lp2884
g57
(g78
g59
NtRp2885
(dp2886
g62
(dp2887
g82
g83
ssg71
g2881
sg64
(lp2888
g1947
asbag57
(g78
g59
NtRp2889
(dp2890
g62
(dp2891
g89
g90
ssg71
g2881
sg64
(lp2892
S':'
asbag57
(g78
g59
NtRp2893
(dp2894
g62
(dp2895
sg71
g2881
sg64
(lp2896
g57
(g58
g59
NtRp2897
(dp2898
g62
(dp2899
g70
I4
ssg71
g2893
sg64
(lp2900
g100
asbasbasbag57
(g73
g59
NtRp2901
(dp2902
g62
(dp2903
sg71
g2730
sg64
(lp2904
g57
(g78
g59
NtRp2905
(dp2906
g62
(dp2907
g82
g83
ssg71
g2901
sg64
(lp2908
g1968
asbag57
(g78
g59
NtRp2909
(dp2910
g62
(dp2911
g89
g90
ssg71
g2901
sg64
(lp2912
S':'
asbag57
(g78
g59
NtRp2913
(dp2914
g62
(dp2915
sg71
g2901
sg64
(lp2916
g57
(g58
g59
NtRp2917
(dp2918
g62
(dp2919
g70
I4
ssg71
g2913
sg64
(lp2920
g100
asbasbasbag57
(g73
g59
NtRp2921
(dp2922
g62
(dp2923
sg71
g2730
sg64
(lp2924
g57
(g78
g59
NtRp2925
(dp2926
g62
(dp2927
g82
g83
ssg71
g2921
sg64
(lp2928
g1989
asbag57
(g78
g59
NtRp2929
(dp2930
g62
(dp2931
g89
g90
ssg71
g2921
sg64
(lp2932
S':'
asbag57
(g78
g59
NtRp2933
(dp2934
g62
(dp2935
sg71
g2921
sg64
(lp2936
g57
(g58
g59
NtRp2937
(dp2938
g62
(dp2939
g70
I4
ssg71
g2933
sg64
(lp2940
g57
(g66
g59
NtRp2941
(dp2942
g62
(dp2943
g70
I3
ssg71
Nsg64
(lp2944
g57
(g73
g59
NtRp2945
(dp2946
g62
(dp2947
sg71
g2941
sg64
(lp2948
g57
(g78
g59
NtRp2949
(dp2950
g62
(dp2951
sg71
g2945
sg64
(lp2952
g57
(g58
g59
NtRp2953
(dp2954
g62
(dp2955
g70
I3
ssg71
g2949
sg64
(lp2956
g2018
asbasbasbag57
(g73
g59
NtRp2957
(dp2958
g62
(dp2959
sg71
g2941
sg64
(lp2960
g57
(g78
g59
NtRp2961
(dp2962
g62
(dp2963
sg71
g2957
sg64
(lp2964
g57
(g58
g59
NtRp2965
(dp2966
g62
(dp2967
g70
I3
ssg71
g2961
sg64
(lp2968
g2031
asbasbasbag57
(g73
g59
NtRp2969
(dp2970
g62
(dp2971
sg71
g2941
sg64
(lp2972
g57
(g78
g59
NtRp2973
(dp2974
g62
(dp2975
sg71
g2969
sg64
(lp2976
g57
(g58
g59
NtRp2977
(dp2978
g62
(dp2979
g70
I3
ssg71
g2973
sg64
(lp2980
g2044
asbasbasbag57
(g73
g59
NtRp2981
(dp2982
g62
(dp2983
sg71
g2941
sg64
(lp2984
g57
(g78
g59
NtRp2985
(dp2986
g62
(dp2987
sg71
g2981
sg64
(lp2988
g57
(g58
g59
NtRp2989
(dp2990
g62
(dp2991
g70
I3
ssg71
g2985
sg64
(lp2992
g2057
asbasbasbag57
(g73
g59
NtRp2993
(dp2994
g62
(dp2995
sg71
g2941
sg64
(lp2996
g57
(g78
g59
NtRp2997
(dp2998
g62
(dp2999
sg71
g2993
sg64
(lp3000
g57
(g58
g59
NtRp3001
(dp3002
g62
(dp3003
g70
I3
ssg71
g2997
sg64
(lp3004
g2070
asbasbasbasbasbasbasbag57
(g73
g59
NtRp3005
(dp3006
g62
(dp3007
sg71
g2730
sg64
(lp3008
g57
(g78
g59
NtRp3009
(dp3010
g62
(dp3011
g82
g83
ssg71
g3005
sg64
(lp3012
g2338
asbag57
(g78
g59
NtRp3013
(dp3014
g62
(dp3015
g89
g90
ssg71
g3005
sg64
(lp3016
S':'
asbag57
(g78
g59
NtRp3017
(dp3018
g62
(dp3019
sg71
g3005
sg64
(lp3020
g57
(g58
g59
NtRp3021
(dp3022
g62
(dp3023
g70
I4
ssg71
g3017
sg64
(lp3024
g57
(g66
g59
NtRp3025
(dp3026
g62
(dp3027
g70
I3
ssg71
Nsg64
(lp3028
g57
(g73
g59
NtRp3029
(dp3030
g62
(dp3031
sg71
g3025
sg64
(lp3032
g57
(g78
g59
NtRp3033
(dp3034
g62
(dp3035
sg71
g3029
sg64
(lp3036
g57
(g58
g59
NtRp3037
(dp3038
g62
(dp3039
g70
I3
ssg71
g3033
sg64
(lp3040
S'2'
asbasbasbag57
(g73
g59
NtRp3041
(dp3042
g62
(dp3043
sg71
g3025
sg64
(lp3044
g57
(g78
g59
NtRp3045
(dp3046
g62
(dp3047
sg71
g3041
sg64
(lp3048
g57
(g58
g59
NtRp3049
(dp3050
g62
(dp3051
g70
I3
ssg71
g3045
sg64
(lp3052
S'4'
asbasbasbag57
(g73
g59
NtRp3053
(dp3054
g62
(dp3055
sg71
g3025
sg64
(lp3056
g57
(g78
g59
NtRp3057
(dp3058
g62
(dp3059
sg71
g3053
sg64
(lp3060
g57
(g58
g59
NtRp3061
(dp3062
g62
(dp3063
g70
I3
ssg71
g3057
sg64
(lp3064
S'1'
asbasbasbag57
(g73
g59
NtRp3065
(dp3066
g62
(dp3067
sg71
g3025
sg64
(lp3068
g57
(g78
g59
NtRp3069
(dp3070
g62
(dp3071
sg71
g3065
sg64
(lp3072
g57
(g58
g59
NtRp3073
(dp3074
g62
(dp3075
g70
I3
ssg71
g3069
sg64
(lp3076
g2403
asbasbasbag57
(g73
g59
NtRp3077
(dp3078
g62
(dp3079
sg71
g3025
sg64
(lp3080
g57
(g78
g59
NtRp3081
(dp3082
g62
(dp3083
sg71
g3077
sg64
(lp3084
g57
(g58
g59
NtRp3085
(dp3086
g62
(dp3087
g70
I3
ssg71
g3081
sg64
(lp3088
S'datetime.datetime(2013, 1, 10, 21, 26, 18)'
p3089
asbasbasbasbasbasbasbasbasbasbasbag57
(g73
g59
NtRp3090
(dp3091
g62
(dp3092
sg71
g67
sg64
(lp3093
g57
(g78
g59
NtRp3094
(dp3095
g62
(dp3096
g82
g83
ssg71
g3090
sg64
(lp3097
S'is_https'
p3098
asbag57
(g78
g59
NtRp3099
(dp3100
g62
(dp3101
g89
g90
ssg71
g3090
sg64
(lp3102
S':'
asbag57
(g78
g59
NtRp3103
(dp3104
g62
(dp3105
sg71
g3090
sg64
(lp3106
g57
(g58
g59
NtRp3107
(dp3108
g62
(dp3109
g70
I5
ssg71
g3103
sg64
(lp3110
g100
asbasbasbag57
(g73
g59
NtRp3111
(dp3112
g62
(dp3113
sg71
g67
sg64
(lp3114
g57
(g78
g59
NtRp3115
(dp3116
g62
(dp3117
g82
g83
ssg71
g3111
sg64
(lp3118
S'is_local'
p3119
asbag57
(g78
g59
NtRp3120
(dp3121
g62
(dp3122
g89
g90
ssg71
g3111
sg64
(lp3123
S':'
asbag57
(g78
g59
NtRp3124
(dp3125
g62
(dp3126
sg71
g3111
sg64
(lp3127
g57
(g58
g59
NtRp3128
(dp3129
g62
(dp3130
g70
I5
ssg71
g3124
sg64
(lp3131
g2525
asbasbasbag57
(g73
g59
NtRp3132
(dp3133
g62
(dp3134
sg71
g67
sg64
(lp3135
g57
(g78
g59
NtRp3136
(dp3137
g62
(dp3138
g82
g83
ssg71
g3132
sg64
(lp3139
S'is_restful'
p3140
asbag57
(g78
g59
NtRp3141
(dp3142
g62
(dp3143
g89
g90
ssg71
g3132
sg64
(lp3144
S':'
asbag57
(g78
g59
NtRp3145
(dp3146
g62
(dp3147
sg71
g3132
sg64
(lp3148
g57
(g58
g59
NtRp3149
(dp3150
g62
(dp3151
g70
I5
ssg71
g3145
sg64
(lp3152
g100
asbasbasbag57
(g73
g59
NtRp3153
(dp3154
g62
(dp3155
sg71
g67
sg64
(lp3156
g57
(g78
g59
NtRp3157
(dp3158
g62
(dp3159
g82
g83
ssg71
g3153
sg64
(lp3160
S'now'
p3161
asbag57
(g78
g59
NtRp3162
(dp3163
g62
(dp3164
g89
g90
ssg71
g3153
sg64
(lp3165
S':'
asbag57
(g78
g59
NtRp3166
(dp3167
g62
(dp3168
sg71
g3153
sg64
(lp3169
g57
(g58
g59
NtRp3170
(dp3171
g62
(dp3172
g70
I5
ssg71
g3166
sg64
(lp3173
S'datetime.datetime(2013, 4, 30, 15, 55, 23, 22477)'
p3174
asbasbasbag57
(g73
g59
NtRp3175
(dp3176
g62
(dp3177
sg71
g67
sg64
(lp3178
g57
(g78
g59
NtRp3179
(dp3180
g62
(dp3181
g82
g83
ssg71
g3175
sg64
(lp3182
S'post_vars'
p3183
asbag57
(g78
g59
NtRp3184
(dp3185
g62
(dp3186
g89
g90
ssg71
g3175
sg64
(lp3187
S':'
asbag57
(g78
g59
NtRp3188
(dp3189
g62
(dp3190
sg71
g3175
sg64
(lp3191
g57
(g58
g59
NtRp3192
(dp3193
g62
(dp3194
g70
I5
ssg71
g3188
sg64
(lp3195
g57
(g66
g59
NtRp3196
(dp3197
g62
(dp3198
g70
I4
ssg71
Nsg64
(lp3199
sbasbasbasbag57
(g73
g59
NtRp3200
(dp3201
g62
(dp3202
sg71
g67
sg64
(lp3203
g57
(g78
g59
NtRp3204
(dp3205
g62
(dp3206
g82
g83
ssg71
g3200
sg64
(lp3207
S'raw_args'
p3208
asbag57
(g78
g59
NtRp3209
(dp3210
g62
(dp3211
g89
g90
ssg71
g3200
sg64
(lp3212
S':'
asbag57
(g78
g59
NtRp3213
(dp3214
g62
(dp3215
sg71
g3200
sg64
(lp3216
g57
(g58
g59
NtRp3217
(dp3218
g62
(dp3219
g70
I5
ssg71
g3213
sg64
(lp3220
S'2'
asbasbasbag57
(g73
g59
NtRp3221
(dp3222
g62
(dp3223
sg71
g67
sg64
(lp3224
g57
(g78
g59
NtRp3225
(dp3226
g62
(dp3227
g82
g83
ssg71
g3221
sg64
(lp3228
S'raw_extension'
p3229
asbag57
(g78
g59
NtRp3230
(dp3231
g62
(dp3232
g89
g90
ssg71
g3221
sg64
(lp3233
S':'
asbag57
(g78
g59
NtRp3234
(dp3235
g62
(dp3236
sg71
g3221
sg64
(lp3237
g57
(g58
g59
NtRp3238
(dp3239
g62
(dp3240
g70
I5
ssg71
g3234
sg64
(lp3241
S'None'
p3242
asbasbasbag57
(g73
g59
NtRp3243
(dp3244
g62
(dp3245
sg71
g67
sg64
(lp3246
g57
(g78
g59
NtRp3247
(dp3248
g62
(dp3249
g82
g83
ssg71
g3243
sg64
(lp3250
S'url'
p3251
asbag57
(g78
g59
NtRp3252
(dp3253
g62
(dp3254
g89
g90
ssg71
g3243
sg64
(lp3255
S':'
asbag57
(g78
g59
NtRp3256
(dp3257
g62
(dp3258
sg71
g3243
sg64
(lp3259
g57
(g58
g59
NtRp3260
(dp3261
g62
(dp3262
g70
I5
ssg71
g3256
sg64
(lp3263
g2092
asbasbasbag57
(g73
g59
NtRp3264
(dp3265
g62
(dp3266
sg71
g67
sg64
(lp3267
g57
(g78
g59
NtRp3268
(dp3269
g62
(dp3270
g82
g83
ssg71
g3264
sg64
(lp3271
S'utcnow'
p3272
asbag57
(g78
g59
NtRp3273
(dp3274
g62
(dp3275
g89
g90
ssg71
g3264
sg64
(lp3276
S':'
asbag57
(g78
g59
NtRp3277
(dp3278
g62
(dp3279
sg71
g3264
sg64
(lp3280
g57
(g58
g59
NtRp3281
(dp3282
g62
(dp3283
g70
I5
ssg71
g3277
sg64
(lp3284
S'datetime.datetime(2013, 4, 30, 10, 25, 23, 22514)'
p3285
asbasbasbag57
(g73
g59
NtRp3286
(dp3287
g62
(dp3288
sg71
g67
sg64
(lp3289
g57
(g78
g59
NtRp3290
(dp3291
g62
(dp3292
g82
g83
ssg71
g3286
sg64
(lp3293
S'uuid'
p3294
asbag57
(g78
g59
NtRp3295
(dp3296
g62
(dp3297
g89
g90
ssg71
g3286
sg64
(lp3298
S':'
asbag57
(g78
g59
NtRp3299
(dp3300
g62
(dp3301
sg71
g3286
sg64
(lp3302
g57
(g58
g59
NtRp3303
(dp3304
g62
(dp3305
g70
I5
ssg71
g3299
sg64
(lp3306
S'backimg/127.0.0.1.2013-04-30.15-55-23.1245cc35-e478-45cc-8bc8-5672f8d56fff'
p3307
asbasbasbag57
(g73
g59
NtRp3308
(dp3309
g62
(dp3310
sg71
g67
sg64
(lp3311
g57
(g78
g59
NtRp3312
(dp3313
g62
(dp3314
g82
g83
ssg71
g3308
sg64
(lp3315
S'vars'
p3316
asbag57
(g78
g59
NtRp3317
(dp3318
g62
(dp3319
g89
g90
ssg71
g3308
sg64
(lp3320
S':'
asbag57
(g78
g59
NtRp3321
(dp3322
g62
(dp3323
sg71
g3308
sg64
(lp3324
g57
(g58
g59
NtRp3325
(dp3326
g62
(dp3327
g70
I5
ssg71
g3321
sg64
(lp3328
g57
(g66
g59
NtRp3329
(dp3330
g62
(dp3331
g70
I4
ssg71
Nsg64
(lp3332
sbasbasbasbag57
(g73
g59
NtRp3333
(dp3334
g62
(dp3335
sg71
g67
sg64
(lp3336
g57
(g78
g59
NtRp3337
(dp3338
g62
(dp3339
g82
g83
ssg71
g3333
sg64
(lp3340
S'wsgi'
p3341
asbag57
(g78
g59
NtRp3342
(dp3343
g62
(dp3344
g89
g90
ssg71
g3333
sg64
(lp3345
S':'
asbag57
(g78
g59
NtRp3346
(dp3347
g62
(dp3348
sg71
g3333
sg64
(lp3349
g57
(g58
g59
NtRp3350
(dp3351
g62
(dp3352
g70
I5
ssg71
g3346
sg64
(lp3353
g57
(g66
g59
NtRp3354
(dp3355
g62
(dp3356
g70
I4
ssg71
Nsg64
(lp3357
g57
(g73
g59
NtRp3358
(dp3359
g62
(dp3360
sg71
g3354
sg64
(lp3361
g57
(g78
g59
NtRp3362
(dp3363
g62
(dp3364
g82
g83
ssg71
g3358
sg64
(lp3365
S'environ'
p3366
asbag57
(g78
g59
NtRp3367
(dp3368
g62
(dp3369
g89
g90
ssg71
g3358
sg64
(lp3370
S':'
asbag57
(g78
g59
NtRp3371
(dp3372
g62
(dp3373
sg71
g3358
sg64
(lp3374
g57
(g58
g59
NtRp3375
(dp3376
g62
(dp3377
g70
I4
ssg71
g3371
sg64
(lp3378
g57
(g66
g59
NtRp3379
(dp3380
g62
(dp3381
g70
I3
ssg71
Nsg64
(lp3382
g57
(g73
g59
NtRp3383
(dp3384
g62
(dp3385
sg71
g3379
sg64
(lp3386
g57
(g78
g59
NtRp3387
(dp3388
g62
(dp3389
g82
g83
ssg71
g3383
sg64
(lp3390
S'HTTP_ACCEPT'
p3391
asbag57
(g78
g59
NtRp3392
(dp3393
g62
(dp3394
g89
g90
ssg71
g3383
sg64
(lp3395
S':'
asbag57
(g78
g59
NtRp3396
(dp3397
g62
(dp3398
sg71
g3383
sg64
(lp3399
g57
(g58
g59
NtRp3400
(dp3401
g62
(dp3402
g70
I3
ssg71
g3396
sg64
(lp3403
g1784
asbasbasbag57
(g73
g59
NtRp3404
(dp3405
g62
(dp3406
sg71
g3379
sg64
(lp3407
g57
(g78
g59
NtRp3408
(dp3409
g62
(dp3410
g82
g83
ssg71
g3404
sg64
(lp3411
S'HTTP_ACCEPT_ENCODING'
p3412
asbag57
(g78
g59
NtRp3413
(dp3414
g62
(dp3415
g89
g90
ssg71
g3404
sg64
(lp3416
S':'
asbag57
(g78
g59
NtRp3417
(dp3418
g62
(dp3419
sg71
g3404
sg64
(lp3420
g57
(g58
g59
NtRp3421
(dp3422
g62
(dp3423
g70
I3
ssg71
g3417
sg64
(lp3424
g1806
asbasbasbag57
(g73
g59
NtRp3425
(dp3426
g62
(dp3427
sg71
g3379
sg64
(lp3428
g57
(g78
g59
NtRp3429
(dp3430
g62
(dp3431
g82
g83
ssg71
g3425
sg64
(lp3432
S'HTTP_ACCEPT_LANGUAGE'
p3433
asbag57
(g78
g59
NtRp3434
(dp3435
g62
(dp3436
g89
g90
ssg71
g3425
sg64
(lp3437
S':'
asbag57
(g78
g59
NtRp3438
(dp3439
g62
(dp3440
sg71
g3425
sg64
(lp3441
g57
(g58
g59
NtRp3442
(dp3443
g62
(dp3444
g70
I3
ssg71
g3438
sg64
(lp3445
g1828
asbasbasbag57
(g73
g59
NtRp3446
(dp3447
g62
(dp3448
sg71
g3379
sg64
(lp3449
g57
(g78
g59
NtRp3450
(dp3451
g62
(dp3452
g82
g83
ssg71
g3446
sg64
(lp3453
S'HTTP_CONNECTION'
p3454
asbag57
(g78
g59
NtRp3455
(dp3456
g62
(dp3457
g89
g90
ssg71
g3446
sg64
(lp3458
S':'
asbag57
(g78
g59
NtRp3459
(dp3460
g62
(dp3461
sg71
g3446
sg64
(lp3462
g57
(g58
g59
NtRp3463
(dp3464
g62
(dp3465
g70
I3
ssg71
g3459
sg64
(lp3466
g1850
asbasbasbag57
(g73
g59
NtRp3467
(dp3468
g62
(dp3469
sg71
g3379
sg64
(lp3470
g57
(g78
g59
NtRp3471
(dp3472
g62
(dp3473
g82
g83
ssg71
g3467
sg64
(lp3474
S'HTTP_COOKIE'
p3475
asbag57
(g78
g59
NtRp3476
(dp3477
g62
(dp3478
g89
g90
ssg71
g3467
sg64
(lp3479
S':'
asbag57
(g78
g59
NtRp3480
(dp3481
g62
(dp3482
sg71
g3467
sg64
(lp3483
g57
(g58
g59
NtRp3484
(dp3485
g62
(dp3486
g70
I3
ssg71
g3480
sg64
(lp3487
g1872
asbasbasbag57
(g73
g59
NtRp3488
(dp3489
g62
(dp3490
sg71
g3379
sg64
(lp3491
g57
(g78
g59
NtRp3492
(dp3493
g62
(dp3494
g82
g83
ssg71
g3488
sg64
(lp3495
S'HTTP_HOST'
p3496
asbag57
(g78
g59
NtRp3497
(dp3498
g62
(dp3499
g89
g90
ssg71
g3488
sg64
(lp3500
S':'
asbag57
(g78
g59
NtRp3501
(dp3502
g62
(dp3503
sg71
g3488
sg64
(lp3504
g57
(g58
g59
NtRp3505
(dp3506
g62
(dp3507
g70
I3
ssg71
g3501
sg64
(lp3508
g1894
asbasbasbag57
(g73
g59
NtRp3509
(dp3510
g62
(dp3511
sg71
g3379
sg64
(lp3512
g57
(g78
g59
NtRp3513
(dp3514
g62
(dp3515
g82
g83
ssg71
g3509
sg64
(lp3516
S'HTTP_REFERER'
p3517
asbag57
(g78
g59
NtRp3518
(dp3519
g62
(dp3520
g89
g90
ssg71
g3509
sg64
(lp3521
S':'
asbag57
(g78
g59
NtRp3522
(dp3523
g62
(dp3524
sg71
g3509
sg64
(lp3525
g57
(g58
g59
NtRp3526
(dp3527
g62
(dp3528
g70
I3
ssg71
g3522
sg64
(lp3529
g1916
asbasbasbag57
(g73
g59
NtRp3530
(dp3531
g62
(dp3532
sg71
g3379
sg64
(lp3533
g57
(g78
g59
NtRp3534
(dp3535
g62
(dp3536
g82
g83
ssg71
g3530
sg64
(lp3537
S'HTTP_USER_AGENT'
p3538
asbag57
(g78
g59
NtRp3539
(dp3540
g62
(dp3541
g89
g90
ssg71
g3530
sg64
(lp3542
S':'
asbag57
(g78
g59
NtRp3543
(dp3544
g62
(dp3545
sg71
g3530
sg64
(lp3546
g57
(g58
g59
NtRp3547
(dp3548
g62
(dp3549
g70
I3
ssg71
g3543
sg64
(lp3550
g1938
asbasbasbag57
(g73
g59
NtRp3551
(dp3552
g62
(dp3553
sg71
g3379
sg64
(lp3554
g57
(g78
g59
NtRp3555
(dp3556
g62
(dp3557
g82
g83
ssg71
g3551
sg64
(lp3558
S'PATH_INFO'
p3559
asbag57
(g78
g59
NtRp3560
(dp3561
g62
(dp3562
g89
g90
ssg71
g3551
sg64
(lp3563
S':'
asbag57
(g78
g59
NtRp3564
(dp3565
g62
(dp3566
sg71
g3551
sg64
(lp3567
g57
(g58
g59
NtRp3568
(dp3569
g62
(dp3570
g70
I3
ssg71
g3564
sg64
(lp3571
g2092
asbasbasbag57
(g73
g59
NtRp3572
(dp3573
g62
(dp3574
sg71
g3379
sg64
(lp3575
g57
(g78
g59
NtRp3576
(dp3577
g62
(dp3578
g82
g83
ssg71
g3572
sg64
(lp3579
S'QUERY_STRING'
p3580
asbag57
(g78
g59
NtRp3581
(dp3582
g62
(dp3583
g89
g90
ssg71
g3572
sg64
(lp3584
S':'
asbag57
(g78
g59
NtRp3585
(dp3586
g62
(dp3587
sg71
g3572
sg64
(lp3588
g57
(g58
g59
NtRp3589
(dp3590
g62
(dp3591
g70
I3
ssg71
g3585
sg64
(lp3592
S''
asbasbasbag57
(g73
g59
NtRp3593
(dp3594
g62
(dp3595
sg71
g3379
sg64
(lp3596
g57
(g78
g59
NtRp3597
(dp3598
g62
(dp3599
g82
g83
ssg71
g3593
sg64
(lp3600
S'REMOTE_ADDR'
p3601
asbag57
(g78
g59
NtRp3602
(dp3603
g62
(dp3604
g89
g90
ssg71
g3593
sg64
(lp3605
S':'
asbag57
(g78
g59
NtRp3606
(dp3607
g62
(dp3608
sg71
g3593
sg64
(lp3609
g57
(g58
g59
NtRp3610
(dp3611
g62
(dp3612
g70
I3
ssg71
g3606
sg64
(lp3613
g224
asbasbasbag57
(g73
g59
NtRp3614
(dp3615
g62
(dp3616
sg71
g3379
sg64
(lp3617
g57
(g78
g59
NtRp3618
(dp3619
g62
(dp3620
g82
g83
ssg71
g3614
sg64
(lp3621
S'REMOTE_PORT'
p3622
asbag57
(g78
g59
NtRp3623
(dp3624
g62
(dp3625
g89
g90
ssg71
g3614
sg64
(lp3626
S':'
asbag57
(g78
g59
NtRp3627
(dp3628
g62
(dp3629
sg71
g3614
sg64
(lp3630
g57
(g58
g59
NtRp3631
(dp3632
g62
(dp3633
g70
I3
ssg71
g3627
sg64
(lp3634
g2156
asbasbasbag57
(g73
g59
NtRp3635
(dp3636
g62
(dp3637
sg71
g3379
sg64
(lp3638
g57
(g78
g59
NtRp3639
(dp3640
g62
(dp3641
g82
g83
ssg71
g3635
sg64
(lp3642
S'REQUEST_METHOD'
p3643
asbag57
(g78
g59
NtRp3644
(dp3645
g62
(dp3646
g89
g90
ssg71
g3635
sg64
(lp3647
S':'
asbag57
(g78
g59
NtRp3648
(dp3649
g62
(dp3650
sg71
g3635
sg64
(lp3651
g57
(g58
g59
NtRp3652
(dp3653
g62
(dp3654
g70
I3
ssg71
g3648
sg64
(lp3655
g2178
asbasbasbag57
(g73
g59
NtRp3656
(dp3657
g62
(dp3658
sg71
g3379
sg64
(lp3659
g57
(g78
g59
NtRp3660
(dp3661
g62
(dp3662
g82
g83
ssg71
g3656
sg64
(lp3663
S'REQUEST_URI'
p3664
asbag57
(g78
g59
NtRp3665
(dp3666
g62
(dp3667
g89
g90
ssg71
g3656
sg64
(lp3668
S':'
asbag57
(g78
g59
NtRp3669
(dp3670
g62
(dp3671
sg71
g3656
sg64
(lp3672
g57
(g58
g59
NtRp3673
(dp3674
g62
(dp3675
g70
I3
ssg71
g3669
sg64
(lp3676
g2092
asbasbasbag57
(g73
g59
NtRp3677
(dp3678
g62
(dp3679
sg71
g3379
sg64
(lp3680
g57
(g78
g59
NtRp3681
(dp3682
g62
(dp3683
g82
g83
ssg71
g3677
sg64
(lp3684
S'SCRIPT_NAME'
p3685
asbag57
(g78
g59
NtRp3686
(dp3687
g62
(dp3688
g89
g90
ssg71
g3677
sg64
(lp3689
S':'
asbag57
(g78
g59
NtRp3690
(dp3691
g62
(dp3692
sg71
g3677
sg64
(lp3693
g57
(g58
g59
NtRp3694
(dp3695
g62
(dp3696
g70
I3
ssg71
g3690
sg64
(lp3697
S''
asbasbasbag57
(g73
g59
NtRp3698
(dp3699
g62
(dp3700
sg71
g3379
sg64
(lp3701
g57
(g78
g59
NtRp3702
(dp3703
g62
(dp3704
g82
g83
ssg71
g3698
sg64
(lp3705
S'SERVER_NAME'
p3706
asbag57
(g78
g59
NtRp3707
(dp3708
g62
(dp3709
g89
g90
ssg71
g3698
sg64
(lp3710
S':'
asbag57
(g78
g59
NtRp3711
(dp3712
g62
(dp3713
sg71
g3698
sg64
(lp3714
g57
(g58
g59
NtRp3715
(dp3716
g62
(dp3717
g70
I3
ssg71
g3711
sg64
(lp3718
g2242
asbasbasbag57
(g73
g59
NtRp3719
(dp3720
g62
(dp3721
sg71
g3379
sg64
(lp3722
g57
(g78
g59
NtRp3723
(dp3724
g62
(dp3725
g82
g83
ssg71
g3719
sg64
(lp3726
S'SERVER_PORT'
p3727
asbag57
(g78
g59
NtRp3728
(dp3729
g62
(dp3730
g89
g90
ssg71
g3719
sg64
(lp3731
S':'
asbag57
(g78
g59
NtRp3732
(dp3733
g62
(dp3734
sg71
g3719
sg64
(lp3735
g57
(g58
g59
NtRp3736
(dp3737
g62
(dp3738
g70
I3
ssg71
g3732
sg64
(lp3739
g2264
asbasbasbag57
(g73
g59
NtRp3740
(dp3741
g62
(dp3742
sg71
g3379
sg64
(lp3743
g57
(g78
g59
NtRp3744
(dp3745
g62
(dp3746
g82
g83
ssg71
g3740
sg64
(lp3747
S'SERVER_PROTOCOL'
p3748
asbag57
(g78
g59
NtRp3749
(dp3750
g62
(dp3751
g89
g90
ssg71
g3740
sg64
(lp3752
S':'
asbag57
(g78
g59
NtRp3753
(dp3754
g62
(dp3755
sg71
g3740
sg64
(lp3756
g57
(g58
g59
NtRp3757
(dp3758
g62
(dp3759
g70
I3
ssg71
g3753
sg64
(lp3760
g2286
asbasbasbag57
(g73
g59
NtRp3761
(dp3762
g62
(dp3763
sg71
g3379
sg64
(lp3764
g57
(g78
g59
NtRp3765
(dp3766
g62
(dp3767
g82
g83
ssg71
g3761
sg64
(lp3768
S'SERVER_SOFTWARE'
p3769
asbag57
(g78
g59
NtRp3770
(dp3771
g62
(dp3772
g89
g90
ssg71
g3761
sg64
(lp3773
S':'
asbag57
(g78
g59
NtRp3774
(dp3775
g62
(dp3776
sg71
g3761
sg64
(lp3777
g57
(g58
g59
NtRp3778
(dp3779
g62
(dp3780
g70
I3
ssg71
g3774
sg64
(lp3781
g2308
asbasbasbag57
(g73
g59
NtRp3782
(dp3783
g62
(dp3784
sg71
g3379
sg64
(lp3785
g57
(g78
g59
NtRp3786
(dp3787
g62
(dp3788
g82
g83
ssg71
g3782
sg64
(lp3789
S'wsgi.errors'
p3790
asbag57
(g78
g59
NtRp3791
(dp3792
g62
(dp3793
g89
g90
ssg71
g3782
sg64
(lp3794
S':'
asbag57
(g78
g59
NtRp3795
(dp3796
g62
(dp3797
sg71
g3782
sg64
(lp3798
g57
(g58
g59
NtRp3799
(dp3800
g62
(dp3801
g70
I3
ssg71
g3795
sg64
(lp3802
S"<open file '<stderr>', mode 'w' at 0xb75660d0>"
p3803
asbasbasbag57
(g73
g59
NtRp3804
(dp3805
g62
(dp3806
sg71
g3379
sg64
(lp3807
g57
(g78
g59
NtRp3808
(dp3809
g62
(dp3810
g82
g83
ssg71
g3804
sg64
(lp3811
S'wsgi.file_wrapper'
p3812
asbag57
(g78
g59
NtRp3813
(dp3814
g62
(dp3815
g89
g90
ssg71
g3804
sg64
(lp3816
S':'
asbag57
(g78
g59
NtRp3817
(dp3818
g62
(dp3819
sg71
g3804
sg64
(lp3820
g57
(g58
g59
NtRp3821
(dp3822
g62
(dp3823
g70
I3
ssg71
g3817
sg64
(lp3824
S'<class wsgiref.util.FileWrapper at 0x9886ddc>'
p3825
asbasbasbag57
(g73
g59
NtRp3826
(dp3827
g62
(dp3828
sg71
g3379
sg64
(lp3829
g57
(g78
g59
NtRp3830
(dp3831
g62
(dp3832
g82
g83
ssg71
g3826
sg64
(lp3833
S'wsgi.input'
p3834
asbag57
(g78
g59
NtRp3835
(dp3836
g62
(dp3837
g89
g90
ssg71
g3826
sg64
(lp3838
S':'
asbag57
(g78
g59
NtRp3839
(dp3840
g62
(dp3841
sg71
g3826
sg64
(lp3842
g57
(g58
g59
NtRp3843
(dp3844
g62
(dp3845
g70
I3
ssg71
g3839
sg64
(lp3846
S'<cStringIO.StringO object at 0xaf5c6920>'
p3847
asbasbasbag57
(g73
g59
NtRp3848
(dp3849
g62
(dp3850
sg71
g3379
sg64
(lp3851
g57
(g78
g59
NtRp3852
(dp3853
g62
(dp3854
g82
g83
ssg71
g3848
sg64
(lp3855
S'wsgi.multiprocess'
p3856
asbag57
(g78
g59
NtRp3857
(dp3858
g62
(dp3859
g89
g90
ssg71
g3848
sg64
(lp3860
S':'
asbag57
(g78
g59
NtRp3861
(dp3862
g62
(dp3863
sg71
g3848
sg64
(lp3864
g57
(g58
g59
NtRp3865
(dp3866
g62
(dp3867
g70
I3
ssg71
g3861
sg64
(lp3868
g100
asbasbasbag57
(g73
g59
NtRp3869
(dp3870
g62
(dp3871
sg71
g3379
sg64
(lp3872
g57
(g78
g59
NtRp3873
(dp3874
g62
(dp3875
g82
g83
ssg71
g3869
sg64
(lp3876
S'wsgi.multithread'
p3877
asbag57
(g78
g59
NtRp3878
(dp3879
g62
(dp3880
g89
g90
ssg71
g3869
sg64
(lp3881
S':'
asbag57
(g78
g59
NtRp3882
(dp3883
g62
(dp3884
sg71
g3869
sg64
(lp3885
g57
(g58
g59
NtRp3886
(dp3887
g62
(dp3888
g70
I3
ssg71
g3882
sg64
(lp3889
g2525
asbasbasbag57
(g73
g59
NtRp3890
(dp3891
g62
(dp3892
sg71
g3379
sg64
(lp3893
g57
(g78
g59
NtRp3894
(dp3895
g62
(dp3896
g82
g83
ssg71
g3890
sg64
(lp3897
S'wsgi.run_once'
p3898
asbag57
(g78
g59
NtRp3899
(dp3900
g62
(dp3901
g89
g90
ssg71
g3890
sg64
(lp3902
S':'
asbag57
(g78
g59
NtRp3903
(dp3904
g62
(dp3905
sg71
g3890
sg64
(lp3906
g57
(g58
g59
NtRp3907
(dp3908
g62
(dp3909
g70
I3
ssg71
g3903
sg64
(lp3910
g100
asbasbasbag57
(g73
g59
NtRp3911
(dp3912
g62
(dp3913
sg71
g3379
sg64
(lp3914
g57
(g78
g59
NtRp3915
(dp3916
g62
(dp3917
g82
g83
ssg71
g3911
sg64
(lp3918
S'wsgi.url_scheme'
p3919
asbag57
(g78
g59
NtRp3920
(dp3921
g62
(dp3922
g89
g90
ssg71
g3911
sg64
(lp3923
S':'
asbag57
(g78
g59
NtRp3924
(dp3925
g62
(dp3926
sg71
g3911
sg64
(lp3927
g57
(g58
g59
NtRp3928
(dp3929
g62
(dp3930
g70
I3
ssg71
g3924
sg64
(lp3931
g2568
asbasbasbag57
(g73
g59
NtRp3932
(dp3933
g62
(dp3934
sg71
g3379
sg64
(lp3935
g57
(g78
g59
NtRp3936
(dp3937
g62
(dp3938
g82
g83
ssg71
g3932
sg64
(lp3939
S'wsgi.version'
p3940
asbag57
(g78
g59
NtRp3941
(dp3942
g62
(dp3943
g89
g90
ssg71
g3932
sg64
(lp3944
S':'
asbag57
(g78
g59
NtRp3945
(dp3946
g62
(dp3947
sg71
g3932
sg64
(lp3948
g57
(g58
g59
NtRp3949
(dp3950
g62
(dp3951
g70
I3
ssg71
g3945
sg64
(lp3952
S'1'
asbasbasbasbasbasbasbasbasbasbasbasbasbsS'frames'
p3953
(lp3954
(dp3955
S'file'
p3956
S'/home/nishant/Acaedmics/Sem-2/ITWS-2/web2py/gluon/restricted.py'
p3957
sS'dump'
p3958
(dp3959
S'environment'
p3960
S"{'A': <class 'gluon.html.A'>, 'Auth': <class 'gluon.tools.Auth'>, 'B': <class 'gluon.html.B'>, 'BEAUTIFY': <class 'gluon.html.BEAUTIFY'>, 'BODY': <class 'gluon.html.BODY'>, 'BR': <class 'gluon.html.BR'>, 'BUTTON': <class 'gluon.html.BUTTON'>, 'CAT': <class 'gluon.html.CAT'>, 'CENTER': <class 'gluon.html.CENTER'>, 'CLEANUP': <class 'gluon.validators.CLEANUP'>, ...}"
p3961
sS'ccode'
p3962
S'<code object <module> at 0xaeb42de8, file "/home...cations/backimg/controllers/default.py", line 12>'
p3963
ssS'lnum'
p3964
I212
sS'lines'
p3965
(dp3966
I207
S'    try:'
p3967
sI208
S'        if isinstance(code, types.CodeType):'
p3968
sI209
S'            ccode = code'
p3969
sI210
S'        else:'
p3970
sI211
S'            ccode = compile2(code, layer)'
p3971
sI212
S'        exec ccode in environment'
p3972
sI213
S'    except HTTP:'
p3973
sI214
S'        raise'
p3974
sI215
S'    except RestrictedError:'
p3975
sI216
S'        # do not encapsulate (obfuscate) the original RestrictedError'
p3976
ssS'call'
p3977
S"(code='# -*- coding: utf-8 -*-\\n# this file is released ...ponse._vars=response._caller(single_company_msg)\\n', environment={'A': <class 'gluon.html.A'>, 'Auth': <class 'gluon.tools.Auth'>, 'B': <class 'gluon.html.B'>, 'BEAUTIFY': <class 'gluon.html.BEAUTIFY'>, 'BODY': <class 'gluon.html.BODY'>, 'BR': <class 'gluon.html.BR'>, 'BUTTON': <class 'gluon.html.BUTTON'>, 'CAT': <class 'gluon.html.CAT'>, 'CENTER': <class 'gluon.html.CENTER'>, 'CLEANUP': <class 'gluon.validators.CLEANUP'>, ...}, layer='/home/nishant/Acaedmics/Sem-2/ITWS-2/web2py/applications/backimg/controllers/default.py')"
p3978
sS'func'
p3979
S'restricted'
p3980
sa(dp3981
g3956
S'/home/nishant/Acaedmics/Sem-2/ITWS-2/web2py/applications/backimg/controllers/default.py'
p3982
sg3958
(dp3983
sg3964
I520
sg3965
(dp3984
I512
S'    #pdf.cell(w=60,h=10,txt="",border=2,align=\'L\',fill=\'0\')'
p3985
sI513
S"    pdf.cell(w=60,h=10,txt=r[0].city+', '+r[0].cstate,border=2,ln=1,align='L',fill='0')"
p3986
sI514
S'    #pdf.cell(w=60,h=10,txt="",border=2,align=\'L\',fill=\'0\')'
p3987
sI515
S"    #pdf.cell(w=60,h=10,txt=r[0].cstate,border=2,ln=1,align='L',fill='0')"
p3988
sI516
S''
sI517
S"    response.headers['Content-Type']='application/pdf'"
p3989
sI518
S'    return pdf.output(dest="S")'
p3990
sI509
S'    #pdf.cell(w=40,h=10,txt="Address  :",border=2,align=\'L\',fill=\'0\')'
p3991
sI510
S'    #pdf.cell(w=60,h=10,txt="",border=2,align=\'L\',fill=\'0\')'
p3992
sI511
S"    pdf.cell(w=60,h=10,txt=r[0].address+', ',border=2,ln=1,align='L',fill='0')"
p3993
ssg3977
S'()'
p3994
sg3979
S'<module>'
p3995
sa(dp3996
g3956
S'/home/nishant/Acaedmics/Sem-2/ITWS-2/web2py/gluon/globals.py'
p3997
sg3958
(dp3998
S'self'
p3999
S'undefined'
p4000
sS'f'
S'<function single_company_msg>'
p4001
ssg3964
I193
sg3965
(dp4002
I192
S'        self._vars = None'
p4003
sI193
S'        self._caller = lambda f: f()'
p4004
sI194
S'        self._view_environment = None'
p4005
sI195
S'        self._custom_commit = None'
p4006
sI196
S'        self._custom_rollback = None'
p4007
sI197
S''
sI188
S'        self.menu = []             # used by the default view layout'
p4008
sI189
S'        self.files = []            # used by web2py_ajax.html'
p4009
sI190
S'        self.generic_patterns = []  # patterns to allow generic views'
p4010
sI191
S"        self.delimiters = ('{{', '}}')"
p4011
ssg3977
S'(f=<function single_company_msg>)'
p4012
sg3979
S'<lambda>'
p4013
sa(dp4014
g3956
S'/home/nishant/Acaedmics/Sem-2/ITWS-2/web2py/applications/backimg/controllers/default.py'
p4015
sg3958
(dp4016
S'db.msg.senderid'
p4017
S'<gluon.dal.Field object>'
p4018
sS'db.msg.sub'
p4019
S'<gluon.dal.Field object>'
p4020
sS'global request'
p4021
S"<Storage {'function': 'single_company_msg', 'bod...plications/backimg/', 'post_vars': <Storage {}>}>"
p4022
sS'db.msg.msg'
p4023
S'<gluon.dal.Field object>'
p4024
sS').select'
p4025
g4000
sS'global auth'
p4026
S'<gluon.tools.Auth object>'
p4027
sS'request.args'
p4028
S"['2']"
p4029
sS'db.msg'
p4030
S'<Table msg (id,msg_date,sender,senderid,name,sub,msg)>'
p4031
sS'db.msg.name'
p4032
S'<gluon.dal.Field object>'
p4033
sS'raq'
p4034
g4000
sS'global db'
p4035
S'<DAL uri="sqlite://storage.sqlite">'
p4036
sS'builtinint'
p4037
S"<type 'int'>"
p4038
sS'db.msg.msg_date'
p4039
S'<gluon.dal.Field object>'
p4040
sS'auth.user_id'
p4041
S'6'
ssg3964
I236
sg3965
(dp4042
I231
S'    #else:'
p4043
sI232
S"     #   response.flash='Error(s) in filling form'"
p4044
sI233
S'    return dict(form=form)'
p4045
sI234
S''
sI235
S'def single_company_msg():'
p4046
sI236
S'    raq=db((int(request.args(0))==int(db.msg.senderid)) & (db.msg.name == auth.user_id)).select(db.msg.msg_date,db.msg.sub,db.msg.msg)'
p4047
sI237
S'    print raq'
p4048
sI238
S'    #for msg in dict_companies[i]:'
p4049
sI239
S"        #print 'hi!'"
p4050
sI240
S'    return dict(r=raq)'
p4051
ssg3977
S'()'
p4052
sg3979
S'single_company_msg'
p4053
sasS'pyver'
p4054
S'Python 2.7.3: /usr/bin/python'
p4055
sS'session'
p4056
g57
(g58
g59
NtRp4057
(dp4058
g62
(dp4059
sg64
(lp4060
g57
(g66
g59
NtRp4061
(dp4062
g62
(dp4063
g70
I5
ssg71
Nsg64
(lp4064
g57
(g73
g59
NtRp4065
(dp4066
g62
(dp4067
sg71
g4061
sg64
(lp4068
g57
(g78
g59
NtRp4069
(dp4070
g62
(dp4071
g82
g83
ssg71
g4065
sg64
(lp4072
S'auth'
p4073
asbag57
(g78
g59
NtRp4074
(dp4075
g62
(dp4076
g89
g90
ssg71
g4065
sg64
(lp4077
S':'
asbag57
(g78
g59
NtRp4078
(dp4079
g62
(dp4080
sg71
g4065
sg64
(lp4081
g57
(g58
g59
NtRp4082
(dp4083
g62
(dp4084
g70
I5
ssg71
g4078
sg64
(lp4085
g57
(g66
g59
NtRp4086
(dp4087
g62
(dp4088
g70
I4
ssg71
Nsg64
(lp4089
g57
(g73
g59
NtRp4090
(dp4091
g62
(dp4092
sg71
g4086
sg64
(lp4093
g57
(g78
g59
NtRp4094
(dp4095
g62
(dp4096
g82
g83
ssg71
g4090
sg64
(lp4097
S'expiration'
p4098
asbag57
(g78
g59
NtRp4099
(dp4100
g62
(dp4101
g89
g90
ssg71
g4090
sg64
(lp4102
S':'
asbag57
(g78
g59
NtRp4103
(dp4104
g62
(dp4105
sg71
g4090
sg64
(lp4106
g57
(g58
g59
NtRp4107
(dp4108
g62
(dp4109
g70
I4
ssg71
g4103
sg64
(lp4110
S'2592000'
p4111
asbasbasbag57
(g73
g59
NtRp4112
(dp4113
g62
(dp4114
sg71
g4086
sg64
(lp4115
g57
(g78
g59
NtRp4116
(dp4117
g62
(dp4118
g82
g83
ssg71
g4112
sg64
(lp4119
S'hmac_key'
p4120
asbag57
(g78
g59
NtRp4121
(dp4122
g62
(dp4123
g89
g90
ssg71
g4112
sg64
(lp4124
S':'
asbag57
(g78
g59
NtRp4125
(dp4126
g62
(dp4127
sg71
g4112
sg64
(lp4128
g57
(g58
g59
NtRp4129
(dp4130
g62
(dp4131
g70
I4
ssg71
g4125
sg64
(lp4132
S'7dd3ff9a-e402-42e2-819b-36eceb846a7c'
p4133
asbasbasbag57
(g73
g59
NtRp4134
(dp4135
g62
(dp4136
sg71
g4086
sg64
(lp4137
g57
(g78
g59
NtRp4138
(dp4139
g62
(dp4140
g82
g83
ssg71
g4134
sg64
(lp4141
S'last_visit'
p4142
asbag57
(g78
g59
NtRp4143
(dp4144
g62
(dp4145
g89
g90
ssg71
g4134
sg64
(lp4146
S':'
asbag57
(g78
g59
NtRp4147
(dp4148
g62
(dp4149
sg71
g4134
sg64
(lp4150
g57
(g58
g59
NtRp4151
(dp4152
g62
(dp4153
g70
I4
ssg71
g4147
sg64
(lp4154
S'datetime.datetime(2013, 4, 30, 15, 32, 15, 516741)'
p4155
asbasbasbag57
(g73
g59
NtRp4156
(dp4157
g62
(dp4158
sg71
g4086
sg64
(lp4159
g57
(g78
g59
NtRp4160
(dp4161
g62
(dp4162
g82
g83
ssg71
g4156
sg64
(lp4163
S'remember'
p4164
asbag57
(g78
g59
NtRp4165
(dp4166
g62
(dp4167
g89
g90
ssg71
g4156
sg64
(lp4168
S':'
asbag57
(g78
g59
NtRp4169
(dp4170
g62
(dp4171
sg71
g4156
sg64
(lp4172
g57
(g58
g59
NtRp4173
(dp4174
g62
(dp4175
g70
I4
ssg71
g4169
sg64
(lp4176
g2525
asbasbasbag57
(g73
g59
NtRp4177
(dp4178
g62
(dp4179
sg71
g4086
sg64
(lp4180
g57
(g78
g59
NtRp4181
(dp4182
g62
(dp4183
g82
g83
ssg71
g4177
sg64
(lp4184
S'user'
p4185
asbag57
(g78
g59
NtRp4186
(dp4187
g62
(dp4188
g89
g90
ssg71
g4177
sg64
(lp4189
S':'
asbag57
(g78
g59
NtRp4190
(dp4191
g62
(dp4192
sg71
g4177
sg64
(lp4193
g57
(g58
g59
NtRp4194
(dp4195
g62
(dp4196
g70
I4
ssg71
g4190
sg64
(lp4197
g57
(g66
g59
NtRp4198
(dp4199
g62
(dp4200
g70
I3
ssg71
Nsg64
(lp4201
g57
(g73
g59
NtRp4202
(dp4203
g62
(dp4204
sg71
g4198
sg64
(lp4205
g57
(g78
g59
NtRp4206
(dp4207
g62
(dp4208
g82
g83
ssg71
g4202
sg64
(lp4209
S'email'
p4210
asbag57
(g78
g59
NtRp4211
(dp4212
g62
(dp4213
g89
g90
ssg71
g4202
sg64
(lp4214
S':'
asbag57
(g78
g59
NtRp4215
(dp4216
g62
(dp4217
sg71
g4202
sg64
(lp4218
g57
(g58
g59
NtRp4219
(dp4220
g62
(dp4221
g70
I3
ssg71
g4215
sg64
(lp4222
S'akshay.jaggi@students.iiit.ac.in'
p4223
asbasbasbag57
(g73
g59
NtRp4224
(dp4225
g62
(dp4226
sg71
g4198
sg64
(lp4227
g57
(g78
g59
NtRp4228
(dp4229
g62
(dp4230
g82
g83
ssg71
g4224
sg64
(lp4231
S'first_name'
p4232
asbag57
(g78
g59
NtRp4233
(dp4234
g62
(dp4235
g89
g90
ssg71
g4224
sg64
(lp4236
S':'
asbag57
(g78
g59
NtRp4237
(dp4238
g62
(dp4239
sg71
g4224
sg64
(lp4240
g57
(g58
g59
NtRp4241
(dp4242
g62
(dp4243
g70
I3
ssg71
g4237
sg64
(lp4244
S'Akshay'
p4245
asbasbasbag57
(g73
g59
NtRp4246
(dp4247
g62
(dp4248
sg71
g4198
sg64
(lp4249
g57
(g78
g59
NtRp4250
(dp4251
g62
(dp4252
g82
g83
ssg71
g4246
sg64
(lp4253
S'id'
p4254
asbag57
(g78
g59
NtRp4255
(dp4256
g62
(dp4257
g89
g90
ssg71
g4246
sg64
(lp4258
S':'
asbag57
(g78
g59
NtRp4259
(dp4260
g62
(dp4261
sg71
g4246
sg64
(lp4262
g57
(g58
g59
NtRp4263
(dp4264
g62
(dp4265
g70
I3
ssg71
g4259
sg64
(lp4266
S'6'
asbasbasbag57
(g73
g59
NtRp4267
(dp4268
g62
(dp4269
sg71
g4198
sg64
(lp4270
g57
(g78
g59
NtRp4271
(dp4272
g62
(dp4273
g82
g83
ssg71
g4267
sg64
(lp4274
S'last_name'
p4275
asbag57
(g78
g59
NtRp4276
(dp4277
g62
(dp4278
g89
g90
ssg71
g4267
sg64
(lp4279
S':'
asbag57
(g78
g59
NtRp4280
(dp4281
g62
(dp4282
sg71
g4267
sg64
(lp4283
g57
(g58
g59
NtRp4284
(dp4285
g62
(dp4286
g70
I3
ssg71
g4280
sg64
(lp4287
S'Jaggi'
p4288
asbasbasbag57
(g73
g59
NtRp4289
(dp4290
g62
(dp4291
sg71
g4198
sg64
(lp4292
g57
(g78
g59
NtRp4293
(dp4294
g62
(dp4295
g82
g83
ssg71
g4289
sg64
(lp4296
S'registration_id'
p4297
asbag57
(g78
g59
NtRp4298
(dp4299
g62
(dp4300
g89
g90
ssg71
g4289
sg64
(lp4301
S':'
asbag57
(g78
g59
NtRp4302
(dp4303
g62
(dp4304
sg71
g4289
sg64
(lp4305
g57
(g58
g59
NtRp4306
(dp4307
g62
(dp4308
g70
I3
ssg71
g4302
sg64
(lp4309
S''
asbasbasbag57
(g73
g59
NtRp4310
(dp4311
g62
(dp4312
sg71
g4198
sg64
(lp4313
g57
(g78
g59
NtRp4314
(dp4315
g62
(dp4316
g82
g83
ssg71
g4310
sg64
(lp4317
S'registration_key'
p4318
asbag57
(g78
g59
NtRp4319
(dp4320
g62
(dp4321
g89
g90
ssg71
g4310
sg64
(lp4322
S':'
asbag57
(g78
g59
NtRp4323
(dp4324
g62
(dp4325
sg71
g4310
sg64
(lp4326
g57
(g58
g59
NtRp4327
(dp4328
g62
(dp4329
g70
I3
ssg71
g4323
sg64
(lp4330
S''
asbasbasbag57
(g73
g59
NtRp4331
(dp4332
g62
(dp4333
sg71
g4198
sg64
(lp4334
g57
(g78
g59
NtRp4335
(dp4336
g62
(dp4337
g82
g83
ssg71
g4331
sg64
(lp4338
S'reset_password_key'
p4339
asbag57
(g78
g59
NtRp4340
(dp4341
g62
(dp4342
g89
g90
ssg71
g4331
sg64
(lp4343
S':'
asbag57
(g78
g59
NtRp4344
(dp4345
g62
(dp4346
sg71
g4331
sg64
(lp4347
g57
(g58
g59
NtRp4348
(dp4349
g62
(dp4350
g70
I3
ssg71
g4344
sg64
(lp4351
S''
asbasbasbasbasbasbasbag57
(g73
g59
NtRp4352
(dp4353
g62
(dp4354
sg71
g4086
sg64
(lp4355
g57
(g78
g59
NtRp4356
(dp4357
g62
(dp4358
g82
g83
ssg71
g4352
sg64
(lp4359
S'user_groups'
p4360
asbag57
(g78
g59
NtRp4361
(dp4362
g62
(dp4363
g89
g90
ssg71
g4352
sg64
(lp4364
S':'
asbag57
(g78
g59
NtRp4365
(dp4366
g62
(dp4367
sg71
g4352
sg64
(lp4368
g57
(g58
g59
NtRp4369
(dp4370
g62
(dp4371
g70
I4
ssg71
g4365
sg64
(lp4372
g57
(g66
g59
NtRp4373
(dp4374
g62
(dp4375
g70
I3
ssg71
Nsg64
(lp4376
g57
(g73
g59
NtRp4377
(dp4378
g62
(dp4379
sg71
g4373
sg64
(lp4380
g57
(g78
g59
NtRp4381
(dp4382
g62
(dp4383
g82
g83
ssg71
g4377
sg64
(lp4384
S'1'
asbag57
(g78
g59
NtRp4385
(dp4386
g62
(dp4387
g89
g90
ssg71
g4377
sg64
(lp4388
S':'
asbag57
(g78
g59
NtRp4389
(dp4390
g62
(dp4391
sg71
g4377
sg64
(lp4392
g57
(g58
g59
NtRp4393
(dp4394
g62
(dp4395
g70
I3
ssg71
g4389
sg64
(lp4396
S'Student'
p4397
asbasbasbasbasbasbasbasbasbasbasbag57
(g73
g59
NtRp4398
(dp4399
g62
(dp4400
sg71
g4061
sg64
(lp4401
g57
(g78
g59
NtRp4402
(dp4403
g62
(dp4404
g82
g83
ssg71
g4398
sg64
(lp4405
S'flash'
p4406
asbag57
(g78
g59
NtRp4407
(dp4408
g62
(dp4409
g89
g90
ssg71
g4398
sg64
(lp4410
S':'
asbag57
(g78
g59
NtRp4411
(dp4412
g62
(dp4413
sg71
g4398
sg64
(lp4414
g57
(g58
g59
NtRp4415
(dp4416
g62
(dp4417
g70
I5
ssg71
g4411
sg64
(lp4418
S'None'
p4419
asbasbasbag57
(g73
g59
NtRp4420
(dp4421
g62
(dp4422
sg71
g4061
sg64
(lp4423
g57
(g78
g59
NtRp4424
(dp4425
g62
(dp4426
g82
g83
ssg71
g4420
sg64
(lp4427
S'last_orderby'
p4428
asbag57
(g78
g59
NtRp4429
(dp4430
g62
(dp4431
g89
g90
ssg71
g4420
sg64
(lp4432
S':'
asbag57
(g78
g59
NtRp4433
(dp4434
g62
(dp4435
sg71
g4420
sg64
(lp4436
g57
(g58
g59
NtRp4437
(dp4438
g62
(dp4439
g70
I5
ssg71
g4433
sg64
(lp4440
S'None'
p4441
asbasbasbag57
(g73
g59
NtRp4442
(dp4443
g62
(dp4444
sg71
g4061
sg64
(lp4445
g57
(g78
g59
NtRp4446
(dp4447
g62
(dp4448
g82
g83
ssg71
g4442
sg64
(lp4449
S'last_query'
p4450
asbag57
(g78
g59
NtRp4451
(dp4452
g62
(dp4453
g89
g90
ssg71
g4442
sg64
(lp4454
S':'
asbag57
(g78
g59
NtRp4455
(dp4456
g62
(dp4457
sg71
g4442
sg64
(lp4458
g57
(g58
g59
NtRp4459
(dp4460
g62
(dp4461
g70
I5
ssg71
g4455
sg64
(lp4462
S'db.msg.id>0'
p4463
asbasbasbasbasbsS'etype'
p4464
S"<type 'exceptions.TypeError'>"
p4465
sS'date'
p4466
S'Tue Apr 30 15:55:23 2013'
p4467
sS'response'
p4468
g57
(g58
g59
NtRp4469
(dp4470
g62
(dp4471
sg64
(lp4472
g57
(g66
g59
NtRp4473
(dp4474
g62
(dp4475
g70
I5
ssg71
Nsg64
(lp4476
g57
(g73
g59
NtRp4477
(dp4478
g62
(dp4479
sg71
g4473
sg64
(lp4480
g57
(g78
g59
NtRp4481
(dp4482
g62
(dp4483
g82
g83
ssg71
g4477
sg64
(lp4484
g167
asbag57
(g78
g59
NtRp4485
(dp4486
g62
(dp4487
g89
g90
ssg71
g4477
sg64
(lp4488
S':'
asbag57
(g78
g59
NtRp4489
(dp4490
g62
(dp4491
sg71
g4477
sg64
(lp4492
g57
(g58
g59
NtRp4493
(dp4494
g62
(dp4495
g70
I5
ssg71
g4489
sg64
(lp4496
S'<cStringIO.StringO object at 0xaf5c6b00>'
p4497
asbasbasbag57
(g73
g59
NtRp4498
(dp4499
g62
(dp4500
sg71
g4473
sg64
(lp4501
g57
(g78
g59
NtRp4502
(dp4503
g62
(dp4504
g82
g83
ssg71
g4498
sg64
(lp4505
g255
asbag57
(g78
g59
NtRp4506
(dp4507
g62
(dp4508
g89
g90
ssg71
g4498
sg64
(lp4509
S':'
asbag57
(g78
g59
NtRp4510
(dp4511
g62
(dp4512
sg71
g4498
sg64
(lp4513
g57
(g58
g59
NtRp4514
(dp4515
g62
(dp4516
g70
I5
ssg71
g4510
sg64
(lp4517
g57
(g66
g59
NtRp4518
(dp4519
g62
(dp4520
g70
I4
ssg71
Nsg64
(lp4521
g57
(g73
g59
NtRp4522
(dp4523
g62
(dp4524
sg71
g4518
sg64
(lp4525
g57
(g78
g59
NtRp4526
(dp4527
g62
(dp4528
g82
g83
ssg71
g4522
sg64
(lp4529
S'session_id_backimg'
p4530
asbag57
(g78
g59
NtRp4531
(dp4532
g62
(dp4533
g89
g90
ssg71
g4522
sg64
(lp4534
S':'
asbag57
(g78
g59
NtRp4535
(dp4536
g62
(dp4537
sg71
g4522
sg64
(lp4538
g57
(g58
g59
NtRp4539
(dp4540
g62
(dp4541
g70
I4
ssg71
g4535
sg64
(lp4542
g487
ag57
(g66
g59
NtRp4543
(dp4544
g62
(dp4545
g70
I3
ssg71
Nsg64
(lp4546
g57
(g73
g59
NtRp4547
(dp4548
g62
(dp4549
sg71
g4543
sg64
(lp4550
g57
(g78
g59
NtRp4551
(dp4552
g62
(dp4553
g82
g83
ssg71
g4547
sg64
(lp4554
g306
asbag57
(g78
g59
NtRp4555
(dp4556
g62
(dp4557
g89
g90
ssg71
g4547
sg64
(lp4558
S':'
asbag57
(g78
g59
NtRp4559
(dp4560
g62
(dp4561
sg71
g4547
sg64
(lp4562
g57
(g58
g59
NtRp4563
(dp4564
g62
(dp4565
g70
I3
ssg71
g4559
sg64
(lp4566
S''
asbasbasbag57
(g73
g59
NtRp4567
(dp4568
g62
(dp4569
sg71
g4543
sg64
(lp4570
g57
(g78
g59
NtRp4571
(dp4572
g62
(dp4573
g82
g83
ssg71
g4567
sg64
(lp4574
g327
asbag57
(g78
g59
NtRp4575
(dp4576
g62
(dp4577
g89
g90
ssg71
g4567
sg64
(lp4578
S':'
asbag57
(g78
g59
NtRp4579
(dp4580
g62
(dp4581
sg71
g4567
sg64
(lp4582
g57
(g58
g59
NtRp4583
(dp4584
g62
(dp4585
g70
I3
ssg71
g4579
sg64
(lp4586
S''
asbasbasbag57
(g73
g59
NtRp4587
(dp4588
g62
(dp4589
sg71
g4543
sg64
(lp4590
g57
(g78
g59
NtRp4591
(dp4592
g62
(dp4593
g82
g83
ssg71
g4587
sg64
(lp4594
g348
asbag57
(g78
g59
NtRp4595
(dp4596
g62
(dp4597
g89
g90
ssg71
g4587
sg64
(lp4598
S':'
asbag57
(g78
g59
NtRp4599
(dp4600
g62
(dp4601
sg71
g4587
sg64
(lp4602
g57
(g58
g59
NtRp4603
(dp4604
g62
(dp4605
g70
I3
ssg71
g4599
sg64
(lp4606
S'2592000'
p4607
asbasbasbag57
(g73
g59
NtRp4608
(dp4609
g62
(dp4610
sg71
g4543
sg64
(lp4611
g57
(g78
g59
NtRp4612
(dp4613
g62
(dp4614
g82
g83
ssg71
g4608
sg64
(lp4615
g369
asbag57
(g78
g59
NtRp4616
(dp4617
g62
(dp4618
g89
g90
ssg71
g4608
sg64
(lp4619
S':'
asbag57
(g78
g59
NtRp4620
(dp4621
g62
(dp4622
sg71
g4608
sg64
(lp4623
g57
(g58
g59
NtRp4624
(dp4625
g62
(dp4626
g70
I3
ssg71
g4620
sg64
(lp4627
S''
asbasbasbag57
(g73
g59
NtRp4628
(dp4629
g62
(dp4630
sg71
g4543
sg64
(lp4631
g57
(g78
g59
NtRp4632
(dp4633
g62
(dp4634
g82
g83
ssg71
g4628
sg64
(lp4635
g390
asbag57
(g78
g59
NtRp4636
(dp4637
g62
(dp4638
g89
g90
ssg71
g4628
sg64
(lp4639
S':'
asbag57
(g78
g59
NtRp4640
(dp4641
g62
(dp4642
sg71
g4628
sg64
(lp4643
g57
(g58
g59
NtRp4644
(dp4645
g62
(dp4646
g70
I3
ssg71
g4640
sg64
(lp4647
S''
asbasbasbag57
(g73
g59
NtRp4648
(dp4649
g62
(dp4650
sg71
g4543
sg64
(lp4651
g57
(g78
g59
NtRp4652
(dp4653
g62
(dp4654
g82
g83
ssg71
g4648
sg64
(lp4655
g411
asbag57
(g78
g59
NtRp4656
(dp4657
g62
(dp4658
g89
g90
ssg71
g4648
sg64
(lp4659
S':'
asbag57
(g78
g59
NtRp4660
(dp4661
g62
(dp4662
sg71
g4648
sg64
(lp4663
g57
(g58
g59
NtRp4664
(dp4665
g62
(dp4666
g70
I3
ssg71
g4660
sg64
(lp4667
S'/'
asbasbasbag57
(g73
g59
NtRp4668
(dp4669
g62
(dp4670
sg71
g4543
sg64
(lp4671
g57
(g78
g59
NtRp4672
(dp4673
g62
(dp4674
g82
g83
ssg71
g4668
sg64
(lp4675
g432
asbag57
(g78
g59
NtRp4676
(dp4677
g62
(dp4678
g89
g90
ssg71
g4668
sg64
(lp4679
S':'
asbag57
(g78
g59
NtRp4680
(dp4681
g62
(dp4682
sg71
g4668
sg64
(lp4683
g57
(g58
g59
NtRp4684
(dp4685
g62
(dp4686
g70
I3
ssg71
g4680
sg64
(lp4687
S''
asbasbasbag57
(g73
g59
NtRp4688
(dp4689
g62
(dp4690
sg71
g4543
sg64
(lp4691
g57
(g78
g59
NtRp4692
(dp4693
g62
(dp4694
g82
g83
ssg71
g4688
sg64
(lp4695
g453
asbag57
(g78
g59
NtRp4696
(dp4697
g62
(dp4698
g89
g90
ssg71
g4688
sg64
(lp4699
S':'
asbag57
(g78
g59
NtRp4700
(dp4701
g62
(dp4702
sg71
g4688
sg64
(lp4703
g57
(g58
g59
NtRp4704
(dp4705
g62
(dp4706
g70
I3
ssg71
g4700
sg64
(lp4707
S''
asbasbasbasbasbasbasbasbasbasbasbag57
(g73
g59
NtRp4708
(dp4709
g62
(dp4710
sg71
g4473
sg64
(lp4711
g57
(g78
g59
NtRp4712
(dp4713
g62
(dp4714
g82
g83
ssg71
g4708
sg64
(lp4715
S'delimiters'
p4716
asbag57
(g78
g59
NtRp4717
(dp4718
g62
(dp4719
g89
g90
ssg71
g4708
sg64
(lp4720
S':'
asbag57
(g78
g59
NtRp4721
(dp4722
g62
(dp4723
sg71
g4708
sg64
(lp4724
g57
(g58
g59
NtRp4725
(dp4726
g62
(dp4727
g70
I5
ssg71
g4721
sg64
(lp4728
g57
(g66
g59
NtRp4729
(dp4730
g62
(dp4731
g70
I4
ssg71
Nsg64
(lp4732
g57
(g73
g59
NtRp4733
(dp4734
g62
(dp4735
sg71
g4729
sg64
(lp4736
g57
(g78
g59
NtRp4737
(dp4738
g62
(dp4739
sg71
g4733
sg64
(lp4740
g57
(g58
g59
NtRp4741
(dp4742
g62
(dp4743
g70
I4
ssg71
g4737
sg64
(lp4744
S'{{'
p4745
asbasbasbag57
(g73
g59
NtRp4746
(dp4747
g62
(dp4748
sg71
g4729
sg64
(lp4749
g57
(g78
g59
NtRp4750
(dp4751
g62
(dp4752
sg71
g4746
sg64
(lp4753
g57
(g58
g59
NtRp4754
(dp4755
g62
(dp4756
g70
I4
ssg71
g4750
sg64
(lp4757
S'}}'
p4758
asbasbasbasbasbasbasbag57
(g73
g59
NtRp4759
(dp4760
g62
(dp4761
sg71
g4473
sg64
(lp4762
g57
(g78
g59
NtRp4763
(dp4764
g62
(dp4765
g82
g83
ssg71
g4759
sg64
(lp4766
S'files'
p4767
asbag57
(g78
g59
NtRp4768
(dp4769
g62
(dp4770
g89
g90
ssg71
g4759
sg64
(lp4771
S':'
asbag57
(g78
g59
NtRp4772
(dp4773
g62
(dp4774
sg71
g4759
sg64
(lp4775
g57
(g58
g59
NtRp4776
(dp4777
g62
(dp4778
g70
I5
ssg71
g4772
sg64
(lp4779
g57
(g66
g59
NtRp4780
(dp4781
g62
(dp4782
g70
I4
ssg71
Nsg64
(lp4783
sbasbasbasbag57
(g73
g59
NtRp4784
(dp4785
g62
(dp4786
sg71
g4473
sg64
(lp4787
g57
(g78
g59
NtRp4788
(dp4789
g62
(dp4790
g82
g83
ssg71
g4784
sg64
(lp4791
S'flash'
p4792
asbag57
(g78
g59
NtRp4793
(dp4794
g62
(dp4795
g89
g90
ssg71
g4784
sg64
(lp4796
S':'
asbag57
(g78
g59
NtRp4797
(dp4798
g62
(dp4799
sg71
g4784
sg64
(lp4800
g57
(g58
g59
NtRp4801
(dp4802
g62
(dp4803
g70
I5
ssg71
g4797
sg64
(lp4804
S''
asbasbasbag57
(g73
g59
NtRp4805
(dp4806
g62
(dp4807
sg71
g4473
sg64
(lp4808
g57
(g78
g59
NtRp4809
(dp4810
g62
(dp4811
g82
g83
ssg71
g4805
sg64
(lp4812
S'generic_patterns'
p4813
asbag57
(g78
g59
NtRp4814
(dp4815
g62
(dp4816
g89
g90
ssg71
g4805
sg64
(lp4817
S':'
asbag57
(g78
g59
NtRp4818
(dp4819
g62
(dp4820
sg71
g4805
sg64
(lp4821
g57
(g58
g59
NtRp4822
(dp4823
g62
(dp4824
g70
I5
ssg71
g4818
sg64
(lp4825
g57
(g66
g59
NtRp4826
(dp4827
g62
(dp4828
g70
I4
ssg71
Nsg64
(lp4829
g57
(g73
g59
NtRp4830
(dp4831
g62
(dp4832
sg71
g4826
sg64
(lp4833
g57
(g78
g59
NtRp4834
(dp4835
g62
(dp4836
sg71
g4830
sg64
(lp4837
g57
(g58
g59
NtRp4838
(dp4839
g62
(dp4840
g70
I4
ssg71
g4834
sg64
(lp4841
S'*'
asbasbasbasbasbasbasbag57
(g73
g59
NtRp4842
(dp4843
g62
(dp4844
sg71
g4473
sg64
(lp4845
g57
(g78
g59
NtRp4846
(dp4847
g62
(dp4848
g82
g83
ssg71
g4842
sg64
(lp4849
S'google_analytics_id'
p4850
asbag57
(g78
g59
NtRp4851
(dp4852
g62
(dp4853
g89
g90
ssg71
g4842
sg64
(lp4854
S':'
asbag57
(g78
g59
NtRp4855
(dp4856
g62
(dp4857
sg71
g4842
sg64
(lp4858
g57
(g58
g59
NtRp4859
(dp4860
g62
(dp4861
g70
I5
ssg71
g4855
sg64
(lp4862
S'None'
p4863
asbasbasbag57
(g73
g59
NtRp4864
(dp4865
g62
(dp4866
sg71
g4473
sg64
(lp4867
g57
(g78
g59
NtRp4868
(dp4869
g62
(dp4870
g82
g83
ssg71
g4864
sg64
(lp4871
S'headers'
p4872
asbag57
(g78
g59
NtRp4873
(dp4874
g62
(dp4875
g89
g90
ssg71
g4864
sg64
(lp4876
S':'
asbag57
(g78
g59
NtRp4877
(dp4878
g62
(dp4879
sg71
g4864
sg64
(lp4880
g57
(g58
g59
NtRp4881
(dp4882
g62
(dp4883
g70
I5
ssg71
g4877
sg64
(lp4884
g57
(g66
g59
NtRp4885
(dp4886
g62
(dp4887
g70
I4
ssg71
Nsg64
(lp4888
g57
(g73
g59
NtRp4889
(dp4890
g62
(dp4891
sg71
g4885
sg64
(lp4892
g57
(g78
g59
NtRp4893
(dp4894
g62
(dp4895
g82
g83
ssg71
g4889
sg64
(lp4896
S'X-Powered-By'
p4897
asbag57
(g78
g59
NtRp4898
(dp4899
g62
(dp4900
g89
g90
ssg71
g4889
sg64
(lp4901
S':'
asbag57
(g78
g59
NtRp4902
(dp4903
g62
(dp4904
sg71
g4889
sg64
(lp4905
g57
(g58
g59
NtRp4906
(dp4907
g62
(dp4908
g70
I4
ssg71
g4902
sg64
(lp4909
S'web2py'
p4910
asbasbasbasbasbasbasbag57
(g73
g59
NtRp4911
(dp4912
g62
(dp4913
sg71
g4473
sg64
(lp4914
g57
(g78
g59
NtRp4915
(dp4916
g62
(dp4917
g82
g83
ssg71
g4911
sg64
(lp4918
S'logo'
p4919
asbag57
(g78
g59
NtRp4920
(dp4921
g62
(dp4922
g89
g90
ssg71
g4911
sg64
(lp4923
S':'
asbag57
(g78
g59
NtRp4924
(dp4925
g62
(dp4926
sg71
g4911
sg64
(lp4927
g57
(g58
g59
NtRp4928
(dp4929
g62
(dp4930
g70
I5
ssg71
g4924
sg64
(lp4931
g57
(cgluon.html
A
p4932
g59
NtRp4933
(dp4934
g62
(dp4935
S'_class'
p4936
S'brand'
p4937
sS'_href'
p4938
S'http://www.web2py.com/'
p4939
ssg71
Nsg64
(lp4940
g57
(cgluon.html
B
p4941
g59
NtRp4942
(dp4943
g62
(dp4944
sg71
g4933
sg64
(lp4945
S'web'
p4946
ag57
(cgluon.html
SPAN
p4947
g59
NtRp4948
(dp4949
g62
(dp4950
sg71
g4942
sg64
(lp4951
I2
asbaS'py'
p4952
asbacgluon.html
XML_unpickle
p4953
(S's\r\x00\x00\x00&trade;&nbsp;'
tRp4954
asbasbasbasbag57
(g73
g59
NtRp4955
(dp4956
g62
(dp4957
sg71
g4473
sg64
(lp4958
g57
(g78
g59
NtRp4959
(dp4960
g62
(dp4961
g82
g83
ssg71
g4955
sg64
(lp4962
S'menu'
p4963
asbag57
(g78
g59
NtRp4964
(dp4965
g62
(dp4966
g89
g90
ssg71
g4955
sg64
(lp4967
S':'
asbag57
(g78
g59
NtRp4968
(dp4969
g62
(dp4970
sg71
g4955
sg64
(lp4971
g57
(g58
g59
NtRp4972
(dp4973
g62
(dp4974
g70
I5
ssg71
g4968
sg64
(lp4975
g57
(g66
g59
NtRp4976
(dp4977
g62
(dp4978
g70
I4
ssg71
Nsg64
(lp4979
g57
(g73
g59
NtRp4980
(dp4981
g62
(dp4982
sg71
g4976
sg64
(lp4983
g57
(g78
g59
NtRp4984
(dp4985
g62
(dp4986
sg71
g4980
sg64
(lp4987
g57
(g58
g59
NtRp4988
(dp4989
g62
(dp4990
g70
I4
ssg71
g4984
sg64
(lp4991
g57
(g66
g59
NtRp4992
(dp4993
g62
(dp4994
g70
I3
ssg71
Nsg64
(lp4995
g57
(g73
g59
NtRp4996
(dp4997
g62
(dp4998
sg71
g4992
sg64
(lp4999
g57
(g78
g59
NtRp5000
(dp5001
g62
(dp5002
sg71
g4996
sg64
(lp5003
g57
(g58
g59
NtRp5004
(dp5005
g62
(dp5006
g70
I3
ssg71
g5000
sg64
(lp5007
g57
(g4947
g59
NtRp5008
(dp5009
g62
(dp5010
g4936
S'highlighted'
p5011
ssg71
Nsg64
(lp5012
S'Home'
p5013
asbasbasbasbag57
(g73
g59
NtRp5014
(dp5015
g62
(dp5016
sg71
g4992
sg64
(lp5017
g57
(g78
g59
NtRp5018
(dp5019
g62
(dp5020
sg71
g5014
sg64
(lp5021
g57
(g58
g59
NtRp5022
(dp5023
g62
(dp5024
g70
I3
ssg71
g5018
sg64
(lp5025
g100
asbasbasbag57
(g73
g59
NtRp5026
(dp5027
g62
(dp5028
sg71
g4992
sg64
(lp5029
g57
(g78
g59
NtRp5030
(dp5031
g62
(dp5032
sg71
g5026
sg64
(lp5033
g57
(g58
g59
NtRp5034
(dp5035
g62
(dp5036
g70
I3
ssg71
g5030
sg64
(lp5037
S'/backimg/default/index'
p5038
asbasbasbag57
(g73
g59
NtRp5039
(dp5040
g62
(dp5041
sg71
g4992
sg64
(lp5042
g57
(g78
g59
NtRp5043
(dp5044
g62
(dp5045
sg71
g5039
sg64
(lp5046
g57
(g58
g59
NtRp5047
(dp5048
g62
(dp5049
g70
I3
ssg71
g5043
sg64
(lp5050
g57
(g66
g59
NtRp5051
(dp5052
g62
(dp5053
g70
I2
ssg71
Nsg64
(lp5054
sbasbasbasbasbasbasbasbag57
(g73
g59
NtRp5055
(dp5056
g62
(dp5057
sg71
g4976
sg64
(lp5058
g57
(g78
g59
NtRp5059
(dp5060
g62
(dp5061
sg71
g5055
sg64
(lp5062
g57
(g58
g59
NtRp5063
(dp5064
g62
(dp5065
g70
I4
ssg71
g5059
sg64
(lp5066
g57
(g66
g59
NtRp5067
(dp5068
g62
(dp5069
g70
I3
ssg71
Nsg64
(lp5070
g57
(g73
g59
NtRp5071
(dp5072
g62
(dp5073
sg71
g5067
sg64
(lp5074
g57
(g78
g59
NtRp5075
(dp5076
g62
(dp5077
sg71
g5071
sg64
(lp5078
g57
(g58
g59
NtRp5079
(dp5080
g62
(dp5081
g70
I3
ssg71
g5075
sg64
(lp5082
cgluon.languages
lazyT_unpickle
p5083
(S's\r\x00\x00\x00View Messages'
tRp5084
asbasbasbag57
(g73
g59
NtRp5085
(dp5086
g62
(dp5087
sg71
g5067
sg64
(lp5088
g57
(g78
g59
NtRp5089
(dp5090
g62
(dp5091
sg71
g5085
sg64
(lp5092
g57
(g58
g59
NtRp5093
(dp5094
g62
(dp5095
g70
I3
ssg71
g5089
sg64
(lp5096
g100
asbasbasbag57
(g73
g59
NtRp5097
(dp5098
g62
(dp5099
sg71
g5067
sg64
(lp5100
g57
(g78
g59
NtRp5101
(dp5102
g62
(dp5103
sg71
g5097
sg64
(lp5104
g57
(g58
g59
NtRp5105
(dp5106
g62
(dp5107
g70
I3
ssg71
g5101
sg64
(lp5108
S'/backimg/default/view_msg'
p5109
asbasbasbasbasbasbasbag57
(g73
g59
NtRp5110
(dp5111
g62
(dp5112
sg71
g4976
sg64
(lp5113
g57
(g78
g59
NtRp5114
(dp5115
g62
(dp5116
sg71
g5110
sg64
(lp5117
g57
(g58
g59
NtRp5118
(dp5119
g62
(dp5120
g70
I4
ssg71
g5114
sg64
(lp5121
g57
(g66
g59
NtRp5122
(dp5123
g62
(dp5124
g70
I3
ssg71
Nsg64
(lp5125
g57
(g73
g59
NtRp5126
(dp5127
g62
(dp5128
sg71
g5122
sg64
(lp5129
g57
(g78
g59
NtRp5130
(dp5131
g62
(dp5132
sg71
g5126
sg64
(lp5133
g57
(g58
g59
NtRp5134
(dp5135
g62
(dp5136
g70
I3
ssg71
g5130
sg64
(lp5137
g5083
(S's\x0e\x00\x00\x00Update Profile'
tRp5138
asbasbasbag57
(g73
g59
NtRp5139
(dp5140
g62
(dp5141
sg71
g5122
sg64
(lp5142
g57
(g78
g59
NtRp5143
(dp5144
g62
(dp5145
sg71
g5139
sg64
(lp5146
g57
(g58
g59
NtRp5147
(dp5148
g62
(dp5149
g70
I3
ssg71
g5143
sg64
(lp5150
g100
asbasbasbag57
(g73
g59
NtRp5151
(dp5152
g62
(dp5153
sg71
g5122
sg64
(lp5154
g57
(g78
g59
NtRp5155
(dp5156
g62
(dp5157
sg71
g5151
sg64
(lp5158
g57
(g58
g59
NtRp5159
(dp5160
g62
(dp5161
g70
I3
ssg71
g5155
sg64
(lp5162
S'/backimg/default/edit_student'
p5163
asbasbasbasbasbasbasbag57
(g73
g59
NtRp5164
(dp5165
g62
(dp5166
sg71
g4976
sg64
(lp5167
g57
(g78
g59
NtRp5168
(dp5169
g62
(dp5170
sg71
g5164
sg64
(lp5171
g57
(g58
g59
NtRp5172
(dp5173
g62
(dp5174
g70
I4
ssg71
g5168
sg64
(lp5175
g57
(g66
g59
NtRp5176
(dp5177
g62
(dp5178
g70
I3
ssg71
Nsg64
(lp5179
g57
(g73
g59
NtRp5180
(dp5181
g62
(dp5182
sg71
g5176
sg64
(lp5183
g57
(g78
g59
NtRp5184
(dp5185
g62
(dp5186
sg71
g5180
sg64
(lp5187
g57
(g58
g59
NtRp5188
(dp5189
g62
(dp5190
g70
I3
ssg71
g5184
sg64
(lp5191
g5083
(S's\r\x00\x00\x00Add a project'
tRp5192
asbasbasbag57
(g73
g59
NtRp5193
(dp5194
g62
(dp5195
sg71
g5176
sg64
(lp5196
g57
(g78
g59
NtRp5197
(dp5198
g62
(dp5199
sg71
g5193
sg64
(lp5200
g57
(g58
g59
NtRp5201
(dp5202
g62
(dp5203
g70
I3
ssg71
g5197
sg64
(lp5204
g100
asbasbasbag57
(g73
g59
NtRp5205
(dp5206
g62
(dp5207
sg71
g5176
sg64
(lp5208
g57
(g78
g59
NtRp5209
(dp5210
g62
(dp5211
sg71
g5205
sg64
(lp5212
g57
(g58
g59
NtRp5213
(dp5214
g62
(dp5215
g70
I3
ssg71
g5209
sg64
(lp5216
S'/backimg/default/add_project'
p5217
asbasbasbasbasbasbasbag57
(g73
g59
NtRp5218
(dp5219
g62
(dp5220
sg71
g4976
sg64
(lp5221
g57
(g78
g59
NtRp5222
(dp5223
g62
(dp5224
sg71
g5218
sg64
(lp5225
g57
(g58
g59
NtRp5226
(dp5227
g62
(dp5228
g70
I4
ssg71
g5222
sg64
(lp5229
g57
(g66
g59
NtRp5230
(dp5231
g62
(dp5232
g70
I3
ssg71
Nsg64
(lp5233
g57
(g73
g59
NtRp5234
(dp5235
g62
(dp5236
sg71
g5230
sg64
(lp5237
g57
(g78
g59
NtRp5238
(dp5239
g62
(dp5240
sg71
g5234
sg64
(lp5241
g57
(g58
g59
NtRp5242
(dp5243
g62
(dp5244
g70
I3
ssg71
g5238
sg64
(lp5245
g5083
(S's\x08\x00\x00\x00Get PDF!'
tRp5246
asbasbasbag57
(g73
g59
NtRp5247
(dp5248
g62
(dp5249
sg71
g5230
sg64
(lp5250
g57
(g78
g59
NtRp5251
(dp5252
g62
(dp5253
sg71
g5247
sg64
(lp5254
g57
(g58
g59
NtRp5255
(dp5256
g62
(dp5257
g70
I3
ssg71
g5251
sg64
(lp5258
g100
asbasbasbag57
(g73
g59
NtRp5259
(dp5260
g62
(dp5261
sg71
g5230
sg64
(lp5262
g57
(g78
g59
NtRp5263
(dp5264
g62
(dp5265
sg71
g5259
sg64
(lp5266
g57
(g58
g59
NtRp5267
(dp5268
g62
(dp5269
g70
I3
ssg71
g5263
sg64
(lp5270
S'/backimg/default/pdf1'
p5271
asbasbasbasbasbasbasbag57
(g73
g59
NtRp5272
(dp5273
g62
(dp5274
sg71
g4976
sg64
(lp5275
g57
(g78
g59
NtRp5276
(dp5277
g62
(dp5278
sg71
g5272
sg64
(lp5279
g57
(g58
g59
NtRp5280
(dp5281
g62
(dp5282
g70
I4
ssg71
g5276
sg64
(lp5283
g57
(g66
g59
NtRp5284
(dp5285
g62
(dp5286
g70
I3
ssg71
Nsg64
(lp5287
g57
(g73
g59
NtRp5288
(dp5289
g62
(dp5290
sg71
g5284
sg64
(lp5291
g57
(g78
g59
NtRp5292
(dp5293
g62
(dp5294
sg71
g5288
sg64
(lp5295
g57
(g58
g59
NtRp5296
(dp5297
g62
(dp5298
g70
I3
ssg71
g5292
sg64
(lp5299
g5083
(S's\x12\x00\x00\x00Add an Achievement'
tRp5300
asbasbasbag57
(g73
g59
NtRp5301
(dp5302
g62
(dp5303
sg71
g5284
sg64
(lp5304
g57
(g78
g59
NtRp5305
(dp5306
g62
(dp5307
sg71
g5301
sg64
(lp5308
g57
(g58
g59
NtRp5309
(dp5310
g62
(dp5311
g70
I3
ssg71
g5305
sg64
(lp5312
g100
asbasbasbag57
(g73
g59
NtRp5313
(dp5314
g62
(dp5315
sg71
g5284
sg64
(lp5316
g57
(g78
g59
NtRp5317
(dp5318
g62
(dp5319
sg71
g5313
sg64
(lp5320
g57
(g58
g59
NtRp5321
(dp5322
g62
(dp5323
g70
I3
ssg71
g5317
sg64
(lp5324
S'/backimg/default/add_achievement'
p5325
asbasbasbasbasbasbasbasbasbasbasbag57
(g73
g59
NtRp5326
(dp5327
g62
(dp5328
sg71
g4473
sg64
(lp5329
g57
(g78
g59
NtRp5330
(dp5331
g62
(dp5332
g82
g83
ssg71
g5326
sg64
(lp5333
S'meta'
p5334
asbag57
(g78
g59
NtRp5335
(dp5336
g62
(dp5337
g89
g90
ssg71
g5326
sg64
(lp5338
S':'
asbag57
(g78
g59
NtRp5339
(dp5340
g62
(dp5341
sg71
g5326
sg64
(lp5342
g57
(g58
g59
NtRp5343
(dp5344
g62
(dp5345
g70
I5
ssg71
g5339
sg64
(lp5346
g57
(g66
g59
NtRp5347
(dp5348
g62
(dp5349
g70
I4
ssg71
Nsg64
(lp5350
g57
(g73
g59
NtRp5351
(dp5352
g62
(dp5353
sg71
g5347
sg64
(lp5354
g57
(g78
g59
NtRp5355
(dp5356
g62
(dp5357
g82
g83
ssg71
g5351
sg64
(lp5358
S'author'
p5359
asbag57
(g78
g59
NtRp5360
(dp5361
g62
(dp5362
g89
g90
ssg71
g5351
sg64
(lp5363
S':'
asbag57
(g78
g59
NtRp5364
(dp5365
g62
(dp5366
sg71
g5351
sg64
(lp5367
g57
(g58
g59
NtRp5368
(dp5369
g62
(dp5370
g70
I4
ssg71
g5364
sg64
(lp5371
S'Your Name <you@example.com>'
p5372
asbasbasbag57
(g73
g59
NtRp5373
(dp5374
g62
(dp5375
sg71
g5347
sg64
(lp5376
g57
(g78
g59
NtRp5377
(dp5378
g62
(dp5379
g82
g83
ssg71
g5373
sg64
(lp5380
S'description'
p5381
asbag57
(g78
g59
NtRp5382
(dp5383
g62
(dp5384
g89
g90
ssg71
g5373
sg64
(lp5385
S':'
asbag57
(g78
g59
NtRp5386
(dp5387
g62
(dp5388
sg71
g5373
sg64
(lp5389
g57
(g58
g59
NtRp5390
(dp5391
g62
(dp5392
g70
I4
ssg71
g5386
sg64
(lp5393
S'a cool new app'
p5394
asbasbasbag57
(g73
g59
NtRp5395
(dp5396
g62
(dp5397
sg71
g5347
sg64
(lp5398
g57
(g78
g59
NtRp5399
(dp5400
g62
(dp5401
g82
g83
ssg71
g5395
sg64
(lp5402
S'generator'
p5403
asbag57
(g78
g59
NtRp5404
(dp5405
g62
(dp5406
g89
g90
ssg71
g5395
sg64
(lp5407
S':'
asbag57
(g78
g59
NtRp5408
(dp5409
g62
(dp5410
sg71
g5395
sg64
(lp5411
g57
(g58
g59
NtRp5412
(dp5413
g62
(dp5414
g70
I4
ssg71
g5408
sg64
(lp5415
S'Web2py Web Framework'
p5416
asbasbasbag57
(g73
g59
NtRp5417
(dp5418
g62
(dp5419
sg71
g5347
sg64
(lp5420
g57
(g78
g59
NtRp5421
(dp5422
g62
(dp5423
g82
g83
ssg71
g5417
sg64
(lp5424
S'keywords'
p5425
asbag57
(g78
g59
NtRp5426
(dp5427
g62
(dp5428
g89
g90
ssg71
g5417
sg64
(lp5429
S':'
asbag57
(g78
g59
NtRp5430
(dp5431
g62
(dp5432
sg71
g5417
sg64
(lp5433
g57
(g58
g59
NtRp5434
(dp5435
g62
(dp5436
g70
I4
ssg71
g5430
sg64
(lp5437
S'web2py, python, framework'
p5438
asbasbasbasbasbasbasbag57
(g73
g59
NtRp5439
(dp5440
g62
(dp5441
sg71
g4473
sg64
(lp5442
g57
(g78
g59
NtRp5443
(dp5444
g62
(dp5445
g82
g83
ssg71
g5439
sg64
(lp5446
S'models_to_run'
p5447
asbag57
(g78
g59
NtRp5448
(dp5449
g62
(dp5450
g89
g90
ssg71
g5439
sg64
(lp5451
S':'
asbag57
(g78
g59
NtRp5452
(dp5453
g62
(dp5454
sg71
g5439
sg64
(lp5455
g57
(g58
g59
NtRp5456
(dp5457
g62
(dp5458
g70
I5
ssg71
g5452
sg64
(lp5459
g57
(g66
g59
NtRp5460
(dp5461
g62
(dp5462
g70
I4
ssg71
Nsg64
(lp5463
g57
(g73
g59
NtRp5464
(dp5465
g62
(dp5466
sg71
g5460
sg64
(lp5467
g57
(g78
g59
NtRp5468
(dp5469
g62
(dp5470
sg71
g5464
sg64
(lp5471
g57
(g58
g59
NtRp5472
(dp5473
g62
(dp5474
g70
I4
ssg71
g5468
sg64
(lp5475
S'^\\w+\\.py$'
p5476
asbasbasbag57
(g73
g59
NtRp5477
(dp5478
g62
(dp5479
sg71
g5460
sg64
(lp5480
g57
(g78
g59
NtRp5481
(dp5482
g62
(dp5483
sg71
g5477
sg64
(lp5484
g57
(g58
g59
NtRp5485
(dp5486
g62
(dp5487
g70
I4
ssg71
g5481
sg64
(lp5488
S'^default/\\w+\\.py$'
p5489
asbasbasbag57
(g73
g59
NtRp5490
(dp5491
g62
(dp5492
sg71
g5460
sg64
(lp5493
g57
(g78
g59
NtRp5494
(dp5495
g62
(dp5496
sg71
g5490
sg64
(lp5497
g57
(g58
g59
NtRp5498
(dp5499
g62
(dp5500
g70
I4
ssg71
g5494
sg64
(lp5501
S'^default/single_company_msg/\\w+\\.py$'
p5502
asbasbasbasbasbasbasbag57
(g73
g59
NtRp5503
(dp5504
g62
(dp5505
sg71
g4473
sg64
(lp5506
g57
(g78
g59
NtRp5507
(dp5508
g62
(dp5509
g82
g83
ssg71
g5503
sg64
(lp5510
S'postprocessing'
p5511
asbag57
(g78
g59
NtRp5512
(dp5513
g62
(dp5514
g89
g90
ssg71
g5503
sg64
(lp5515
S':'
asbag57
(g78
g59
NtRp5516
(dp5517
g62
(dp5518
sg71
g5503
sg64
(lp5519
g57
(g58
g59
NtRp5520
(dp5521
g62
(dp5522
g70
I5
ssg71
g5516
sg64
(lp5523
g57
(g66
g59
NtRp5524
(dp5525
g62
(dp5526
g70
I4
ssg71
Nsg64
(lp5527
sbasbasbasbag57
(g73
g59
NtRp5528
(dp5529
g62
(dp5530
sg71
g4473
sg64
(lp5531
g57
(g78
g59
NtRp5532
(dp5533
g62
(dp5534
g82
g83
ssg71
g5528
sg64
(lp5535
S'session_cookie_expires'
p5536
asbag57
(g78
g59
NtRp5537
(dp5538
g62
(dp5539
g89
g90
ssg71
g5528
sg64
(lp5540
S':'
asbag57
(g78
g59
NtRp5541
(dp5542
g62
(dp5543
sg71
g5528
sg64
(lp5544
g57
(g58
g59
NtRp5545
(dp5546
g62
(dp5547
g70
I5
ssg71
g5541
sg64
(lp5548
S'None'
p5549
asbasbasbag57
(g73
g59
NtRp5550
(dp5551
g62
(dp5552
sg71
g4473
sg64
(lp5553
g57
(g78
g59
NtRp5554
(dp5555
g62
(dp5556
g82
g83
ssg71
g5550
sg64
(lp5557
S'session_data_name'
p5558
asbag57
(g78
g59
NtRp5559
(dp5560
g62
(dp5561
g89
g90
ssg71
g5550
sg64
(lp5562
S':'
asbag57
(g78
g59
NtRp5563
(dp5564
g62
(dp5565
sg71
g5550
sg64
(lp5566
g57
(g58
g59
NtRp5567
(dp5568
g62
(dp5569
g70
I5
ssg71
g5563
sg64
(lp5570
S'session_data_backimg'
p5571
asbasbasbag57
(g73
g59
NtRp5572
(dp5573
g62
(dp5574
sg71
g4473
sg64
(lp5575
g57
(g78
g59
NtRp5576
(dp5577
g62
(dp5578
g82
g83
ssg71
g5572
sg64
(lp5579
S'session_file'
p5580
asbag57
(g78
g59
NtRp5581
(dp5582
g62
(dp5583
g89
g90
ssg71
g5572
sg64
(lp5584
S':'
asbag57
(g78
g59
NtRp5585
(dp5586
g62
(dp5587
sg71
g5572
sg64
(lp5588
g57
(g58
g59
NtRp5589
(dp5590
g62
(dp5591
g70
I5
ssg71
g5585
sg64
(lp5592
S"<open file '/home/nishant/Acaedmics/Sem-2/ITWS-2/web2py/applications/backimg/sessions/127.0.0.1-510de37e-632d-4f80-b1c3-d8a3bf298387', mode 'rb+' at 0xaee210d0>"
p5593
asbasbasbag57
(g73
g59
NtRp5594
(dp5595
g62
(dp5596
sg71
g4473
sg64
(lp5597
g57
(g78
g59
NtRp5598
(dp5599
g62
(dp5600
g82
g83
ssg71
g5594
sg64
(lp5601
S'session_filename'
p5602
asbag57
(g78
g59
NtRp5603
(dp5604
g62
(dp5605
g89
g90
ssg71
g5594
sg64
(lp5606
S':'
asbag57
(g78
g59
NtRp5607
(dp5608
g62
(dp5609
sg71
g5594
sg64
(lp5610
g57
(g58
g59
NtRp5611
(dp5612
g62
(dp5613
g70
I5
ssg71
g5607
sg64
(lp5614
S'/home/nishant/Acaedmics/Sem-2/ITWS-2/web2py/applications/backimg/sessions/127.0.0.1-510de37e-632d-4f80-b1c3-d8a3bf298387'
p5615
asbasbasbag57
(g73
g59
NtRp5616
(dp5617
g62
(dp5618
sg71
g4473
sg64
(lp5619
g57
(g78
g59
NtRp5620
(dp5621
g62
(dp5622
g82
g83
ssg71
g5616
sg64
(lp5623
S'session_id'
p5624
asbag57
(g78
g59
NtRp5625
(dp5626
g62
(dp5627
g89
g90
ssg71
g5616
sg64
(lp5628
S':'
asbag57
(g78
g59
NtRp5629
(dp5630
g62
(dp5631
sg71
g5616
sg64
(lp5632
g57
(g58
g59
NtRp5633
(dp5634
g62
(dp5635
g70
I5
ssg71
g5629
sg64
(lp5636
g487
asbasbasbag57
(g73
g59
NtRp5637
(dp5638
g62
(dp5639
sg71
g4473
sg64
(lp5640
g57
(g78
g59
NtRp5641
(dp5642
g62
(dp5643
g82
g83
ssg71
g5637
sg64
(lp5644
S'session_id_name'
p5645
asbag57
(g78
g59
NtRp5646
(dp5647
g62
(dp5648
g89
g90
ssg71
g5637
sg64
(lp5649
S':'
asbag57
(g78
g59
NtRp5650
(dp5651
g62
(dp5652
sg71
g5637
sg64
(lp5653
g57
(g58
g59
NtRp5654
(dp5655
g62
(dp5656
g70
I5
ssg71
g5650
sg64
(lp5657
g4530
asbasbasbag57
(g73
g59
NtRp5658
(dp5659
g62
(dp5660
sg71
g4473
sg64
(lp5661
g57
(g78
g59
NtRp5662
(dp5663
g62
(dp5664
g82
g83
ssg71
g5658
sg64
(lp5665
S'session_locked'
p5666
asbag57
(g78
g59
NtRp5667
(dp5668
g62
(dp5669
g89
g90
ssg71
g5658
sg64
(lp5670
S':'
asbag57
(g78
g59
NtRp5671
(dp5672
g62
(dp5673
sg71
g5658
sg64
(lp5674
g57
(g58
g59
NtRp5675
(dp5676
g62
(dp5677
g70
I5
ssg71
g5671
sg64
(lp5678
g2525
asbasbasbag57
(g73
g59
NtRp5679
(dp5680
g62
(dp5681
sg71
g4473
sg64
(lp5682
g57
(g78
g59
NtRp5683
(dp5684
g62
(dp5685
g82
g83
ssg71
g5679
sg64
(lp5686
S'session_new'
p5687
asbag57
(g78
g59
NtRp5688
(dp5689
g62
(dp5690
g89
g90
ssg71
g5679
sg64
(lp5691
S':'
asbag57
(g78
g59
NtRp5692
(dp5693
g62
(dp5694
sg71
g5679
sg64
(lp5695
g57
(g58
g59
NtRp5696
(dp5697
g62
(dp5698
g70
I5
ssg71
g5692
sg64
(lp5699
g100
asbasbasbag57
(g73
g59
NtRp5700
(dp5701
g62
(dp5702
sg71
g4473
sg64
(lp5703
g57
(g78
g59
NtRp5704
(dp5705
g62
(dp5706
g82
g83
ssg71
g5700
sg64
(lp5707
S'session_storage_type'
p5708
asbag57
(g78
g59
NtRp5709
(dp5710
g62
(dp5711
g89
g90
ssg71
g5700
sg64
(lp5712
S':'
asbag57
(g78
g59
NtRp5713
(dp5714
g62
(dp5715
sg71
g5700
sg64
(lp5716
g57
(g58
g59
NtRp5717
(dp5718
g62
(dp5719
g70
I5
ssg71
g5713
sg64
(lp5720
g3956
asbasbasbag57
(g73
g59
NtRp5721
(dp5722
g62
(dp5723
sg71
g4473
sg64
(lp5724
g57
(g78
g59
NtRp5725
(dp5726
g62
(dp5727
g82
g83
ssg71
g5721
sg64
(lp5728
S'status'
p5729
asbag57
(g78
g59
NtRp5730
(dp5731
g62
(dp5732
g89
g90
ssg71
g5721
sg64
(lp5733
S':'
asbag57
(g78
g59
NtRp5734
(dp5735
g62
(dp5736
sg71
g5721
sg64
(lp5737
g57
(g58
g59
NtRp5738
(dp5739
g62
(dp5740
g70
I5
ssg71
g5734
sg64
(lp5741
S'200'
p5742
asbasbasbag57
(g73
g59
NtRp5743
(dp5744
g62
(dp5745
sg71
g4473
sg64
(lp5746
g57
(g78
g59
NtRp5747
(dp5748
g62
(dp5749
g82
g83
ssg71
g5743
sg64
(lp5750
S'title'
p5751
asbag57
(g78
g59
NtRp5752
(dp5753
g62
(dp5754
g89
g90
ssg71
g5743
sg64
(lp5755
S':'
asbag57
(g78
g59
NtRp5756
(dp5757
g62
(dp5758
sg71
g5743
sg64
(lp5759
g57
(g58
g59
NtRp5760
(dp5761
g62
(dp5762
g70
I5
ssg71
g5756
sg64
(lp5763
S'Resume Builder'
p5764
asbasbasbag57
(g73
g59
NtRp5765
(dp5766
g62
(dp5767
sg71
g4473
sg64
(lp5768
g57
(g78
g59
NtRp5769
(dp5770
g62
(dp5771
g82
g83
ssg71
g5765
sg64
(lp5772
S'view'
p5773
asbag57
(g78
g59
NtRp5774
(dp5775
g62
(dp5776
g89
g90
ssg71
g5765
sg64
(lp5777
S':'
asbag57
(g78
g59
NtRp5778
(dp5779
g62
(dp5780
sg71
g5765
sg64
(lp5781
g57
(g58
g59
NtRp5782
(dp5783
g62
(dp5784
g70
I5
ssg71
g5778
sg64
(lp5785
S'default/single_company_msg.html'
p5786
asbasbasbasbasbsS'locals'
p5787
(dp5788
ssS'traceback'
p5789
S'Traceback (most recent call last):\n  File "/home/nishant/Acaedmics/Sem-2/ITWS-2/web2py/gluon/restricted.py", line 212, in restricted\n    exec ccode in environment\n  File "/home/nishant/Acaedmics/Sem-2/ITWS-2/web2py/applications/backimg/controllers/default.py", line 520, in <module>\n  File "/home/nishant/Acaedmics/Sem-2/ITWS-2/web2py/gluon/globals.py", line 193, in <lambda>\n    self._caller = lambda f: f()\n  File "/home/nishant/Acaedmics/Sem-2/ITWS-2/web2py/applications/backimg/controllers/default.py", line 236, in single_company_msg\n    raq=db((int(request.args(0))==int(db.msg.senderid)) & (db.msg.name == auth.user_id)).select(db.msg.msg_date,db.msg.sub,db.msg.msg)\nTypeError: int() argument must be a string or a number, not \'Field\'\n'
p5790
s.