(dp1
S'output'
p2
S"<type 'exceptions.NameError'> name 'senderid' is not defined"
p3
sS'layer'
p4
S'/home/nishant/Acaedmics/Sem-2/ITWS-2/web2py/applications/backimg/views/default/view_msg.html'
p5
sS'code'
p6
S'response.write(\'<!DOCTYPE html>\\n<!-- paulirish.com/2008/conditional-stylesheets-vs-css-hacks-answer-neither/ -->\\n<!--[if lt IE 7]><html class="ie ie6 ie-lte9 ie-lte8 ie-lte7 no-js" lang="\', escape=False)\nresponse.write(T.accepted_language or \'en\')\nresponse.write(\'"> <![endif]-->\\n<!--[if IE 7]><html class="ie ie7 ie-lte9 ie-lte8 ie-lte7 no-js" lang="\', escape=False)\nresponse.write(T.accepted_language or \'en\')\nresponse.write(\'"> <![endif]-->\\n<!--[if IE 8]><html class="ie ie8 ie-lte9 ie-lte8 no-js" lang="\', escape=False)\nresponse.write(T.accepted_language or \'en\')\nresponse.write(\'"> <![endif]-->\\n<!--[if IE 9]><html class="ie9 ie-lte9 no-js" lang="\', escape=False)\nresponse.write(T.accepted_language or \'en\')\nresponse.write(\'"> <![endif]-->\\n<!--[if (gt IE 9)|!(IE)]><!--> <html class="no-js" lang="\', escape=False)\nresponse.write(T.accepted_language or \'en\')\nresponse.write(\'"> <!--<![endif]-->\\n<head>\\n<style>\\n\\na { color: #349C01; }\\n.header h1 { color: #349C01; }\\n.header h2 { color: white; font-style: italic; font-size: 14px;}\\n.statusbar { background: #333333; border-bottom: 5px #349C01 solid; }\\n.statusbar a { color: white; }\\n.footer { border-top: 5px #349C01 solid; }\\n</style>\\n<meta charset="utf-8" />\\n<!-- www.phpied.com/conditional-comments-block-downloads/ -->\\n<!-- Always force latest IE rendering engine\\n(even in intranet) & Chrome Frame\\nRemove this if you use the .htaccess -->\\n<!--[if IE]>\\n<meta http-equiv="X-UA-Compatible" content="IE=edge\', escape=False)\nresponse.write(not request.is_local and \',chrome=1\' or \'\')\nresponse.write(\'">\\n<![endif]-->\\n\\n<title>\', escape=False)\nresponse.write(response.title or request.application)\nresponse.write(\'</title>\\n\\n<!-- http://dev.w3.org/html5/markup/meta.name.html -->\\n<!--<meta name="application-name" content="\', escape=False)\nresponse.write(request.application)\nresponse.write(\'" />-->\\n\\n<!-- Speaking of Google, don\\\'t forget to set your site up:\\nhttp://google.com/webmasters -->\\n<meta name="google-site-verification" content="" />\\n\\n<!--  Mobile Viewport Fix\\nj.mp/mobileviewport & davidbcalhoun.com/2010/viewport-metatag\\ndevice-width: Occupy full width of the screen in its current orientation\\ninitial-scale = 1.0 retains dimensions instead of zooming out if page height > device height\\nuser-scalable = yes allows the user to zoom in -->\\n<meta name="viewport" content="width=device-width, initial-scale=2.0" />\\n\\n<link rel="shortcut icon" href="\', escape=False)\nresponse.write(URL(\'static\',\'images/l.ico\'))\nresponse.write(\'" type="image/x-icon">\\n<link rel="apple-touch-icon" href="\', escape=False)\nresponse.write(URL(\'static\',\'images/favicon.png\'))\nresponse.write(\'">\\n\\n<!-- All JavaScript at the bottom, except for Modernizr which enables\\nHTML5 elements & feature detects -->\\n<script src="\', escape=False)\nresponse.write(URL(\'static\',\'js/modernizr.custom.js\'))\nresponse.write(\'"></script>\\n\\n<!-- include stylesheets -->\\n\', escape=False)\nresponse.files.append(URL(\'static\',\'css/web2py.css\'))\nresponse.files.append(URL(\'static\',\'css/bootstrap.min.css\'))\nresponse.files.append(URL(\'static\',\'css/bootstrap-responsive.min.css\'))\nresponse.files.append(URL(\'static\',\'css/web2py_bootstrap.css\'))\nresponse.write(\'\\n\\n\', escape=False)\nresponse.write(\'<script type="text/javascript"><!--\\n    // These variables are used by the web2py_ajax_init function in web2py_ajax.js (which is loaded below).\\n    var w2p_ajax_confirm_message = "\', escape=False)\nresponse.write(T(\'Are you sure you want to delete this object?\'))\nresponse.write(\'";\\n    var w2p_ajax_date_format = "\', escape=False)\nresponse.write(T(\'%Y-%m-%d\'))\nresponse.write(\'";\\n    var w2p_ajax_datetime_format = "\', escape=False)\nresponse.write(T(\'%Y-%m-%d %H:%M:%S\'))\nresponse.write(\'";\\n    var ajax_error_500 = \\\'\', escape=False)\nresponse.write(XML(T(\'An error occured, please %s the page\') % A(T(\'reload\'), _href=URL(args=request.args, vars=request.vars))))\nresponse.write("\'\\n    //--></script>\\n", escape=False)\nresponse.files.insert(0,URL(\'static\',\'js/jquery.js\'))\nresponse.files.insert(1,URL(\'static\',\'css/calendar.css\'))\nresponse.files.insert(2,URL(\'static\',\'js/calendar.js\'))\nresponse.files.insert(3,URL(\'static\',\'js/web2py.js\'))\nresponse.include_meta()\nresponse.include_files()\nresponse.write(\'\\n\', escape=False)\nresponse.write(\'\\n\\n\', escape=False)\n# using sidebars need to know what sidebar you want to use\nleft_sidebar_enabled = globals().get(\'left_sidebar_enabled\',False)\nright_sidebar_enabled = globals().get(\'right_sidebar_enabled\',False)\nmiddle_columns = {0:\'span12\',1:\'span9\',2:\'span6\'}[\n(left_sidebar_enabled and 1 or 0)+(right_sidebar_enabled and 1 or 0)]\nresponse.write(\'\\n\\n<!-- uncomment here to load jquery-ui\\n<link rel="stylesheet" href="http://ajax.googleapis.com/ajax/libs/jqueryui/1.8.16/themes/base/jquery-ui.css" type="text/css" media="all" />\\n<script src="http://ajax.googleapis.com/ajax/libs/jqueryui/1.8.16/jquery-ui.min.js" type="text/javascript"></script>\\nuncomment to load jquery-ui //-->\\n<noscript><link href="\', escape=False)\nresponse.write(URL(\'static\', \'css/web2py_bootstrap_nojs.css\'))\nresponse.write(\'" rel="stylesheet" type="text/css" /></noscript>\\n\', escape=False)\nresponse.write(\'\\n</head>\\n\\n<body background="\', escape=False)\nresponse.write(URL(\'static\',\'images/index3.jpeg\'))\nresponse.write(\'">\\n<!-- Navbar ================================================== -->\\n<div class="navbar navbar-inverse navbar-fixed-top">\\n<div class="flash">\', escape=False)\nresponse.write(response.flash or \'\')\nresponse.write(\'</div>\\n<div class="navbar-inner">\\n<div class="container">\\n<!-- the next tag is necessary for bootstrap menus, do not remove -->\\n<button type="button" class="btn btn-navbar" data-toggle="collapse" data-target=".nav-collapse">\\n<span class="icon-bar"></span>\\n<span class="icon-bar"></span>\\n<span class="icon-bar"></span>\\n</button>\\n\', escape=False)\nresponse.write(response.logo or \'\')\nresponse.write(\'\\n<ul id="navbar" class="nav pull-right">\', escape=False)\nresponse.write(\'auth\' in globals() and auth.navbar(mode="dropdown") or \'\')\nresponse.write(\'</ul>\\n<div class="nav-collapse">\\n\', escape=False)\nis_mobile=request.user_agent().is_mobile\nresponse.write(\'\\n\', escape=False)\nif response.menu:\n    response.write(\'\\n\', escape=False)\n    response.write(MENU(response.menu, _class=\'mobile-menu nav\' if is_mobile else \'nav\',mobile=is_mobile,li_class=\'dropdown\',ul_class=\'dropdown-menu\'))\n    response.write(\'\\n\', escape=False)\n    pass\nresponse.write(\'\\n</div><!--/.nav-collapse -->\\n</div>\\n</div>\\n</div><!--/top navbar -->\\n\\n    <div class="container"> \\n<!-- Masthead ================================================== -->\\n<header class="mastheader row" id="header">\\n<div class="span12">\\n<div class="page-header">\\n<h1>\\n\', escape=False)\nresponse.write(response.title or request.application)\nresponse.write(\'\\n<small>\', escape=False)\nresponse.write(response.subtitle or \'\')\nresponse.write(\'</small>\\n</h1>\\n</div>\\n</div>\\n</header>\\n        \\n<section id="main" class="main row">\\n\', escape=False)\nif left_sidebar_enabled:\n    response.write(\'\\n<div class="span3 left-sidebar">\\n\', escape=False)\n    response.write(\'\\n<h3>Left Sidebar</h3>\\n\', escape=False)\n    response.write(\'\\n</div>\\n\', escape=False)\n    pass\nresponse.write(\'\\n\\n<div class="\', escape=False)\nresponse.write(middle_columns)\nresponse.write(\'">\\n\', escape=False)\nresponse.write(\'\\n\', escape=False)\nresponse.write(\'\\n<!--<table>\\n<th>\\n\\t<tr>\\n\\t\\t<td><b>Sender</b></td>\\n\\t\\t<td><b>Subject</b></td>\\n\\t\\t<td><b>Message</b></td>\\n\\t</tr>\\n</th>\\n\', escape=False)\nfor i in r:\n    response.write(\'\\n\\t<tr>    \\n        \\t<td>\', escape=False)\n    response.write(i.sender)\n    response.write(\'</td>\\n\\t        <td>\', escape=False)\n    response.write(i.sub)\n    response.write(\'</td>\\n\\t        <td>\', escape=False)\n    response.write(i.msg)\n    response.write(\'</td>\\n\\t</tr>\\n\', escape=False)\n    pass\nresponse.write(\'\\n</table>-->\\n<h3>View you conversations with:</h3><br />\\n<ul>\\n\', escape=False)\nfor i in dict_companies.keys():\n    response.write(\'\\n    \', escape=False)\n    msgid=dict_companies[i][senderid]\n    response.write(\'\\n    <li><a href="\', escape=False)\n    response.write(URL(\'single_company_msg\',args=msgid))\n    response.write(\'" >\', escape=False)\n    response.write(i)\n    response.write(\'</a>\\n\', escape=False)\n    pass\nresponse.write(\'\\n\', escape=False)\nresponse.write(\'\\n\', escape=False)\nresponse.write(\'\\n</div>\\n\\n\', escape=False)\nif right_sidebar_enabled:\n    response.write(\'\\n<div class="span3">\\n\', escape=False)\n    response.write(\'\\n<h3>Right Sidebar</h3>\\n<p></p>\\n\', escape=False)\n    response.write(\'\\n</div>\\n\', escape=False)\n    pass\nresponse.write(\'\\n</section><!--/main-->\\n\\n<!-- Footer ================================================== -->\\n<div class="row">\\n<footer class="footer span12" id="footer">\\n<div class="footer-content">\\n\', escape=False)\nresponse.write(\' <!-- this is default footer -->\\n<div class="copyright pull-left">\', escape=False)\nresponse.write(T(\'Copyright\'))\nresponse.write(\' <b>\', escape=False)\nresponse.write(T(\'Nash - Adichan Foundation\'))\nresponse.write(\'</b> &#169; \', escape=False)\nresponse.write(request.now.year)\nresponse.write(\'</div>\\n<div id="poweredBy" class="pull-right">\\n\', escape=False)\nresponse.write(T(\'Powered by\'))\nresponse.write(\'\\n<a href="http://www.web2py.com/">web2py</a>\\n</div>\\n\', escape=False)\nresponse.write(\'\\n</div>\\n</footer>\\n</div>\\n\\n</div> <!-- /container -->\\n\\n<!-- The javascript =============================================\\n(Placed at the end of the document so the pages load faster) -->\\n<script src="\', escape=False)\nresponse.write(URL(\'static\',\'js/bootstrap.min.js\'))\nresponse.write(\'"></script>\\n<script src="\', escape=False)\nresponse.write(URL(\'static\',\'js/web2py_bootstrap.js\'))\nresponse.write(\'"></script>\\n<!--[if lt IE 7 ]>\\n<script src="\', escape=False)\nresponse.write(URL(\'static\',\'js/dd_belatedpng.js\'))\nresponse.write(\'"></script>\\n<script> DD_belatedPNG.fix(\\\'img, .png_bg\\\'); //fix any <img> or .png_bg background-images </script>\\n<![endif]-->\\n\\n\', escape=False)\nif response.google_analytics_id:\n    response.write(\'\\n<script src="\', escape=False)\n    response.write(URL(\'static\',\'js/analytics.min.js\'))\n    response.write(\'"></script>\\n<script type="text/javascript">\\nanalytics.initialize({\\n        \\\'Google Analytics\\\':{trackingId:\\\'\', escape=False)\n    response.write(response.google_analytics_id)\n    response.write("\'}\\n        });</script>\\n", escape=False)\n    pass\nresponse.write(\'\\n<script src="\', escape=False)\nresponse.write(URL(\'static\',\'js/share.js\',vars=dict(static=URL(\'static\',\'images\'))))\nresponse.write(\'"></script>\\n</body>\\n</html>\\n\', escape=False)'
p7
sS'snapshot'
p8
(dp9
S'exception'
p10
(dp11
S'__hash__'
p12
S"<method-wrapper '__hash__' of exceptions.NameError object>"
p13
sS'__setattr__'
p14
S"<method-wrapper '__setattr__' of exceptions.NameError object>"
p15
sS'__reduce_ex__'
p16
S'<built-in method __reduce_ex__ of exceptions.NameError object>'
p17
sS'__getslice__'
p18
S"<method-wrapper '__getslice__' of exceptions.NameError object>"
p19
sS'__getitem__'
p20
S"<method-wrapper '__getitem__' of exceptions.NameError object>"
p21
sS'__setstate__'
p22
S'<built-in method __setstate__ of exceptions.NameError object>'
p23
sS'__reduce__'
p24
S'<built-in method __reduce__ of exceptions.NameError object>'
p25
sS'__str__'
p26
S"<method-wrapper '__str__' of exceptions.NameError object>"
p27
sS'__format__'
p28
S'<built-in method __format__ of exceptions.NameError object>'
p29
sS'__getattribute__'
p30
S"<method-wrapper '__getattribute__' of exceptions.NameError object>"
p31
sS'__class__'
p32
S"<type 'exceptions.NameError'>"
p33
sS'__unicode__'
p34
S'<built-in method __unicode__ of exceptions.NameError object>'
p35
sS'__delattr__'
p36
S"<method-wrapper '__delattr__' of exceptions.NameError object>"
p37
sS'__subclasshook__'
p38
S'<built-in method __subclasshook__ of type object>'
p39
sS'__repr__'
p40
S"<method-wrapper '__repr__' of exceptions.NameError object>"
p41
sS'args'
p42
S'("name \'senderid\' is not defined",)'
p43
sS'__dict__'
p44
S'{}'
p45
sS'__sizeof__'
p46
S'<built-in method __sizeof__ of exceptions.NameError object>'
p47
sS'__doc__'
p48
S"'Name not found globally.'"
p49
sS'__init__'
p50
S"<method-wrapper '__init__' of exceptions.NameError object>"
p51
sS'__new__'
p52
S'<built-in method __new__ of type object>'
p53
ssS'evalue'
p54
S"name 'senderid' is not defined"
p55
sS'request'
p56
ccopy_reg
_reconstructor
p57
(cgluon.html
BEAUTIFY
p58
c__builtin__
object
p59
NtRp60
(dp61
S'attributes'
p62
(dp63
sS'components'
p64
(lp65
g57
(cgluon.html
TABLE
p66
g59
NtRp67
(dp68
g62
(dp69
S'level'
p70
I5
ssS'parent'
p71
Nsg64
(lp72
g57
(cgluon.html
TR
p73
g59
NtRp74
(dp75
g62
(dp76
sg71
g67
sg64
(lp77
g57
(cgluon.html
TD
p78
g59
NtRp79
(dp80
g62
(dp81
S'_style'
p82
S'font-weight:bold;vertical-align:top'
p83
ssg71
g74
sg64
(lp84
S'ajax'
p85
asbag57
(g78
g59
NtRp86
(dp87
g62
(dp88
S'_valign'
p89
S'top'
p90
ssg71
g74
sg64
(lp91
S':'
asbag57
(g78
g59
NtRp92
(dp93
g62
(dp94
sg71
g74
sg64
(lp95
g57
(g58
g59
NtRp96
(dp97
g62
(dp98
g70
I5
ssg71
g92
sg64
(lp99
S'False'
p100
asbasbasbag57
(g73
g59
NtRp101
(dp102
g62
(dp103
sg71
g67
sg64
(lp104
g57
(g78
g59
NtRp105
(dp106
g62
(dp107
g82
g83
ssg71
g101
sg64
(lp108
S'application'
p109
asbag57
(g78
g59
NtRp110
(dp111
g62
(dp112
g89
g90
ssg71
g101
sg64
(lp113
S':'
asbag57
(g78
g59
NtRp114
(dp115
g62
(dp116
sg71
g101
sg64
(lp117
g57
(g58
g59
NtRp118
(dp119
g62
(dp120
g70
I5
ssg71
g114
sg64
(lp121
S'backimg'
p122
asbasbasbag57
(g73
g59
NtRp123
(dp124
g62
(dp125
sg71
g67
sg64
(lp126
g57
(g78
g59
NtRp127
(dp128
g62
(dp129
g82
g83
ssg71
g123
sg64
(lp130
g42
asbag57
(g78
g59
NtRp131
(dp132
g62
(dp133
g89
g90
ssg71
g123
sg64
(lp134
S':'
asbag57
(g78
g59
NtRp135
(dp136
g62
(dp137
sg71
g123
sg64
(lp138
g57
(g58
g59
NtRp139
(dp140
g62
(dp141
g70
I5
ssg71
g135
sg64
(lp142
g57
(g66
g59
NtRp143
(dp144
g62
(dp145
g70
I4
ssg71
Nsg64
(lp146
sbasbasbasbag57
(g73
g59
NtRp147
(dp148
g62
(dp149
sg71
g67
sg64
(lp150
g57
(g78
g59
NtRp151
(dp152
g62
(dp153
g82
g83
ssg71
g147
sg64
(lp154
S'body'
p155
asbag57
(g78
g59
NtRp156
(dp157
g62
(dp158
g89
g90
ssg71
g147
sg64
(lp159
S':'
asbag57
(g78
g59
NtRp160
(dp161
g62
(dp162
sg71
g147
sg64
(lp163
g57
(g58
g59
NtRp164
(dp165
g62
(dp166
g70
I5
ssg71
g160
sg64
(lp167
S'<cStringIO.StringO object at 0xafb64860>'
p168
asbasbasbag57
(g73
g59
NtRp169
(dp170
g62
(dp171
sg71
g67
sg64
(lp172
g57
(g78
g59
NtRp173
(dp174
g62
(dp175
g82
g83
ssg71
g169
sg64
(lp176
S'cid'
p177
asbag57
(g78
g59
NtRp178
(dp179
g62
(dp180
g89
g90
ssg71
g169
sg64
(lp181
S':'
asbag57
(g78
g59
NtRp182
(dp183
g62
(dp184
sg71
g169
sg64
(lp185
g57
(g58
g59
NtRp186
(dp187
g62
(dp188
g70
I5
ssg71
g182
sg64
(lp189
S'None'
p190
asbasbasbag57
(g73
g59
NtRp191
(dp192
g62
(dp193
sg71
g67
sg64
(lp194
g57
(g78
g59
NtRp195
(dp196
g62
(dp197
g82
g83
ssg71
g191
sg64
(lp198
S'client'
p199
asbag57
(g78
g59
NtRp200
(dp201
g62
(dp202
g89
g90
ssg71
g191
sg64
(lp203
S':'
asbag57
(g78
g59
NtRp204
(dp205
g62
(dp206
sg71
g191
sg64
(lp207
g57
(g58
g59
NtRp208
(dp209
g62
(dp210
g70
I5
ssg71
g204
sg64
(lp211
S'127.0.0.1'
p212
asbasbasbag57
(g73
g59
NtRp213
(dp214
g62
(dp215
sg71
g67
sg64
(lp216
g57
(g78
g59
NtRp217
(dp218
g62
(dp219
g82
g83
ssg71
g213
sg64
(lp220
S'controller'
p221
asbag57
(g78
g59
NtRp222
(dp223
g62
(dp224
g89
g90
ssg71
g213
sg64
(lp225
S':'
asbag57
(g78
g59
NtRp226
(dp227
g62
(dp228
sg71
g213
sg64
(lp229
g57
(g58
g59
NtRp230
(dp231
g62
(dp232
g70
I5
ssg71
g226
sg64
(lp233
S'default'
p234
asbasbasbag57
(g73
g59
NtRp235
(dp236
g62
(dp237
sg71
g67
sg64
(lp238
g57
(g78
g59
NtRp239
(dp240
g62
(dp241
g82
g83
ssg71
g235
sg64
(lp242
S'cookies'
p243
asbag57
(g78
g59
NtRp244
(dp245
g62
(dp246
g89
g90
ssg71
g235
sg64
(lp247
S':'
asbag57
(g78
g59
NtRp248
(dp249
g62
(dp250
sg71
g235
sg64
(lp251
g57
(g58
g59
NtRp252
(dp253
g62
(dp254
g70
I5
ssg71
g248
sg64
(lp255
g57
(g66
g59
NtRp256
(dp257
g62
(dp258
g70
I4
ssg71
Nsg64
(lp259
g57
(g73
g59
NtRp260
(dp261
g62
(dp262
sg71
g256
sg64
(lp263
g57
(g78
g59
NtRp264
(dp265
g62
(dp266
g82
g83
ssg71
g260
sg64
(lp267
S'session_id_admin'
p268
asbag57
(g78
g59
NtRp269
(dp270
g62
(dp271
g89
g90
ssg71
g260
sg64
(lp272
S':'
asbag57
(g78
g59
NtRp273
(dp274
g62
(dp275
sg71
g260
sg64
(lp276
g57
(g58
g59
NtRp277
(dp278
g62
(dp279
g70
I4
ssg71
g273
sg64
(lp280
S'127.0.0.1-d8499d8b-4f3a-4ee5-a081-5f93717a670d'
p281
ag57
(g66
g59
NtRp282
(dp283
g62
(dp284
g70
I3
ssg71
Nsg64
(lp285
g57
(g73
g59
NtRp286
(dp287
g62
(dp288
sg71
g282
sg64
(lp289
g57
(g78
g59
NtRp290
(dp291
g62
(dp292
g82
g83
ssg71
g286
sg64
(lp293
S'comment'
p294
asbag57
(g78
g59
NtRp295
(dp296
g62
(dp297
g89
g90
ssg71
g286
sg64
(lp298
S':'
asbag57
(g78
g59
NtRp299
(dp300
g62
(dp301
sg71
g286
sg64
(lp302
g57
(g58
g59
NtRp303
(dp304
g62
(dp305
g70
I3
ssg71
g299
sg64
(lp306
S''
asbasbasbag57
(g73
g59
NtRp307
(dp308
g62
(dp309
sg71
g282
sg64
(lp310
g57
(g78
g59
NtRp311
(dp312
g62
(dp313
g82
g83
ssg71
g307
sg64
(lp314
S'domain'
p315
asbag57
(g78
g59
NtRp316
(dp317
g62
(dp318
g89
g90
ssg71
g307
sg64
(lp319
S':'
asbag57
(g78
g59
NtRp320
(dp321
g62
(dp322
sg71
g307
sg64
(lp323
g57
(g58
g59
NtRp324
(dp325
g62
(dp326
g70
I3
ssg71
g320
sg64
(lp327
S''
asbasbasbag57
(g73
g59
NtRp328
(dp329
g62
(dp330
sg71
g282
sg64
(lp331
g57
(g78
g59
NtRp332
(dp333
g62
(dp334
g82
g83
ssg71
g328
sg64
(lp335
S'expires'
p336
asbag57
(g78
g59
NtRp337
(dp338
g62
(dp339
g89
g90
ssg71
g328
sg64
(lp340
S':'
asbag57
(g78
g59
NtRp341
(dp342
g62
(dp343
sg71
g328
sg64
(lp344
g57
(g58
g59
NtRp345
(dp346
g62
(dp347
g70
I3
ssg71
g341
sg64
(lp348
S''
asbasbasbag57
(g73
g59
NtRp349
(dp350
g62
(dp351
sg71
g282
sg64
(lp352
g57
(g78
g59
NtRp353
(dp354
g62
(dp355
g82
g83
ssg71
g349
sg64
(lp356
S'httponly'
p357
asbag57
(g78
g59
NtRp358
(dp359
g62
(dp360
g89
g90
ssg71
g349
sg64
(lp361
S':'
asbag57
(g78
g59
NtRp362
(dp363
g62
(dp364
sg71
g349
sg64
(lp365
g57
(g58
g59
NtRp366
(dp367
g62
(dp368
g70
I3
ssg71
g362
sg64
(lp369
S''
asbasbasbag57
(g73
g59
NtRp370
(dp371
g62
(dp372
sg71
g282
sg64
(lp373
g57
(g78
g59
NtRp374
(dp375
g62
(dp376
g82
g83
ssg71
g370
sg64
(lp377
S'max-age'
p378
asbag57
(g78
g59
NtRp379
(dp380
g62
(dp381
g89
g90
ssg71
g370
sg64
(lp382
S':'
asbag57
(g78
g59
NtRp383
(dp384
g62
(dp385
sg71
g370
sg64
(lp386
g57
(g58
g59
NtRp387
(dp388
g62
(dp389
g70
I3
ssg71
g383
sg64
(lp390
S''
asbasbasbag57
(g73
g59
NtRp391
(dp392
g62
(dp393
sg71
g282
sg64
(lp394
g57
(g78
g59
NtRp395
(dp396
g62
(dp397
g82
g83
ssg71
g391
sg64
(lp398
S'path'
p399
asbag57
(g78
g59
NtRp400
(dp401
g62
(dp402
g89
g90
ssg71
g391
sg64
(lp403
S':'
asbag57
(g78
g59
NtRp404
(dp405
g62
(dp406
sg71
g391
sg64
(lp407
g57
(g58
g59
NtRp408
(dp409
g62
(dp410
g70
I3
ssg71
g404
sg64
(lp411
S''
asbasbasbag57
(g73
g59
NtRp412
(dp413
g62
(dp414
sg71
g282
sg64
(lp415
g57
(g78
g59
NtRp416
(dp417
g62
(dp418
g82
g83
ssg71
g412
sg64
(lp419
S'secure'
p420
asbag57
(g78
g59
NtRp421
(dp422
g62
(dp423
g89
g90
ssg71
g412
sg64
(lp424
S':'
asbag57
(g78
g59
NtRp425
(dp426
g62
(dp427
sg71
g412
sg64
(lp428
g57
(g58
g59
NtRp429
(dp430
g62
(dp431
g70
I3
ssg71
g425
sg64
(lp432
S''
asbasbasbag57
(g73
g59
NtRp433
(dp434
g62
(dp435
sg71
g282
sg64
(lp436
g57
(g78
g59
NtRp437
(dp438
g62
(dp439
g82
g83
ssg71
g433
sg64
(lp440
S'version'
p441
asbag57
(g78
g59
NtRp442
(dp443
g62
(dp444
g89
g90
ssg71
g433
sg64
(lp445
S':'
asbag57
(g78
g59
NtRp446
(dp447
g62
(dp448
sg71
g433
sg64
(lp449
g57
(g58
g59
NtRp450
(dp451
g62
(dp452
g70
I3
ssg71
g446
sg64
(lp453
S''
asbasbasbasbasbasbasbag57
(g73
g59
NtRp454
(dp455
g62
(dp456
sg71
g256
sg64
(lp457
g57
(g78
g59
NtRp458
(dp459
g62
(dp460
g82
g83
ssg71
g454
sg64
(lp461
S'session_id_backimg'
p462
asbag57
(g78
g59
NtRp463
(dp464
g62
(dp465
g89
g90
ssg71
g454
sg64
(lp466
S':'
asbag57
(g78
g59
NtRp467
(dp468
g62
(dp469
sg71
g454
sg64
(lp470
g57
(g58
g59
NtRp471
(dp472
g62
(dp473
g70
I4
ssg71
g467
sg64
(lp474
S'127.0.0.1-510de37e-632d-4f80-b1c3-d8a3bf298387'
p475
ag57
(g66
g59
NtRp476
(dp477
g62
(dp478
g70
I3
ssg71
Nsg64
(lp479
g57
(g73
g59
NtRp480
(dp481
g62
(dp482
sg71
g476
sg64
(lp483
g57
(g78
g59
NtRp484
(dp485
g62
(dp486
g82
g83
ssg71
g480
sg64
(lp487
g294
asbag57
(g78
g59
NtRp488
(dp489
g62
(dp490
g89
g90
ssg71
g480
sg64
(lp491
S':'
asbag57
(g78
g59
NtRp492
(dp493
g62
(dp494
sg71
g480
sg64
(lp495
g57
(g58
g59
NtRp496
(dp497
g62
(dp498
g70
I3
ssg71
g492
sg64
(lp499
S''
asbasbasbag57
(g73
g59
NtRp500
(dp501
g62
(dp502
sg71
g476
sg64
(lp503
g57
(g78
g59
NtRp504
(dp505
g62
(dp506
g82
g83
ssg71
g500
sg64
(lp507
g315
asbag57
(g78
g59
NtRp508
(dp509
g62
(dp510
g89
g90
ssg71
g500
sg64
(lp511
S':'
asbag57
(g78
g59
NtRp512
(dp513
g62
(dp514
sg71
g500
sg64
(lp515
g57
(g58
g59
NtRp516
(dp517
g62
(dp518
g70
I3
ssg71
g512
sg64
(lp519
S''
asbasbasbag57
(g73
g59
NtRp520
(dp521
g62
(dp522
sg71
g476
sg64
(lp523
g57
(g78
g59
NtRp524
(dp525
g62
(dp526
g82
g83
ssg71
g520
sg64
(lp527
g336
asbag57
(g78
g59
NtRp528
(dp529
g62
(dp530
g89
g90
ssg71
g520
sg64
(lp531
S':'
asbag57
(g78
g59
NtRp532
(dp533
g62
(dp534
sg71
g520
sg64
(lp535
g57
(g58
g59
NtRp536
(dp537
g62
(dp538
g70
I3
ssg71
g532
sg64
(lp539
S''
asbasbasbag57
(g73
g59
NtRp540
(dp541
g62
(dp542
sg71
g476
sg64
(lp543
g57
(g78
g59
NtRp544
(dp545
g62
(dp546
g82
g83
ssg71
g540
sg64
(lp547
g357
asbag57
(g78
g59
NtRp548
(dp549
g62
(dp550
g89
g90
ssg71
g540
sg64
(lp551
S':'
asbag57
(g78
g59
NtRp552
(dp553
g62
(dp554
sg71
g540
sg64
(lp555
g57
(g58
g59
NtRp556
(dp557
g62
(dp558
g70
I3
ssg71
g552
sg64
(lp559
S''
asbasbasbag57
(g73
g59
NtRp560
(dp561
g62
(dp562
sg71
g476
sg64
(lp563
g57
(g78
g59
NtRp564
(dp565
g62
(dp566
g82
g83
ssg71
g560
sg64
(lp567
g378
asbag57
(g78
g59
NtRp568
(dp569
g62
(dp570
g89
g90
ssg71
g560
sg64
(lp571
S':'
asbag57
(g78
g59
NtRp572
(dp573
g62
(dp574
sg71
g560
sg64
(lp575
g57
(g58
g59
NtRp576
(dp577
g62
(dp578
g70
I3
ssg71
g572
sg64
(lp579
S''
asbasbasbag57
(g73
g59
NtRp580
(dp581
g62
(dp582
sg71
g476
sg64
(lp583
g57
(g78
g59
NtRp584
(dp585
g62
(dp586
g82
g83
ssg71
g580
sg64
(lp587
g399
asbag57
(g78
g59
NtRp588
(dp589
g62
(dp590
g89
g90
ssg71
g580
sg64
(lp591
S':'
asbag57
(g78
g59
NtRp592
(dp593
g62
(dp594
sg71
g580
sg64
(lp595
g57
(g58
g59
NtRp596
(dp597
g62
(dp598
g70
I3
ssg71
g592
sg64
(lp599
S''
asbasbasbag57
(g73
g59
NtRp600
(dp601
g62
(dp602
sg71
g476
sg64
(lp603
g57
(g78
g59
NtRp604
(dp605
g62
(dp606
g82
g83
ssg71
g600
sg64
(lp607
g420
asbag57
(g78
g59
NtRp608
(dp609
g62
(dp610
g89
g90
ssg71
g600
sg64
(lp611
S':'
asbag57
(g78
g59
NtRp612
(dp613
g62
(dp614
sg71
g600
sg64
(lp615
g57
(g58
g59
NtRp616
(dp617
g62
(dp618
g70
I3
ssg71
g612
sg64
(lp619
S''
asbasbasbag57
(g73
g59
NtRp620
(dp621
g62
(dp622
sg71
g476
sg64
(lp623
g57
(g78
g59
NtRp624
(dp625
g62
(dp626
g82
g83
ssg71
g620
sg64
(lp627
g441
asbag57
(g78
g59
NtRp628
(dp629
g62
(dp630
g89
g90
ssg71
g620
sg64
(lp631
S':'
asbag57
(g78
g59
NtRp632
(dp633
g62
(dp634
sg71
g620
sg64
(lp635
g57
(g58
g59
NtRp636
(dp637
g62
(dp638
g70
I3
ssg71
g632
sg64
(lp639
S''
asbasbasbasbasbasbasbag57
(g73
g59
NtRp640
(dp641
g62
(dp642
sg71
g256
sg64
(lp643
g57
(g78
g59
NtRp644
(dp645
g62
(dp646
g82
g83
ssg71
g640
sg64
(lp647
S'session_id_resume1'
p648
asbag57
(g78
g59
NtRp649
(dp650
g62
(dp651
g89
g90
ssg71
g640
sg64
(lp652
S':'
asbag57
(g78
g59
NtRp653
(dp654
g62
(dp655
sg71
g640
sg64
(lp656
g57
(g58
g59
NtRp657
(dp658
g62
(dp659
g70
I4
ssg71
g653
sg64
(lp660
S'127.0.0.1-5cabbee1-4f7f-4691-8820-683475549a85'
p661
ag57
(g66
g59
NtRp662
(dp663
g62
(dp664
g70
I3
ssg71
Nsg64
(lp665
g57
(g73
g59
NtRp666
(dp667
g62
(dp668
sg71
g662
sg64
(lp669
g57
(g78
g59
NtRp670
(dp671
g62
(dp672
g82
g83
ssg71
g666
sg64
(lp673
g294
asbag57
(g78
g59
NtRp674
(dp675
g62
(dp676
g89
g90
ssg71
g666
sg64
(lp677
S':'
asbag57
(g78
g59
NtRp678
(dp679
g62
(dp680
sg71
g666
sg64
(lp681
g57
(g58
g59
NtRp682
(dp683
g62
(dp684
g70
I3
ssg71
g678
sg64
(lp685
S''
asbasbasbag57
(g73
g59
NtRp686
(dp687
g62
(dp688
sg71
g662
sg64
(lp689
g57
(g78
g59
NtRp690
(dp691
g62
(dp692
g82
g83
ssg71
g686
sg64
(lp693
g315
asbag57
(g78
g59
NtRp694
(dp695
g62
(dp696
g89
g90
ssg71
g686
sg64
(lp697
S':'
asbag57
(g78
g59
NtRp698
(dp699
g62
(dp700
sg71
g686
sg64
(lp701
g57
(g58
g59
NtRp702
(dp703
g62
(dp704
g70
I3
ssg71
g698
sg64
(lp705
S''
asbasbasbag57
(g73
g59
NtRp706
(dp707
g62
(dp708
sg71
g662
sg64
(lp709
g57
(g78
g59
NtRp710
(dp711
g62
(dp712
g82
g83
ssg71
g706
sg64
(lp713
g336
asbag57
(g78
g59
NtRp714
(dp715
g62
(dp716
g89
g90
ssg71
g706
sg64
(lp717
S':'
asbag57
(g78
g59
NtRp718
(dp719
g62
(dp720
sg71
g706
sg64
(lp721
g57
(g58
g59
NtRp722
(dp723
g62
(dp724
g70
I3
ssg71
g718
sg64
(lp725
S''
asbasbasbag57
(g73
g59
NtRp726
(dp727
g62
(dp728
sg71
g662
sg64
(lp729
g57
(g78
g59
NtRp730
(dp731
g62
(dp732
g82
g83
ssg71
g726
sg64
(lp733
g357
asbag57
(g78
g59
NtRp734
(dp735
g62
(dp736
g89
g90
ssg71
g726
sg64
(lp737
S':'
asbag57
(g78
g59
NtRp738
(dp739
g62
(dp740
sg71
g726
sg64
(lp741
g57
(g58
g59
NtRp742
(dp743
g62
(dp744
g70
I3
ssg71
g738
sg64
(lp745
S''
asbasbasbag57
(g73
g59
NtRp746
(dp747
g62
(dp748
sg71
g662
sg64
(lp749
g57
(g78
g59
NtRp750
(dp751
g62
(dp752
g82
g83
ssg71
g746
sg64
(lp753
g378
asbag57
(g78
g59
NtRp754
(dp755
g62
(dp756
g89
g90
ssg71
g746
sg64
(lp757
S':'
asbag57
(g78
g59
NtRp758
(dp759
g62
(dp760
sg71
g746
sg64
(lp761
g57
(g58
g59
NtRp762
(dp763
g62
(dp764
g70
I3
ssg71
g758
sg64
(lp765
S''
asbasbasbag57
(g73
g59
NtRp766
(dp767
g62
(dp768
sg71
g662
sg64
(lp769
g57
(g78
g59
NtRp770
(dp771
g62
(dp772
g82
g83
ssg71
g766
sg64
(lp773
g399
asbag57
(g78
g59
NtRp774
(dp775
g62
(dp776
g89
g90
ssg71
g766
sg64
(lp777
S':'
asbag57
(g78
g59
NtRp778
(dp779
g62
(dp780
sg71
g766
sg64
(lp781
g57
(g58
g59
NtRp782
(dp783
g62
(dp784
g70
I3
ssg71
g778
sg64
(lp785
S''
asbasbasbag57
(g73
g59
NtRp786
(dp787
g62
(dp788
sg71
g662
sg64
(lp789
g57
(g78
g59
NtRp790
(dp791
g62
(dp792
g82
g83
ssg71
g786
sg64
(lp793
g420
asbag57
(g78
g59
NtRp794
(dp795
g62
(dp796
g89
g90
ssg71
g786
sg64
(lp797
S':'
asbag57
(g78
g59
NtRp798
(dp799
g62
(dp800
sg71
g786
sg64
(lp801
g57
(g58
g59
NtRp802
(dp803
g62
(dp804
g70
I3
ssg71
g798
sg64
(lp805
S''
asbasbasbag57
(g73
g59
NtRp806
(dp807
g62
(dp808
sg71
g662
sg64
(lp809
g57
(g78
g59
NtRp810
(dp811
g62
(dp812
g82
g83
ssg71
g806
sg64
(lp813
g441
asbag57
(g78
g59
NtRp814
(dp815
g62
(dp816
g89
g90
ssg71
g806
sg64
(lp817
S':'
asbag57
(g78
g59
NtRp818
(dp819
g62
(dp820
sg71
g806
sg64
(lp821
g57
(g58
g59
NtRp822
(dp823
g62
(dp824
g70
I3
ssg71
g818
sg64
(lp825
S''
asbasbasbasbasbasbasbag57
(g73
g59
NtRp826
(dp827
g62
(dp828
sg71
g256
sg64
(lp829
g57
(g78
g59
NtRp830
(dp831
g62
(dp832
g82
g83
ssg71
g826
sg64
(lp833
S'session_id_resume3'
p834
asbag57
(g78
g59
NtRp835
(dp836
g62
(dp837
g89
g90
ssg71
g826
sg64
(lp838
S':'
asbag57
(g78
g59
NtRp839
(dp840
g62
(dp841
sg71
g826
sg64
(lp842
g57
(g58
g59
NtRp843
(dp844
g62
(dp845
g70
I4
ssg71
g839
sg64
(lp846
S'127.0.0.1-17dca7f9-d885-4883-b0a8-563fbf96ad62'
p847
ag57
(g66
g59
NtRp848
(dp849
g62
(dp850
g70
I3
ssg71
Nsg64
(lp851
g57
(g73
g59
NtRp852
(dp853
g62
(dp854
sg71
g848
sg64
(lp855
g57
(g78
g59
NtRp856
(dp857
g62
(dp858
g82
g83
ssg71
g852
sg64
(lp859
g294
asbag57
(g78
g59
NtRp860
(dp861
g62
(dp862
g89
g90
ssg71
g852
sg64
(lp863
S':'
asbag57
(g78
g59
NtRp864
(dp865
g62
(dp866
sg71
g852
sg64
(lp867
g57
(g58
g59
NtRp868
(dp869
g62
(dp870
g70
I3
ssg71
g864
sg64
(lp871
S''
asbasbasbag57
(g73
g59
NtRp872
(dp873
g62
(dp874
sg71
g848
sg64
(lp875
g57
(g78
g59
NtRp876
(dp877
g62
(dp878
g82
g83
ssg71
g872
sg64
(lp879
g315
asbag57
(g78
g59
NtRp880
(dp881
g62
(dp882
g89
g90
ssg71
g872
sg64
(lp883
S':'
asbag57
(g78
g59
NtRp884
(dp885
g62
(dp886
sg71
g872
sg64
(lp887
g57
(g58
g59
NtRp888
(dp889
g62
(dp890
g70
I3
ssg71
g884
sg64
(lp891
S''
asbasbasbag57
(g73
g59
NtRp892
(dp893
g62
(dp894
sg71
g848
sg64
(lp895
g57
(g78
g59
NtRp896
(dp897
g62
(dp898
g82
g83
ssg71
g892
sg64
(lp899
g336
asbag57
(g78
g59
NtRp900
(dp901
g62
(dp902
g89
g90
ssg71
g892
sg64
(lp903
S':'
asbag57
(g78
g59
NtRp904
(dp905
g62
(dp906
sg71
g892
sg64
(lp907
g57
(g58
g59
NtRp908
(dp909
g62
(dp910
g70
I3
ssg71
g904
sg64
(lp911
S''
asbasbasbag57
(g73
g59
NtRp912
(dp913
g62
(dp914
sg71
g848
sg64
(lp915
g57
(g78
g59
NtRp916
(dp917
g62
(dp918
g82
g83
ssg71
g912
sg64
(lp919
g357
asbag57
(g78
g59
NtRp920
(dp921
g62
(dp922
g89
g90
ssg71
g912
sg64
(lp923
S':'
asbag57
(g78
g59
NtRp924
(dp925
g62
(dp926
sg71
g912
sg64
(lp927
g57
(g58
g59
NtRp928
(dp929
g62
(dp930
g70
I3
ssg71
g924
sg64
(lp931
S''
asbasbasbag57
(g73
g59
NtRp932
(dp933
g62
(dp934
sg71
g848
sg64
(lp935
g57
(g78
g59
NtRp936
(dp937
g62
(dp938
g82
g83
ssg71
g932
sg64
(lp939
g378
asbag57
(g78
g59
NtRp940
(dp941
g62
(dp942
g89
g90
ssg71
g932
sg64
(lp943
S':'
asbag57
(g78
g59
NtRp944
(dp945
g62
(dp946
sg71
g932
sg64
(lp947
g57
(g58
g59
NtRp948
(dp949
g62
(dp950
g70
I3
ssg71
g944
sg64
(lp951
S''
asbasbasbag57
(g73
g59
NtRp952
(dp953
g62
(dp954
sg71
g848
sg64
(lp955
g57
(g78
g59
NtRp956
(dp957
g62
(dp958
g82
g83
ssg71
g952
sg64
(lp959
g399
asbag57
(g78
g59
NtRp960
(dp961
g62
(dp962
g89
g90
ssg71
g952
sg64
(lp963
S':'
asbag57
(g78
g59
NtRp964
(dp965
g62
(dp966
sg71
g952
sg64
(lp967
g57
(g58
g59
NtRp968
(dp969
g62
(dp970
g70
I3
ssg71
g964
sg64
(lp971
S''
asbasbasbag57
(g73
g59
NtRp972
(dp973
g62
(dp974
sg71
g848
sg64
(lp975
g57
(g78
g59
NtRp976
(dp977
g62
(dp978
g82
g83
ssg71
g972
sg64
(lp979
g420
asbag57
(g78
g59
NtRp980
(dp981
g62
(dp982
g89
g90
ssg71
g972
sg64
(lp983
S':'
asbag57
(g78
g59
NtRp984
(dp985
g62
(dp986
sg71
g972
sg64
(lp987
g57
(g58
g59
NtRp988
(dp989
g62
(dp990
g70
I3
ssg71
g984
sg64
(lp991
S''
asbasbasbag57
(g73
g59
NtRp992
(dp993
g62
(dp994
sg71
g848
sg64
(lp995
g57
(g78
g59
NtRp996
(dp997
g62
(dp998
g82
g83
ssg71
g992
sg64
(lp999
g441
asbag57
(g78
g59
NtRp1000
(dp1001
g62
(dp1002
g89
g90
ssg71
g992
sg64
(lp1003
S':'
asbag57
(g78
g59
NtRp1004
(dp1005
g62
(dp1006
sg71
g992
sg64
(lp1007
g57
(g58
g59
NtRp1008
(dp1009
g62
(dp1010
g70
I3
ssg71
g1004
sg64
(lp1011
S''
asbasbasbasbasbasbasbag57
(g73
g59
NtRp1012
(dp1013
g62
(dp1014
sg71
g256
sg64
(lp1015
g57
(g78
g59
NtRp1016
(dp1017
g62
(dp1018
g82
g83
ssg71
g1012
sg64
(lp1019
S'session_id_resume_builder'
p1020
asbag57
(g78
g59
NtRp1021
(dp1022
g62
(dp1023
g89
g90
ssg71
g1012
sg64
(lp1024
S':'
asbag57
(g78
g59
NtRp1025
(dp1026
g62
(dp1027
sg71
g1012
sg64
(lp1028
g57
(g58
g59
NtRp1029
(dp1030
g62
(dp1031
g70
I4
ssg71
g1025
sg64
(lp1032
S'127.0.0.1-f4ac87da-ca09-456f-9fc4-8cc4998ece7f'
p1033
ag57
(g66
g59
NtRp1034
(dp1035
g62
(dp1036
g70
I3
ssg71
Nsg64
(lp1037
g57
(g73
g59
NtRp1038
(dp1039
g62
(dp1040
sg71
g1034
sg64
(lp1041
g57
(g78
g59
NtRp1042
(dp1043
g62
(dp1044
g82
g83
ssg71
g1038
sg64
(lp1045
g294
asbag57
(g78
g59
NtRp1046
(dp1047
g62
(dp1048
g89
g90
ssg71
g1038
sg64
(lp1049
S':'
asbag57
(g78
g59
NtRp1050
(dp1051
g62
(dp1052
sg71
g1038
sg64
(lp1053
g57
(g58
g59
NtRp1054
(dp1055
g62
(dp1056
g70
I3
ssg71
g1050
sg64
(lp1057
S''
asbasbasbag57
(g73
g59
NtRp1058
(dp1059
g62
(dp1060
sg71
g1034
sg64
(lp1061
g57
(g78
g59
NtRp1062
(dp1063
g62
(dp1064
g82
g83
ssg71
g1058
sg64
(lp1065
g315
asbag57
(g78
g59
NtRp1066
(dp1067
g62
(dp1068
g89
g90
ssg71
g1058
sg64
(lp1069
S':'
asbag57
(g78
g59
NtRp1070
(dp1071
g62
(dp1072
sg71
g1058
sg64
(lp1073
g57
(g58
g59
NtRp1074
(dp1075
g62
(dp1076
g70
I3
ssg71
g1070
sg64
(lp1077
S''
asbasbasbag57
(g73
g59
NtRp1078
(dp1079
g62
(dp1080
sg71
g1034
sg64
(lp1081
g57
(g78
g59
NtRp1082
(dp1083
g62
(dp1084
g82
g83
ssg71
g1078
sg64
(lp1085
g336
asbag57
(g78
g59
NtRp1086
(dp1087
g62
(dp1088
g89
g90
ssg71
g1078
sg64
(lp1089
S':'
asbag57
(g78
g59
NtRp1090
(dp1091
g62
(dp1092
sg71
g1078
sg64
(lp1093
g57
(g58
g59
NtRp1094
(dp1095
g62
(dp1096
g70
I3
ssg71
g1090
sg64
(lp1097
S''
asbasbasbag57
(g73
g59
NtRp1098
(dp1099
g62
(dp1100
sg71
g1034
sg64
(lp1101
g57
(g78
g59
NtRp1102
(dp1103
g62
(dp1104
g82
g83
ssg71
g1098
sg64
(lp1105
g357
asbag57
(g78
g59
NtRp1106
(dp1107
g62
(dp1108
g89
g90
ssg71
g1098
sg64
(lp1109
S':'
asbag57
(g78
g59
NtRp1110
(dp1111
g62
(dp1112
sg71
g1098
sg64
(lp1113
g57
(g58
g59
NtRp1114
(dp1115
g62
(dp1116
g70
I3
ssg71
g1110
sg64
(lp1117
S''
asbasbasbag57
(g73
g59
NtRp1118
(dp1119
g62
(dp1120
sg71
g1034
sg64
(lp1121
g57
(g78
g59
NtRp1122
(dp1123
g62
(dp1124
g82
g83
ssg71
g1118
sg64
(lp1125
g378
asbag57
(g78
g59
NtRp1126
(dp1127
g62
(dp1128
g89
g90
ssg71
g1118
sg64
(lp1129
S':'
asbag57
(g78
g59
NtRp1130
(dp1131
g62
(dp1132
sg71
g1118
sg64
(lp1133
g57
(g58
g59
NtRp1134
(dp1135
g62
(dp1136
g70
I3
ssg71
g1130
sg64
(lp1137
S''
asbasbasbag57
(g73
g59
NtRp1138
(dp1139
g62
(dp1140
sg71
g1034
sg64
(lp1141
g57
(g78
g59
NtRp1142
(dp1143
g62
(dp1144
g82
g83
ssg71
g1138
sg64
(lp1145
g399
asbag57
(g78
g59
NtRp1146
(dp1147
g62
(dp1148
g89
g90
ssg71
g1138
sg64
(lp1149
S':'
asbag57
(g78
g59
NtRp1150
(dp1151
g62
(dp1152
sg71
g1138
sg64
(lp1153
g57
(g58
g59
NtRp1154
(dp1155
g62
(dp1156
g70
I3
ssg71
g1150
sg64
(lp1157
S''
asbasbasbag57
(g73
g59
NtRp1158
(dp1159
g62
(dp1160
sg71
g1034
sg64
(lp1161
g57
(g78
g59
NtRp1162
(dp1163
g62
(dp1164
g82
g83
ssg71
g1158
sg64
(lp1165
g420
asbag57
(g78
g59
NtRp1166
(dp1167
g62
(dp1168
g89
g90
ssg71
g1158
sg64
(lp1169
S':'
asbag57
(g78
g59
NtRp1170
(dp1171
g62
(dp1172
sg71
g1158
sg64
(lp1173
g57
(g58
g59
NtRp1174
(dp1175
g62
(dp1176
g70
I3
ssg71
g1170
sg64
(lp1177
S''
asbasbasbag57
(g73
g59
NtRp1178
(dp1179
g62
(dp1180
sg71
g1034
sg64
(lp1181
g57
(g78
g59
NtRp1182
(dp1183
g62
(dp1184
g82
g83
ssg71
g1178
sg64
(lp1185
g441
asbag57
(g78
g59
NtRp1186
(dp1187
g62
(dp1188
g89
g90
ssg71
g1178
sg64
(lp1189
S':'
asbag57
(g78
g59
NtRp1190
(dp1191
g62
(dp1192
sg71
g1178
sg64
(lp1193
g57
(g58
g59
NtRp1194
(dp1195
g62
(dp1196
g70
I3
ssg71
g1190
sg64
(lp1197
S''
asbasbasbasbasbasbasbag57
(g73
g59
NtRp1198
(dp1199
g62
(dp1200
sg71
g256
sg64
(lp1201
g57
(g78
g59
NtRp1202
(dp1203
g62
(dp1204
g82
g83
ssg71
g1198
sg64
(lp1205
S'session_id_resume_builder1'
p1206
asbag57
(g78
g59
NtRp1207
(dp1208
g62
(dp1209
g89
g90
ssg71
g1198
sg64
(lp1210
S':'
asbag57
(g78
g59
NtRp1211
(dp1212
g62
(dp1213
sg71
g1198
sg64
(lp1214
g57
(g58
g59
NtRp1215
(dp1216
g62
(dp1217
g70
I4
ssg71
g1211
sg64
(lp1218
S'127.0.0.1-874fcc84-4492-47e2-8b26-f280183a236c'
p1219
ag57
(g66
g59
NtRp1220
(dp1221
g62
(dp1222
g70
I3
ssg71
Nsg64
(lp1223
g57
(g73
g59
NtRp1224
(dp1225
g62
(dp1226
sg71
g1220
sg64
(lp1227
g57
(g78
g59
NtRp1228
(dp1229
g62
(dp1230
g82
g83
ssg71
g1224
sg64
(lp1231
g294
asbag57
(g78
g59
NtRp1232
(dp1233
g62
(dp1234
g89
g90
ssg71
g1224
sg64
(lp1235
S':'
asbag57
(g78
g59
NtRp1236
(dp1237
g62
(dp1238
sg71
g1224
sg64
(lp1239
g57
(g58
g59
NtRp1240
(dp1241
g62
(dp1242
g70
I3
ssg71
g1236
sg64
(lp1243
S''
asbasbasbag57
(g73
g59
NtRp1244
(dp1245
g62
(dp1246
sg71
g1220
sg64
(lp1247
g57
(g78
g59
NtRp1248
(dp1249
g62
(dp1250
g82
g83
ssg71
g1244
sg64
(lp1251
g315
asbag57
(g78
g59
NtRp1252
(dp1253
g62
(dp1254
g89
g90
ssg71
g1244
sg64
(lp1255
S':'
asbag57
(g78
g59
NtRp1256
(dp1257
g62
(dp1258
sg71
g1244
sg64
(lp1259
g57
(g58
g59
NtRp1260
(dp1261
g62
(dp1262
g70
I3
ssg71
g1256
sg64
(lp1263
S''
asbasbasbag57
(g73
g59
NtRp1264
(dp1265
g62
(dp1266
sg71
g1220
sg64
(lp1267
g57
(g78
g59
NtRp1268
(dp1269
g62
(dp1270
g82
g83
ssg71
g1264
sg64
(lp1271
g336
asbag57
(g78
g59
NtRp1272
(dp1273
g62
(dp1274
g89
g90
ssg71
g1264
sg64
(lp1275
S':'
asbag57
(g78
g59
NtRp1276
(dp1277
g62
(dp1278
sg71
g1264
sg64
(lp1279
g57
(g58
g59
NtRp1280
(dp1281
g62
(dp1282
g70
I3
ssg71
g1276
sg64
(lp1283
S''
asbasbasbag57
(g73
g59
NtRp1284
(dp1285
g62
(dp1286
sg71
g1220
sg64
(lp1287
g57
(g78
g59
NtRp1288
(dp1289
g62
(dp1290
g82
g83
ssg71
g1284
sg64
(lp1291
g357
asbag57
(g78
g59
NtRp1292
(dp1293
g62
(dp1294
g89
g90
ssg71
g1284
sg64
(lp1295
S':'
asbag57
(g78
g59
NtRp1296
(dp1297
g62
(dp1298
sg71
g1284
sg64
(lp1299
g57
(g58
g59
NtRp1300
(dp1301
g62
(dp1302
g70
I3
ssg71
g1296
sg64
(lp1303
S''
asbasbasbag57
(g73
g59
NtRp1304
(dp1305
g62
(dp1306
sg71
g1220
sg64
(lp1307
g57
(g78
g59
NtRp1308
(dp1309
g62
(dp1310
g82
g83
ssg71
g1304
sg64
(lp1311
g378
asbag57
(g78
g59
NtRp1312
(dp1313
g62
(dp1314
g89
g90
ssg71
g1304
sg64
(lp1315
S':'
asbag57
(g78
g59
NtRp1316
(dp1317
g62
(dp1318
sg71
g1304
sg64
(lp1319
g57
(g58
g59
NtRp1320
(dp1321
g62
(dp1322
g70
I3
ssg71
g1316
sg64
(lp1323
S''
asbasbasbag57
(g73
g59
NtRp1324
(dp1325
g62
(dp1326
sg71
g1220
sg64
(lp1327
g57
(g78
g59
NtRp1328
(dp1329
g62
(dp1330
g82
g83
ssg71
g1324
sg64
(lp1331
g399
asbag57
(g78
g59
NtRp1332
(dp1333
g62
(dp1334
g89
g90
ssg71
g1324
sg64
(lp1335
S':'
asbag57
(g78
g59
NtRp1336
(dp1337
g62
(dp1338
sg71
g1324
sg64
(lp1339
g57
(g58
g59
NtRp1340
(dp1341
g62
(dp1342
g70
I3
ssg71
g1336
sg64
(lp1343
S''
asbasbasbag57
(g73
g59
NtRp1344
(dp1345
g62
(dp1346
sg71
g1220
sg64
(lp1347
g57
(g78
g59
NtRp1348
(dp1349
g62
(dp1350
g82
g83
ssg71
g1344
sg64
(lp1351
g420
asbag57
(g78
g59
NtRp1352
(dp1353
g62
(dp1354
g89
g90
ssg71
g1344
sg64
(lp1355
S':'
asbag57
(g78
g59
NtRp1356
(dp1357
g62
(dp1358
sg71
g1344
sg64
(lp1359
g57
(g58
g59
NtRp1360
(dp1361
g62
(dp1362
g70
I3
ssg71
g1356
sg64
(lp1363
S''
asbasbasbag57
(g73
g59
NtRp1364
(dp1365
g62
(dp1366
sg71
g1220
sg64
(lp1367
g57
(g78
g59
NtRp1368
(dp1369
g62
(dp1370
g82
g83
ssg71
g1364
sg64
(lp1371
g441
asbag57
(g78
g59
NtRp1372
(dp1373
g62
(dp1374
g89
g90
ssg71
g1364
sg64
(lp1375
S':'
asbag57
(g78
g59
NtRp1376
(dp1377
g62
(dp1378
sg71
g1364
sg64
(lp1379
g57
(g58
g59
NtRp1380
(dp1381
g62
(dp1382
g70
I3
ssg71
g1376
sg64
(lp1383
S''
asbasbasbasbasbasbasbag57
(g73
g59
NtRp1384
(dp1385
g62
(dp1386
sg71
g256
sg64
(lp1387
g57
(g78
g59
NtRp1388
(dp1389
g62
(dp1390
g82
g83
ssg71
g1384
sg64
(lp1391
S'session_id_welcome'
p1392
asbag57
(g78
g59
NtRp1393
(dp1394
g62
(dp1395
g89
g90
ssg71
g1384
sg64
(lp1396
S':'
asbag57
(g78
g59
NtRp1397
(dp1398
g62
(dp1399
sg71
g1384
sg64
(lp1400
g57
(g58
g59
NtRp1401
(dp1402
g62
(dp1403
g70
I4
ssg71
g1397
sg64
(lp1404
S'127.0.0.1-9588ecb3-2af1-42db-96f8-c83b95fcc2b6'
p1405
ag57
(g66
g59
NtRp1406
(dp1407
g62
(dp1408
g70
I3
ssg71
Nsg64
(lp1409
g57
(g73
g59
NtRp1410
(dp1411
g62
(dp1412
sg71
g1406
sg64
(lp1413
g57
(g78
g59
NtRp1414
(dp1415
g62
(dp1416
g82
g83
ssg71
g1410
sg64
(lp1417
g294
asbag57
(g78
g59
NtRp1418
(dp1419
g62
(dp1420
g89
g90
ssg71
g1410
sg64
(lp1421
S':'
asbag57
(g78
g59
NtRp1422
(dp1423
g62
(dp1424
sg71
g1410
sg64
(lp1425
g57
(g58
g59
NtRp1426
(dp1427
g62
(dp1428
g70
I3
ssg71
g1422
sg64
(lp1429
S''
asbasbasbag57
(g73
g59
NtRp1430
(dp1431
g62
(dp1432
sg71
g1406
sg64
(lp1433
g57
(g78
g59
NtRp1434
(dp1435
g62
(dp1436
g82
g83
ssg71
g1430
sg64
(lp1437
g315
asbag57
(g78
g59
NtRp1438
(dp1439
g62
(dp1440
g89
g90
ssg71
g1430
sg64
(lp1441
S':'
asbag57
(g78
g59
NtRp1442
(dp1443
g62
(dp1444
sg71
g1430
sg64
(lp1445
g57
(g58
g59
NtRp1446
(dp1447
g62
(dp1448
g70
I3
ssg71
g1442
sg64
(lp1449
S''
asbasbasbag57
(g73
g59
NtRp1450
(dp1451
g62
(dp1452
sg71
g1406
sg64
(lp1453
g57
(g78
g59
NtRp1454
(dp1455
g62
(dp1456
g82
g83
ssg71
g1450
sg64
(lp1457
g336
asbag57
(g78
g59
NtRp1458
(dp1459
g62
(dp1460
g89
g90
ssg71
g1450
sg64
(lp1461
S':'
asbag57
(g78
g59
NtRp1462
(dp1463
g62
(dp1464
sg71
g1450
sg64
(lp1465
g57
(g58
g59
NtRp1466
(dp1467
g62
(dp1468
g70
I3
ssg71
g1462
sg64
(lp1469
S''
asbasbasbag57
(g73
g59
NtRp1470
(dp1471
g62
(dp1472
sg71
g1406
sg64
(lp1473
g57
(g78
g59
NtRp1474
(dp1475
g62
(dp1476
g82
g83
ssg71
g1470
sg64
(lp1477
g357
asbag57
(g78
g59
NtRp1478
(dp1479
g62
(dp1480
g89
g90
ssg71
g1470
sg64
(lp1481
S':'
asbag57
(g78
g59
NtRp1482
(dp1483
g62
(dp1484
sg71
g1470
sg64
(lp1485
g57
(g58
g59
NtRp1486
(dp1487
g62
(dp1488
g70
I3
ssg71
g1482
sg64
(lp1489
S''
asbasbasbag57
(g73
g59
NtRp1490
(dp1491
g62
(dp1492
sg71
g1406
sg64
(lp1493
g57
(g78
g59
NtRp1494
(dp1495
g62
(dp1496
g82
g83
ssg71
g1490
sg64
(lp1497
g378
asbag57
(g78
g59
NtRp1498
(dp1499
g62
(dp1500
g89
g90
ssg71
g1490
sg64
(lp1501
S':'
asbag57
(g78
g59
NtRp1502
(dp1503
g62
(dp1504
sg71
g1490
sg64
(lp1505
g57
(g58
g59
NtRp1506
(dp1507
g62
(dp1508
g70
I3
ssg71
g1502
sg64
(lp1509
S''
asbasbasbag57
(g73
g59
NtRp1510
(dp1511
g62
(dp1512
sg71
g1406
sg64
(lp1513
g57
(g78
g59
NtRp1514
(dp1515
g62
(dp1516
g82
g83
ssg71
g1510
sg64
(lp1517
g399
asbag57
(g78
g59
NtRp1518
(dp1519
g62
(dp1520
g89
g90
ssg71
g1510
sg64
(lp1521
S':'
asbag57
(g78
g59
NtRp1522
(dp1523
g62
(dp1524
sg71
g1510
sg64
(lp1525
g57
(g58
g59
NtRp1526
(dp1527
g62
(dp1528
g70
I3
ssg71
g1522
sg64
(lp1529
S''
asbasbasbag57
(g73
g59
NtRp1530
(dp1531
g62
(dp1532
sg71
g1406
sg64
(lp1533
g57
(g78
g59
NtRp1534
(dp1535
g62
(dp1536
g82
g83
ssg71
g1530
sg64
(lp1537
g420
asbag57
(g78
g59
NtRp1538
(dp1539
g62
(dp1540
g89
g90
ssg71
g1530
sg64
(lp1541
S':'
asbag57
(g78
g59
NtRp1542
(dp1543
g62
(dp1544
sg71
g1530
sg64
(lp1545
g57
(g58
g59
NtRp1546
(dp1547
g62
(dp1548
g70
I3
ssg71
g1542
sg64
(lp1549
S''
asbasbasbag57
(g73
g59
NtRp1550
(dp1551
g62
(dp1552
sg71
g1406
sg64
(lp1553
g57
(g78
g59
NtRp1554
(dp1555
g62
(dp1556
g82
g83
ssg71
g1550
sg64
(lp1557
g441
asbag57
(g78
g59
NtRp1558
(dp1559
g62
(dp1560
g89
g90
ssg71
g1550
sg64
(lp1561
S':'
asbag57
(g78
g59
NtRp1562
(dp1563
g62
(dp1564
sg71
g1550
sg64
(lp1565
g57
(g58
g59
NtRp1566
(dp1567
g62
(dp1568
g70
I3
ssg71
g1562
sg64
(lp1569
S''
asbasbasbasbasbasbasbasbasbasbasbag57
(g73
g59
NtRp1570
(dp1571
g62
(dp1572
sg71
g67
sg64
(lp1573
g57
(g78
g59
NtRp1574
(dp1575
g62
(dp1576
g82
g83
ssg71
g1570
sg64
(lp1577
S'env'
p1578
asbag57
(g78
g59
NtRp1579
(dp1580
g62
(dp1581
g89
g90
ssg71
g1570
sg64
(lp1582
S':'
asbag57
(g78
g59
NtRp1583
(dp1584
g62
(dp1585
sg71
g1570
sg64
(lp1586
g57
(g58
g59
NtRp1587
(dp1588
g62
(dp1589
g70
I5
ssg71
g1583
sg64
(lp1590
g57
(g66
g59
NtRp1591
(dp1592
g62
(dp1593
g70
I4
ssg71
Nsg64
(lp1594
g57
(g73
g59
NtRp1595
(dp1596
g62
(dp1597
sg71
g1591
sg64
(lp1598
g57
(g78
g59
NtRp1599
(dp1600
g62
(dp1601
g82
g83
ssg71
g1595
sg64
(lp1602
S'app_folders'
p1603
asbag57
(g78
g59
NtRp1604
(dp1605
g62
(dp1606
g89
g90
ssg71
g1595
sg64
(lp1607
S':'
asbag57
(g78
g59
NtRp1608
(dp1609
g62
(dp1610
sg71
g1595
sg64
(lp1611
g57
(g58
g59
NtRp1612
(dp1613
g62
(dp1614
g70
I4
ssg71
g1608
sg64
(lp1615
S"set(['/home/nishant/Acaedmics/Sem-2/ITWS-2/web2py/applications/Resume_Builder/', '/home/nishant/Acaedmics/Sem-2/ITWS-2/web2py/applications/backimg/', '/home/nishant/Acaedmics/Sem-2/ITWS-2/web2py/applications/welcome/', '/home/nishant/Acaedmics/Sem-2/ITWS-2/web2py/applications/admin/', '/home/nishant/Acaedmics/Sem-2/ITWS-2/web2py/applications/Resume3/', '/home/nishant/Acaedmics/Sem-2/ITWS-2/web2py/applications/Resume_Builder1/'])"
p1616
asbasbasbag57
(g73
g59
NtRp1617
(dp1618
g62
(dp1619
sg71
g1591
sg64
(lp1620
g57
(g78
g59
NtRp1621
(dp1622
g62
(dp1623
g82
g83
ssg71
g1617
sg64
(lp1624
S'applications_parent'
p1625
asbag57
(g78
g59
NtRp1626
(dp1627
g62
(dp1628
g89
g90
ssg71
g1617
sg64
(lp1629
S':'
asbag57
(g78
g59
NtRp1630
(dp1631
g62
(dp1632
sg71
g1617
sg64
(lp1633
g57
(g58
g59
NtRp1634
(dp1635
g62
(dp1636
g70
I4
ssg71
g1630
sg64
(lp1637
S'/home/nishant/Acaedmics/Sem-2/ITWS-2/web2py'
p1638
asbasbasbag57
(g73
g59
NtRp1639
(dp1640
g62
(dp1641
sg71
g1591
sg64
(lp1642
g57
(g78
g59
NtRp1643
(dp1644
g62
(dp1645
g82
g83
ssg71
g1639
sg64
(lp1646
S'cmd_args'
p1647
asbag57
(g78
g59
NtRp1648
(dp1649
g62
(dp1650
g89
g90
ssg71
g1639
sg64
(lp1651
S':'
asbag57
(g78
g59
NtRp1652
(dp1653
g62
(dp1654
sg71
g1639
sg64
(lp1655
g57
(g58
g59
NtRp1656
(dp1657
g62
(dp1658
g70
I4
ssg71
g1652
sg64
(lp1659
g57
(g66
g59
NtRp1660
(dp1661
g62
(dp1662
g70
I3
ssg71
Nsg64
(lp1663
sbasbasbasbag57
(g73
g59
NtRp1664
(dp1665
g62
(dp1666
sg71
g1591
sg64
(lp1667
g57
(g78
g59
NtRp1668
(dp1669
g62
(dp1670
g82
g83
ssg71
g1664
sg64
(lp1671
S'cmd_options'
p1672
asbag57
(g78
g59
NtRp1673
(dp1674
g62
(dp1675
g89
g90
ssg71
g1664
sg64
(lp1676
S':'
asbag57
(g78
g59
NtRp1677
(dp1678
g62
(dp1679
sg71
g1664
sg64
(lp1680
g57
(g58
g59
NtRp1681
(dp1682
g62
(dp1683
g70
I4
ssg71
g1677
sg64
(lp1684
S"<Values at 0x929e50c: {'verbose': False, 'ip': '127.0.0.1', 'with_scheduler': False, 'ips': [], 'shutdown_timeout': 5, 'taskbar': False, 'port': 8000, 'maxthreads': None, 'softcron': False, 'server_name': 'Nishant', 'bpython': False, 'nogui': False, 'pid_filename': 'httpserver.pid', 'extcron': False, 'runcron': False, 'run_system_tests': False, 'test': None, 'folder': '/home/nishant/Acaedmics/Sem-2/ITWS-2/web2py', 'config': '', 'import_models': False, 'winservice': '', 'shell': None, 'run': '', 'log_filename': 'httpserver.log', 'debuglevel': 30, 'args': [''], 'socket_timeout': 5, 'ssl_ca_certificate': None, 'scheduler': None, 'profiler_filename': None, 'ssl_private_key': '', 'scheduler_groups': None, 'password': '12345', 'request_queue_size': 5, 'ssl_certificate': '', 'cronjob': False, 'numthreads': None, 'quiet': False, 'interfaces': None, 'minthreads': None, 'timeout': 10, 'plain': False, 'nobanner': False}>"
p1685
asbasbasbag57
(g73
g59
NtRp1686
(dp1687
g62
(dp1688
sg71
g1591
sg64
(lp1689
g57
(g78
g59
NtRp1690
(dp1691
g62
(dp1692
g82
g83
ssg71
g1686
sg64
(lp1693
S'db_sessions'
p1694
asbag57
(g78
g59
NtRp1695
(dp1696
g62
(dp1697
g89
g90
ssg71
g1686
sg64
(lp1698
S':'
asbag57
(g78
g59
NtRp1699
(dp1700
g62
(dp1701
sg71
g1686
sg64
(lp1702
g57
(g58
g59
NtRp1703
(dp1704
g62
(dp1705
g70
I4
ssg71
g1699
sg64
(lp1706
S'set([])'
p1707
asbasbasbag57
(g73
g59
NtRp1708
(dp1709
g62
(dp1710
sg71
g1591
sg64
(lp1711
g57
(g78
g59
NtRp1712
(dp1713
g62
(dp1714
g82
g83
ssg71
g1708
sg64
(lp1715
S'debugging'
p1716
asbag57
(g78
g59
NtRp1717
(dp1718
g62
(dp1719
g89
g90
ssg71
g1708
sg64
(lp1720
S':'
asbag57
(g78
g59
NtRp1721
(dp1722
g62
(dp1723
sg71
g1708
sg64
(lp1724
g57
(g58
g59
NtRp1725
(dp1726
g62
(dp1727
g70
I4
ssg71
g1721
sg64
(lp1728
S'True'
p1729
asbasbasbag57
(g73
g59
NtRp1730
(dp1731
g62
(dp1732
sg71
g1591
sg64
(lp1733
g57
(g78
g59
NtRp1734
(dp1735
g62
(dp1736
g82
g83
ssg71
g1730
sg64
(lp1737
S'gluon_parent'
p1738
asbag57
(g78
g59
NtRp1739
(dp1740
g62
(dp1741
g89
g90
ssg71
g1730
sg64
(lp1742
S':'
asbag57
(g78
g59
NtRp1743
(dp1744
g62
(dp1745
sg71
g1730
sg64
(lp1746
g57
(g58
g59
NtRp1747
(dp1748
g62
(dp1749
g70
I4
ssg71
g1743
sg64
(lp1750
S'/home/nishant/Acaedmics/Sem-2/ITWS-2/web2py'
p1751
asbasbasbag57
(g73
g59
NtRp1752
(dp1753
g62
(dp1754
sg71
g1591
sg64
(lp1755
g57
(g78
g59
NtRp1756
(dp1757
g62
(dp1758
g82
g83
ssg71
g1752
sg64
(lp1759
S'http_accept'
p1760
asbag57
(g78
g59
NtRp1761
(dp1762
g62
(dp1763
g89
g90
ssg71
g1752
sg64
(lp1764
S':'
asbag57
(g78
g59
NtRp1765
(dp1766
g62
(dp1767
sg71
g1752
sg64
(lp1768
g57
(g58
g59
NtRp1769
(dp1770
g62
(dp1771
g70
I4
ssg71
g1765
sg64
(lp1772
S'text/html,application/xhtml+xml,application/xml;q=0.9,*/*;q=0.8'
p1773
asbasbasbag57
(g73
g59
NtRp1774
(dp1775
g62
(dp1776
sg71
g1591
sg64
(lp1777
g57
(g78
g59
NtRp1778
(dp1779
g62
(dp1780
g82
g83
ssg71
g1774
sg64
(lp1781
S'http_accept_encoding'
p1782
asbag57
(g78
g59
NtRp1783
(dp1784
g62
(dp1785
g89
g90
ssg71
g1774
sg64
(lp1786
S':'
asbag57
(g78
g59
NtRp1787
(dp1788
g62
(dp1789
sg71
g1774
sg64
(lp1790
g57
(g58
g59
NtRp1791
(dp1792
g62
(dp1793
g70
I4
ssg71
g1787
sg64
(lp1794
S'gzip, deflate'
p1795
asbasbasbag57
(g73
g59
NtRp1796
(dp1797
g62
(dp1798
sg71
g1591
sg64
(lp1799
g57
(g78
g59
NtRp1800
(dp1801
g62
(dp1802
g82
g83
ssg71
g1796
sg64
(lp1803
S'http_accept_language'
p1804
asbag57
(g78
g59
NtRp1805
(dp1806
g62
(dp1807
g89
g90
ssg71
g1796
sg64
(lp1808
S':'
asbag57
(g78
g59
NtRp1809
(dp1810
g62
(dp1811
sg71
g1796
sg64
(lp1812
g57
(g58
g59
NtRp1813
(dp1814
g62
(dp1815
g70
I4
ssg71
g1809
sg64
(lp1816
S'en-US,en;q=0.5'
p1817
asbasbasbag57
(g73
g59
NtRp1818
(dp1819
g62
(dp1820
sg71
g1591
sg64
(lp1821
g57
(g78
g59
NtRp1822
(dp1823
g62
(dp1824
g82
g83
ssg71
g1818
sg64
(lp1825
S'http_connection'
p1826
asbag57
(g78
g59
NtRp1827
(dp1828
g62
(dp1829
g89
g90
ssg71
g1818
sg64
(lp1830
S':'
asbag57
(g78
g59
NtRp1831
(dp1832
g62
(dp1833
sg71
g1818
sg64
(lp1834
g57
(g58
g59
NtRp1835
(dp1836
g62
(dp1837
g70
I4
ssg71
g1831
sg64
(lp1838
S'keep-alive'
p1839
asbasbasbag57
(g73
g59
NtRp1840
(dp1841
g62
(dp1842
sg71
g1591
sg64
(lp1843
g57
(g78
g59
NtRp1844
(dp1845
g62
(dp1846
g82
g83
ssg71
g1840
sg64
(lp1847
S'http_cookie'
p1848
asbag57
(g78
g59
NtRp1849
(dp1850
g62
(dp1851
g89
g90
ssg71
g1840
sg64
(lp1852
S':'
asbag57
(g78
g59
NtRp1853
(dp1854
g62
(dp1855
sg71
g1840
sg64
(lp1856
g57
(g58
g59
NtRp1857
(dp1858
g62
(dp1859
g70
I4
ssg71
g1853
sg64
(lp1860
S'session_id_resume1=127.0.0.1-5cabbee1-4f7f-4691-8820-683475549a85; session_id_resume_builder=127.0.0.1-f4ac87da-ca09-456f-9fc4-8cc4998ece7f; session_id_welcome=127.0.0.1-9588ecb3-2af1-42db-96f8-c83b95fcc2b6; session_id_admin=127.0.0.1-d8499d8b-4f3a-4ee5-a081-5f93717a670d; session_id_resume_builder1=127.0.0.1-874fcc84-4492-47e2-8b26-f280183a236c; session_id_resume3=127.0.0.1-17dca7f9-d885-4883-b0a8-563fbf96ad62; session_id_backimg=127.0.0.1-510de37e-632d-4f80-b1c3-d8a3bf298387'
p1861
asbasbasbag57
(g73
g59
NtRp1862
(dp1863
g62
(dp1864
sg71
g1591
sg64
(lp1865
g57
(g78
g59
NtRp1866
(dp1867
g62
(dp1868
g82
g83
ssg71
g1862
sg64
(lp1869
S'http_host'
p1870
asbag57
(g78
g59
NtRp1871
(dp1872
g62
(dp1873
g89
g90
ssg71
g1862
sg64
(lp1874
S':'
asbag57
(g78
g59
NtRp1875
(dp1876
g62
(dp1877
sg71
g1862
sg64
(lp1878
g57
(g58
g59
NtRp1879
(dp1880
g62
(dp1881
g70
I4
ssg71
g1875
sg64
(lp1882
S'127.0.0.1:8000'
p1883
asbasbasbag57
(g73
g59
NtRp1884
(dp1885
g62
(dp1886
sg71
g1591
sg64
(lp1887
g57
(g78
g59
NtRp1888
(dp1889
g62
(dp1890
g82
g83
ssg71
g1884
sg64
(lp1891
S'http_referer'
p1892
asbag57
(g78
g59
NtRp1893
(dp1894
g62
(dp1895
g89
g90
ssg71
g1884
sg64
(lp1896
S':'
asbag57
(g78
g59
NtRp1897
(dp1898
g62
(dp1899
sg71
g1884
sg64
(lp1900
g57
(g58
g59
NtRp1901
(dp1902
g62
(dp1903
g70
I4
ssg71
g1897
sg64
(lp1904
S'http://127.0.0.1:8000/backimg/default/index'
p1905
asbasbasbag57
(g73
g59
NtRp1906
(dp1907
g62
(dp1908
sg71
g1591
sg64
(lp1909
g57
(g78
g59
NtRp1910
(dp1911
g62
(dp1912
g82
g83
ssg71
g1906
sg64
(lp1913
S'http_user_agent'
p1914
asbag57
(g78
g59
NtRp1915
(dp1916
g62
(dp1917
g89
g90
ssg71
g1906
sg64
(lp1918
S':'
asbag57
(g78
g59
NtRp1919
(dp1920
g62
(dp1921
sg71
g1906
sg64
(lp1922
g57
(g58
g59
NtRp1923
(dp1924
g62
(dp1925
g70
I4
ssg71
g1919
sg64
(lp1926
S'Mozilla/5.0 (X11; Ubuntu; Linux i686; rv:20.0) Gecko/20100101 Firefox/20.0'
p1927
asbasbasbag57
(g73
g59
NtRp1928
(dp1929
g62
(dp1930
sg71
g1591
sg64
(lp1931
g57
(g78
g59
NtRp1932
(dp1933
g62
(dp1934
g82
g83
ssg71
g1928
sg64
(lp1935
S'is_jython'
p1936
asbag57
(g78
g59
NtRp1937
(dp1938
g62
(dp1939
g89
g90
ssg71
g1928
sg64
(lp1940
S':'
asbag57
(g78
g59
NtRp1941
(dp1942
g62
(dp1943
sg71
g1928
sg64
(lp1944
g57
(g58
g59
NtRp1945
(dp1946
g62
(dp1947
g70
I4
ssg71
g1941
sg64
(lp1948
g100
asbasbasbag57
(g73
g59
NtRp1949
(dp1950
g62
(dp1951
sg71
g1591
sg64
(lp1952
g57
(g78
g59
NtRp1953
(dp1954
g62
(dp1955
g82
g83
ssg71
g1949
sg64
(lp1956
S'is_pypy'
p1957
asbag57
(g78
g59
NtRp1958
(dp1959
g62
(dp1960
g89
g90
ssg71
g1949
sg64
(lp1961
S':'
asbag57
(g78
g59
NtRp1962
(dp1963
g62
(dp1964
sg71
g1949
sg64
(lp1965
g57
(g58
g59
NtRp1966
(dp1967
g62
(dp1968
g70
I4
ssg71
g1962
sg64
(lp1969
g100
asbasbasbag57
(g73
g59
NtRp1970
(dp1971
g62
(dp1972
sg71
g1591
sg64
(lp1973
g57
(g78
g59
NtRp1974
(dp1975
g62
(dp1976
g82
g83
ssg71
g1970
sg64
(lp1977
S'local_hosts'
p1978
asbag57
(g78
g59
NtRp1979
(dp1980
g62
(dp1981
g89
g90
ssg71
g1970
sg64
(lp1982
S':'
asbag57
(g78
g59
NtRp1983
(dp1984
g62
(dp1985
sg71
g1970
sg64
(lp1986
g57
(g58
g59
NtRp1987
(dp1988
g62
(dp1989
g70
I4
ssg71
g1983
sg64
(lp1990
g57
(g66
g59
NtRp1991
(dp1992
g62
(dp1993
g70
I3
ssg71
Nsg64
(lp1994
g57
(g73
g59
NtRp1995
(dp1996
g62
(dp1997
sg71
g1991
sg64
(lp1998
g57
(g78
g59
NtRp1999
(dp2000
g62
(dp2001
sg71
g1995
sg64
(lp2002
g57
(g58
g59
NtRp2003
(dp2004
g62
(dp2005
g70
I3
ssg71
g1999
sg64
(lp2006
S'::1'
p2007
asbasbasbag57
(g73
g59
NtRp2008
(dp2009
g62
(dp2010
sg71
g1991
sg64
(lp2011
g57
(g78
g59
NtRp2012
(dp2013
g62
(dp2014
sg71
g2008
sg64
(lp2015
g57
(g58
g59
NtRp2016
(dp2017
g62
(dp2018
g70
I3
ssg71
g2012
sg64
(lp2019
S'127.0.1.1'
p2020
asbasbasbag57
(g73
g59
NtRp2021
(dp2022
g62
(dp2023
sg71
g1991
sg64
(lp2024
g57
(g78
g59
NtRp2025
(dp2026
g62
(dp2027
sg71
g2021
sg64
(lp2028
g57
(g58
g59
NtRp2029
(dp2030
g62
(dp2031
g70
I3
ssg71
g2025
sg64
(lp2032
S'::ffff:127.0.0.1'
p2033
asbasbasbag57
(g73
g59
NtRp2034
(dp2035
g62
(dp2036
sg71
g1991
sg64
(lp2037
g57
(g78
g59
NtRp2038
(dp2039
g62
(dp2040
sg71
g2034
sg64
(lp2041
g57
(g58
g59
NtRp2042
(dp2043
g62
(dp2044
g70
I3
ssg71
g2038
sg64
(lp2045
S'127.0.0.1'
p2046
asbasbasbag57
(g73
g59
NtRp2047
(dp2048
g62
(dp2049
sg71
g1991
sg64
(lp2050
g57
(g78
g59
NtRp2051
(dp2052
g62
(dp2053
sg71
g2047
sg64
(lp2054
g57
(g58
g59
NtRp2055
(dp2056
g62
(dp2057
g70
I3
ssg71
g2051
sg64
(lp2058
S'Nishant'
p2059
asbasbasbasbasbasbasbag57
(g73
g59
NtRp2060
(dp2061
g62
(dp2062
sg71
g1591
sg64
(lp2063
g57
(g78
g59
NtRp2064
(dp2065
g62
(dp2066
g82
g83
ssg71
g2060
sg64
(lp2067
S'path_info'
p2068
asbag57
(g78
g59
NtRp2069
(dp2070
g62
(dp2071
g89
g90
ssg71
g2060
sg64
(lp2072
S':'
asbag57
(g78
g59
NtRp2073
(dp2074
g62
(dp2075
sg71
g2060
sg64
(lp2076
g57
(g58
g59
NtRp2077
(dp2078
g62
(dp2079
g70
I4
ssg71
g2073
sg64
(lp2080
S'/backimg/default/view_msg'
p2081
asbasbasbag57
(g73
g59
NtRp2082
(dp2083
g62
(dp2084
sg71
g1591
sg64
(lp2085
g57
(g78
g59
NtRp2086
(dp2087
g62
(dp2088
g82
g83
ssg71
g2082
sg64
(lp2089
S'query_string'
p2090
asbag57
(g78
g59
NtRp2091
(dp2092
g62
(dp2093
g89
g90
ssg71
g2082
sg64
(lp2094
S':'
asbag57
(g78
g59
NtRp2095
(dp2096
g62
(dp2097
sg71
g2082
sg64
(lp2098
g57
(g58
g59
NtRp2099
(dp2100
g62
(dp2101
g70
I4
ssg71
g2095
sg64
(lp2102
S''
asbasbasbag57
(g73
g59
NtRp2103
(dp2104
g62
(dp2105
sg71
g1591
sg64
(lp2106
g57
(g78
g59
NtRp2107
(dp2108
g62
(dp2109
g82
g83
ssg71
g2103
sg64
(lp2110
S'remote_addr'
p2111
asbag57
(g78
g59
NtRp2112
(dp2113
g62
(dp2114
g89
g90
ssg71
g2103
sg64
(lp2115
S':'
asbag57
(g78
g59
NtRp2116
(dp2117
g62
(dp2118
sg71
g2103
sg64
(lp2119
g57
(g58
g59
NtRp2120
(dp2121
g62
(dp2122
g70
I4
ssg71
g2116
sg64
(lp2123
g212
asbasbasbag57
(g73
g59
NtRp2124
(dp2125
g62
(dp2126
sg71
g1591
sg64
(lp2127
g57
(g78
g59
NtRp2128
(dp2129
g62
(dp2130
g82
g83
ssg71
g2124
sg64
(lp2131
S'remote_port'
p2132
asbag57
(g78
g59
NtRp2133
(dp2134
g62
(dp2135
g89
g90
ssg71
g2124
sg64
(lp2136
S':'
asbag57
(g78
g59
NtRp2137
(dp2138
g62
(dp2139
sg71
g2124
sg64
(lp2140
g57
(g58
g59
NtRp2141
(dp2142
g62
(dp2143
g70
I4
ssg71
g2137
sg64
(lp2144
S'50402'
p2145
asbasbasbag57
(g73
g59
NtRp2146
(dp2147
g62
(dp2148
sg71
g1591
sg64
(lp2149
g57
(g78
g59
NtRp2150
(dp2151
g62
(dp2152
g82
g83
ssg71
g2146
sg64
(lp2153
S'request_method'
p2154
asbag57
(g78
g59
NtRp2155
(dp2156
g62
(dp2157
g89
g90
ssg71
g2146
sg64
(lp2158
S':'
asbag57
(g78
g59
NtRp2159
(dp2160
g62
(dp2161
sg71
g2146
sg64
(lp2162
g57
(g58
g59
NtRp2163
(dp2164
g62
(dp2165
g70
I4
ssg71
g2159
sg64
(lp2166
S'GET'
p2167
asbasbasbag57
(g73
g59
NtRp2168
(dp2169
g62
(dp2170
sg71
g1591
sg64
(lp2171
g57
(g78
g59
NtRp2172
(dp2173
g62
(dp2174
g82
g83
ssg71
g2168
sg64
(lp2175
S'request_uri'
p2176
asbag57
(g78
g59
NtRp2177
(dp2178
g62
(dp2179
g89
g90
ssg71
g2168
sg64
(lp2180
S':'
asbag57
(g78
g59
NtRp2181
(dp2182
g62
(dp2183
sg71
g2168
sg64
(lp2184
g57
(g58
g59
NtRp2185
(dp2186
g62
(dp2187
g70
I4
ssg71
g2181
sg64
(lp2188
g2081
asbasbasbag57
(g73
g59
NtRp2189
(dp2190
g62
(dp2191
sg71
g1591
sg64
(lp2192
g57
(g78
g59
NtRp2193
(dp2194
g62
(dp2195
g82
g83
ssg71
g2189
sg64
(lp2196
S'script_name'
p2197
asbag57
(g78
g59
NtRp2198
(dp2199
g62
(dp2200
g89
g90
ssg71
g2189
sg64
(lp2201
S':'
asbag57
(g78
g59
NtRp2202
(dp2203
g62
(dp2204
sg71
g2189
sg64
(lp2205
g57
(g58
g59
NtRp2206
(dp2207
g62
(dp2208
g70
I4
ssg71
g2202
sg64
(lp2209
S''
asbasbasbag57
(g73
g59
NtRp2210
(dp2211
g62
(dp2212
sg71
g1591
sg64
(lp2213
g57
(g78
g59
NtRp2214
(dp2215
g62
(dp2216
g82
g83
ssg71
g2210
sg64
(lp2217
S'server_name'
p2218
asbag57
(g78
g59
NtRp2219
(dp2220
g62
(dp2221
g89
g90
ssg71
g2210
sg64
(lp2222
S':'
asbag57
(g78
g59
NtRp2223
(dp2224
g62
(dp2225
sg71
g2210
sg64
(lp2226
g57
(g58
g59
NtRp2227
(dp2228
g62
(dp2229
g70
I4
ssg71
g2223
sg64
(lp2230
S'Nishant'
p2231
asbasbasbag57
(g73
g59
NtRp2232
(dp2233
g62
(dp2234
sg71
g1591
sg64
(lp2235
g57
(g78
g59
NtRp2236
(dp2237
g62
(dp2238
g82
g83
ssg71
g2232
sg64
(lp2239
S'server_port'
p2240
asbag57
(g78
g59
NtRp2241
(dp2242
g62
(dp2243
g89
g90
ssg71
g2232
sg64
(lp2244
S':'
asbag57
(g78
g59
NtRp2245
(dp2246
g62
(dp2247
sg71
g2232
sg64
(lp2248
g57
(g58
g59
NtRp2249
(dp2250
g62
(dp2251
g70
I4
ssg71
g2245
sg64
(lp2252
S'8000'
p2253
asbasbasbag57
(g73
g59
NtRp2254
(dp2255
g62
(dp2256
sg71
g1591
sg64
(lp2257
g57
(g78
g59
NtRp2258
(dp2259
g62
(dp2260
g82
g83
ssg71
g2254
sg64
(lp2261
S'server_protocol'
p2262
asbag57
(g78
g59
NtRp2263
(dp2264
g62
(dp2265
g89
g90
ssg71
g2254
sg64
(lp2266
S':'
asbag57
(g78
g59
NtRp2267
(dp2268
g62
(dp2269
sg71
g2254
sg64
(lp2270
g57
(g58
g59
NtRp2271
(dp2272
g62
(dp2273
g70
I4
ssg71
g2267
sg64
(lp2274
S'HTTP/1.1'
p2275
asbasbasbag57
(g73
g59
NtRp2276
(dp2277
g62
(dp2278
sg71
g1591
sg64
(lp2279
g57
(g78
g59
NtRp2280
(dp2281
g62
(dp2282
g82
g83
ssg71
g2276
sg64
(lp2283
S'server_software'
p2284
asbag57
(g78
g59
NtRp2285
(dp2286
g62
(dp2287
g89
g90
ssg71
g2276
sg64
(lp2288
S':'
asbag57
(g78
g59
NtRp2289
(dp2290
g62
(dp2291
sg71
g2276
sg64
(lp2292
g57
(g58
g59
NtRp2293
(dp2294
g62
(dp2295
g70
I4
ssg71
g2289
sg64
(lp2296
S'Rocket 1.2.6'
p2297
asbasbasbag57
(g73
g59
NtRp2298
(dp2299
g62
(dp2300
sg71
g1591
sg64
(lp2301
g57
(g78
g59
NtRp2302
(dp2303
g62
(dp2304
g82
g83
ssg71
g2298
sg64
(lp2305
S'web2py_path'
p2306
asbag57
(g78
g59
NtRp2307
(dp2308
g62
(dp2309
g89
g90
ssg71
g2298
sg64
(lp2310
S':'
asbag57
(g78
g59
NtRp2311
(dp2312
g62
(dp2313
sg71
g2298
sg64
(lp2314
g57
(g58
g59
NtRp2315
(dp2316
g62
(dp2317
g70
I4
ssg71
g2311
sg64
(lp2318
g1638
asbasbasbag57
(g73
g59
NtRp2319
(dp2320
g62
(dp2321
sg71
g1591
sg64
(lp2322
g57
(g78
g59
NtRp2323
(dp2324
g62
(dp2325
g82
g83
ssg71
g2319
sg64
(lp2326
S'web2py_version'
p2327
asbag57
(g78
g59
NtRp2328
(dp2329
g62
(dp2330
g89
g90
ssg71
g2319
sg64
(lp2331
S':'
asbag57
(g78
g59
NtRp2332
(dp2333
g62
(dp2334
sg71
g2319
sg64
(lp2335
g57
(g58
g59
NtRp2336
(dp2337
g62
(dp2338
g70
I4
ssg71
g2332
sg64
(lp2339
g57
(g66
g59
NtRp2340
(dp2341
g62
(dp2342
g70
I3
ssg71
Nsg64
(lp2343
g57
(g73
g59
NtRp2344
(dp2345
g62
(dp2346
sg71
g2340
sg64
(lp2347
g57
(g78
g59
NtRp2348
(dp2349
g62
(dp2350
sg71
g2344
sg64
(lp2351
g57
(g58
g59
NtRp2352
(dp2353
g62
(dp2354
g70
I3
ssg71
g2348
sg64
(lp2355
S'2'
asbasbasbag57
(g73
g59
NtRp2356
(dp2357
g62
(dp2358
sg71
g2340
sg64
(lp2359
g57
(g78
g59
NtRp2360
(dp2361
g62
(dp2362
sg71
g2356
sg64
(lp2363
g57
(g58
g59
NtRp2364
(dp2365
g62
(dp2366
g70
I3
ssg71
g2360
sg64
(lp2367
S'4'
asbasbasbag57
(g73
g59
NtRp2368
(dp2369
g62
(dp2370
sg71
g2340
sg64
(lp2371
g57
(g78
g59
NtRp2372
(dp2373
g62
(dp2374
sg71
g2368
sg64
(lp2375
g57
(g58
g59
NtRp2376
(dp2377
g62
(dp2378
g70
I3
ssg71
g2372
sg64
(lp2379
S'1'
asbasbasbag57
(g73
g59
NtRp2380
(dp2381
g62
(dp2382
sg71
g2340
sg64
(lp2383
g57
(g78
g59
NtRp2384
(dp2385
g62
(dp2386
sg71
g2380
sg64
(lp2387
g57
(g58
g59
NtRp2388
(dp2389
g62
(dp2390
g70
I3
ssg71
g2384
sg64
(lp2391
S'alpha.2'
p2392
asbasbasbag57
(g73
g59
NtRp2393
(dp2394
g62
(dp2395
sg71
g2340
sg64
(lp2396
g57
(g78
g59
NtRp2397
(dp2398
g62
(dp2399
sg71
g2393
sg64
(lp2400
g57
(g58
g59
NtRp2401
(dp2402
g62
(dp2403
g70
I3
ssg71
g2397
sg64
(lp2404
S'datetime.datetime(2013, 1, 10, 21, 26, 18)'
p2405
asbasbasbasbasbasbasbag57
(g73
g59
NtRp2406
(dp2407
g62
(dp2408
sg71
g1591
sg64
(lp2409
g57
(g78
g59
NtRp2410
(dp2411
g62
(dp2412
g82
g83
ssg71
g2406
sg64
(lp2413
S'wsgi_errors'
p2414
asbag57
(g78
g59
NtRp2415
(dp2416
g62
(dp2417
g89
g90
ssg71
g2406
sg64
(lp2418
S':'
asbag57
(g78
g59
NtRp2419
(dp2420
g62
(dp2421
sg71
g2406
sg64
(lp2422
g57
(g58
g59
NtRp2423
(dp2424
g62
(dp2425
g70
I4
ssg71
g2419
sg64
(lp2426
S"<open file '<stderr>', mode 'w' at 0xb75210d0>"
p2427
asbasbasbag57
(g73
g59
NtRp2428
(dp2429
g62
(dp2430
sg71
g1591
sg64
(lp2431
g57
(g78
g59
NtRp2432
(dp2433
g62
(dp2434
g82
g83
ssg71
g2428
sg64
(lp2435
S'wsgi_file_wrapper'
p2436
asbag57
(g78
g59
NtRp2437
(dp2438
g62
(dp2439
g89
g90
ssg71
g2428
sg64
(lp2440
S':'
asbag57
(g78
g59
NtRp2441
(dp2442
g62
(dp2443
sg71
g2428
sg64
(lp2444
g57
(g58
g59
NtRp2445
(dp2446
g62
(dp2447
g70
I4
ssg71
g2441
sg64
(lp2448
S'<class wsgiref.util.FileWrapper at 0x9220ddc>'
p2449
asbasbasbag57
(g73
g59
NtRp2450
(dp2451
g62
(dp2452
sg71
g1591
sg64
(lp2453
g57
(g78
g59
NtRp2454
(dp2455
g62
(dp2456
g82
g83
ssg71
g2450
sg64
(lp2457
S'wsgi_input'
p2458
asbag57
(g78
g59
NtRp2459
(dp2460
g62
(dp2461
g89
g90
ssg71
g2450
sg64
(lp2462
S':'
asbag57
(g78
g59
NtRp2463
(dp2464
g62
(dp2465
sg71
g2450
sg64
(lp2466
g57
(g58
g59
NtRp2467
(dp2468
g62
(dp2469
g70
I4
ssg71
g2463
sg64
(lp2470
S'<socket._fileobject object at 0xaf748cec>'
p2471
asbasbasbag57
(g73
g59
NtRp2472
(dp2473
g62
(dp2474
sg71
g1591
sg64
(lp2475
g57
(g78
g59
NtRp2476
(dp2477
g62
(dp2478
g82
g83
ssg71
g2472
sg64
(lp2479
S'wsgi_multiprocess'
p2480
asbag57
(g78
g59
NtRp2481
(dp2482
g62
(dp2483
g89
g90
ssg71
g2472
sg64
(lp2484
S':'
asbag57
(g78
g59
NtRp2485
(dp2486
g62
(dp2487
sg71
g2472
sg64
(lp2488
g57
(g58
g59
NtRp2489
(dp2490
g62
(dp2491
g70
I4
ssg71
g2485
sg64
(lp2492
g100
asbasbasbag57
(g73
g59
NtRp2493
(dp2494
g62
(dp2495
sg71
g1591
sg64
(lp2496
g57
(g78
g59
NtRp2497
(dp2498
g62
(dp2499
g82
g83
ssg71
g2493
sg64
(lp2500
S'wsgi_multithread'
p2501
asbag57
(g78
g59
NtRp2502
(dp2503
g62
(dp2504
g89
g90
ssg71
g2493
sg64
(lp2505
S':'
asbag57
(g78
g59
NtRp2506
(dp2507
g62
(dp2508
sg71
g2493
sg64
(lp2509
g57
(g58
g59
NtRp2510
(dp2511
g62
(dp2512
g70
I4
ssg71
g2506
sg64
(lp2513
g1729
asbasbasbag57
(g73
g59
NtRp2514
(dp2515
g62
(dp2516
sg71
g1591
sg64
(lp2517
g57
(g78
g59
NtRp2518
(dp2519
g62
(dp2520
g82
g83
ssg71
g2514
sg64
(lp2521
S'wsgi_run_once'
p2522
asbag57
(g78
g59
NtRp2523
(dp2524
g62
(dp2525
g89
g90
ssg71
g2514
sg64
(lp2526
S':'
asbag57
(g78
g59
NtRp2527
(dp2528
g62
(dp2529
sg71
g2514
sg64
(lp2530
g57
(g58
g59
NtRp2531
(dp2532
g62
(dp2533
g70
I4
ssg71
g2527
sg64
(lp2534
g100
asbasbasbag57
(g73
g59
NtRp2535
(dp2536
g62
(dp2537
sg71
g1591
sg64
(lp2538
g57
(g78
g59
NtRp2539
(dp2540
g62
(dp2541
g82
g83
ssg71
g2535
sg64
(lp2542
S'wsgi_url_scheme'
p2543
asbag57
(g78
g59
NtRp2544
(dp2545
g62
(dp2546
g89
g90
ssg71
g2535
sg64
(lp2547
S':'
asbag57
(g78
g59
NtRp2548
(dp2549
g62
(dp2550
sg71
g2535
sg64
(lp2551
g57
(g58
g59
NtRp2552
(dp2553
g62
(dp2554
g70
I4
ssg71
g2548
sg64
(lp2555
S'http'
p2556
asbasbasbag57
(g73
g59
NtRp2557
(dp2558
g62
(dp2559
sg71
g1591
sg64
(lp2560
g57
(g78
g59
NtRp2561
(dp2562
g62
(dp2563
g82
g83
ssg71
g2557
sg64
(lp2564
S'wsgi_version'
p2565
asbag57
(g78
g59
NtRp2566
(dp2567
g62
(dp2568
g89
g90
ssg71
g2557
sg64
(lp2569
S':'
asbag57
(g78
g59
NtRp2570
(dp2571
g62
(dp2572
sg71
g2557
sg64
(lp2573
g57
(g58
g59
NtRp2574
(dp2575
g62
(dp2576
g70
I4
ssg71
g2570
sg64
(lp2577
g57
(g66
g59
NtRp2578
(dp2579
g62
(dp2580
g70
I3
ssg71
Nsg64
(lp2581
g57
(g73
g59
NtRp2582
(dp2583
g62
(dp2584
sg71
g2578
sg64
(lp2585
g57
(g78
g59
NtRp2586
(dp2587
g62
(dp2588
sg71
g2582
sg64
(lp2589
g57
(g58
g59
NtRp2590
(dp2591
g62
(dp2592
g70
I3
ssg71
g2586
sg64
(lp2593
S'1'
asbasbasbag57
(g73
g59
NtRp2594
(dp2595
g62
(dp2596
sg71
g2578
sg64
(lp2597
g57
(g78
g59
NtRp2598
(dp2599
g62
(dp2600
sg71
g2594
sg64
(lp2601
g57
(g58
g59
NtRp2602
(dp2603
g62
(dp2604
g70
I3
ssg71
g2598
sg64
(lp2605
S'0'
asbasbasbasbasbasbasbasbasbasbasbag57
(g73
g59
NtRp2606
(dp2607
g62
(dp2608
sg71
g67
sg64
(lp2609
g57
(g78
g59
NtRp2610
(dp2611
g62
(dp2612
g82
g83
ssg71
g2606
sg64
(lp2613
S'extension'
p2614
asbag57
(g78
g59
NtRp2615
(dp2616
g62
(dp2617
g89
g90
ssg71
g2606
sg64
(lp2618
S':'
asbag57
(g78
g59
NtRp2619
(dp2620
g62
(dp2621
sg71
g2606
sg64
(lp2622
g57
(g58
g59
NtRp2623
(dp2624
g62
(dp2625
g70
I5
ssg71
g2619
sg64
(lp2626
S'html'
p2627
asbasbasbag57
(g73
g59
NtRp2628
(dp2629
g62
(dp2630
sg71
g67
sg64
(lp2631
g57
(g78
g59
NtRp2632
(dp2633
g62
(dp2634
g82
g83
ssg71
g2628
sg64
(lp2635
S'folder'
p2636
asbag57
(g78
g59
NtRp2637
(dp2638
g62
(dp2639
g89
g90
ssg71
g2628
sg64
(lp2640
S':'
asbag57
(g78
g59
NtRp2641
(dp2642
g62
(dp2643
sg71
g2628
sg64
(lp2644
g57
(g58
g59
NtRp2645
(dp2646
g62
(dp2647
g70
I5
ssg71
g2641
sg64
(lp2648
S'/home/nishant/Acaedmics/Sem-2/ITWS-2/web2py/applications/backimg/'
p2649
asbasbasbag57
(g73
g59
NtRp2650
(dp2651
g62
(dp2652
sg71
g67
sg64
(lp2653
g57
(g78
g59
NtRp2654
(dp2655
g62
(dp2656
g82
g83
ssg71
g2650
sg64
(lp2657
S'function'
p2658
asbag57
(g78
g59
NtRp2659
(dp2660
g62
(dp2661
g89
g90
ssg71
g2650
sg64
(lp2662
S':'
asbag57
(g78
g59
NtRp2663
(dp2664
g62
(dp2665
sg71
g2650
sg64
(lp2666
g57
(g58
g59
NtRp2667
(dp2668
g62
(dp2669
g70
I5
ssg71
g2663
sg64
(lp2670
S'view_msg'
p2671
asbasbasbag57
(g73
g59
NtRp2672
(dp2673
g62
(dp2674
sg71
g67
sg64
(lp2675
g57
(g78
g59
NtRp2676
(dp2677
g62
(dp2678
g82
g83
ssg71
g2672
sg64
(lp2679
S'get_vars'
p2680
asbag57
(g78
g59
NtRp2681
(dp2682
g62
(dp2683
g89
g90
ssg71
g2672
sg64
(lp2684
S':'
asbag57
(g78
g59
NtRp2685
(dp2686
g62
(dp2687
sg71
g2672
sg64
(lp2688
g57
(g58
g59
NtRp2689
(dp2690
g62
(dp2691
g70
I5
ssg71
g2685
sg64
(lp2692
g57
(g66
g59
NtRp2693
(dp2694
g62
(dp2695
g70
I4
ssg71
Nsg64
(lp2696
sbasbasbasbag57
(g73
g59
NtRp2697
(dp2698
g62
(dp2699
sg71
g67
sg64
(lp2700
g57
(g78
g59
NtRp2701
(dp2702
g62
(dp2703
g82
g83
ssg71
g2697
sg64
(lp2704
S'global_settings'
p2705
asbag57
(g78
g59
NtRp2706
(dp2707
g62
(dp2708
g89
g90
ssg71
g2697
sg64
(lp2709
S':'
asbag57
(g78
g59
NtRp2710
(dp2711
g62
(dp2712
sg71
g2697
sg64
(lp2713
g57
(g58
g59
NtRp2714
(dp2715
g62
(dp2716
g70
I5
ssg71
g2710
sg64
(lp2717
g57
(g66
g59
NtRp2718
(dp2719
g62
(dp2720
g70
I4
ssg71
Nsg64
(lp2721
g57
(g73
g59
NtRp2722
(dp2723
g62
(dp2724
sg71
g2718
sg64
(lp2725
g57
(g78
g59
NtRp2726
(dp2727
g62
(dp2728
g82
g83
ssg71
g2722
sg64
(lp2729
g1603
asbag57
(g78
g59
NtRp2730
(dp2731
g62
(dp2732
g89
g90
ssg71
g2722
sg64
(lp2733
S':'
asbag57
(g78
g59
NtRp2734
(dp2735
g62
(dp2736
sg71
g2722
sg64
(lp2737
g57
(g58
g59
NtRp2738
(dp2739
g62
(dp2740
g70
I4
ssg71
g2734
sg64
(lp2741
S"set(['/home/nishant/Acaedmics/Sem-2/ITWS-2/web2py/applications/Resume_Builder/', '/home/nishant/Acaedmics/Sem-2/ITWS-2/web2py/applications/backimg/', '/home/nishant/Acaedmics/Sem-2/ITWS-2/web2py/applications/welcome/', '/home/nishant/Acaedmics/Sem-2/ITWS-2/web2py/applications/admin/', '/home/nishant/Acaedmics/Sem-2/ITWS-2/web2py/applications/Resume3/', '/home/nishant/Acaedmics/Sem-2/ITWS-2/web2py/applications/Resume_Builder1/'])"
p2742
asbasbasbag57
(g73
g59
NtRp2743
(dp2744
g62
(dp2745
sg71
g2718
sg64
(lp2746
g57
(g78
g59
NtRp2747
(dp2748
g62
(dp2749
g82
g83
ssg71
g2743
sg64
(lp2750
g1625
asbag57
(g78
g59
NtRp2751
(dp2752
g62
(dp2753
g89
g90
ssg71
g2743
sg64
(lp2754
S':'
asbag57
(g78
g59
NtRp2755
(dp2756
g62
(dp2757
sg71
g2743
sg64
(lp2758
g57
(g58
g59
NtRp2759
(dp2760
g62
(dp2761
g70
I4
ssg71
g2755
sg64
(lp2762
g1638
asbasbasbag57
(g73
g59
NtRp2763
(dp2764
g62
(dp2765
sg71
g2718
sg64
(lp2766
g57
(g78
g59
NtRp2767
(dp2768
g62
(dp2769
g82
g83
ssg71
g2763
sg64
(lp2770
g1647
asbag57
(g78
g59
NtRp2771
(dp2772
g62
(dp2773
g89
g90
ssg71
g2763
sg64
(lp2774
S':'
asbag57
(g78
g59
NtRp2775
(dp2776
g62
(dp2777
sg71
g2763
sg64
(lp2778
g57
(g58
g59
NtRp2779
(dp2780
g62
(dp2781
g70
I4
ssg71
g2775
sg64
(lp2782
g57
(g66
g59
NtRp2783
(dp2784
g62
(dp2785
g70
I3
ssg71
Nsg64
(lp2786
sbasbasbasbag57
(g73
g59
NtRp2787
(dp2788
g62
(dp2789
sg71
g2718
sg64
(lp2790
g57
(g78
g59
NtRp2791
(dp2792
g62
(dp2793
g82
g83
ssg71
g2787
sg64
(lp2794
g1672
asbag57
(g78
g59
NtRp2795
(dp2796
g62
(dp2797
g89
g90
ssg71
g2787
sg64
(lp2798
S':'
asbag57
(g78
g59
NtRp2799
(dp2800
g62
(dp2801
sg71
g2787
sg64
(lp2802
g57
(g58
g59
NtRp2803
(dp2804
g62
(dp2805
g70
I4
ssg71
g2799
sg64
(lp2806
S"<Values at 0x929e50c: {'verbose': False, 'ip': '127.0.0.1', 'with_scheduler': False, 'ips': [], 'shutdown_timeout': 5, 'taskbar': False, 'port': 8000, 'maxthreads': None, 'softcron': False, 'server_name': 'Nishant', 'bpython': False, 'nogui': False, 'pid_filename': 'httpserver.pid', 'extcron': False, 'runcron': False, 'run_system_tests': False, 'test': None, 'folder': '/home/nishant/Acaedmics/Sem-2/ITWS-2/web2py', 'config': '', 'import_models': False, 'winservice': '', 'shell': None, 'run': '', 'log_filename': 'httpserver.log', 'debuglevel': 30, 'args': [''], 'socket_timeout': 5, 'ssl_ca_certificate': None, 'scheduler': None, 'profiler_filename': None, 'ssl_private_key': '', 'scheduler_groups': None, 'password': '12345', 'request_queue_size': 5, 'ssl_certificate': '', 'cronjob': False, 'numthreads': None, 'quiet': False, 'interfaces': None, 'minthreads': None, 'timeout': 10, 'plain': False, 'nobanner': False}>"
p2807
asbasbasbag57
(g73
g59
NtRp2808
(dp2809
g62
(dp2810
sg71
g2718
sg64
(lp2811
g57
(g78
g59
NtRp2812
(dp2813
g62
(dp2814
g82
g83
ssg71
g2808
sg64
(lp2815
g1694
asbag57
(g78
g59
NtRp2816
(dp2817
g62
(dp2818
g89
g90
ssg71
g2808
sg64
(lp2819
S':'
asbag57
(g78
g59
NtRp2820
(dp2821
g62
(dp2822
sg71
g2808
sg64
(lp2823
g57
(g58
g59
NtRp2824
(dp2825
g62
(dp2826
g70
I4
ssg71
g2820
sg64
(lp2827
S'set([])'
p2828
asbasbasbag57
(g73
g59
NtRp2829
(dp2830
g62
(dp2831
sg71
g2718
sg64
(lp2832
g57
(g78
g59
NtRp2833
(dp2834
g62
(dp2835
g82
g83
ssg71
g2829
sg64
(lp2836
g1716
asbag57
(g78
g59
NtRp2837
(dp2838
g62
(dp2839
g89
g90
ssg71
g2829
sg64
(lp2840
S':'
asbag57
(g78
g59
NtRp2841
(dp2842
g62
(dp2843
sg71
g2829
sg64
(lp2844
g57
(g58
g59
NtRp2845
(dp2846
g62
(dp2847
g70
I4
ssg71
g2841
sg64
(lp2848
g1729
asbasbasbag57
(g73
g59
NtRp2849
(dp2850
g62
(dp2851
sg71
g2718
sg64
(lp2852
g57
(g78
g59
NtRp2853
(dp2854
g62
(dp2855
g82
g83
ssg71
g2849
sg64
(lp2856
g1738
asbag57
(g78
g59
NtRp2857
(dp2858
g62
(dp2859
g89
g90
ssg71
g2849
sg64
(lp2860
S':'
asbag57
(g78
g59
NtRp2861
(dp2862
g62
(dp2863
sg71
g2849
sg64
(lp2864
g57
(g58
g59
NtRp2865
(dp2866
g62
(dp2867
g70
I4
ssg71
g2861
sg64
(lp2868
g1751
asbasbasbag57
(g73
g59
NtRp2869
(dp2870
g62
(dp2871
sg71
g2718
sg64
(lp2872
g57
(g78
g59
NtRp2873
(dp2874
g62
(dp2875
g82
g83
ssg71
g2869
sg64
(lp2876
g1936
asbag57
(g78
g59
NtRp2877
(dp2878
g62
(dp2879
g89
g90
ssg71
g2869
sg64
(lp2880
S':'
asbag57
(g78
g59
NtRp2881
(dp2882
g62
(dp2883
sg71
g2869
sg64
(lp2884
g57
(g58
g59
NtRp2885
(dp2886
g62
(dp2887
g70
I4
ssg71
g2881
sg64
(lp2888
g100
asbasbasbag57
(g73
g59
NtRp2889
(dp2890
g62
(dp2891
sg71
g2718
sg64
(lp2892
g57
(g78
g59
NtRp2893
(dp2894
g62
(dp2895
g82
g83
ssg71
g2889
sg64
(lp2896
g1957
asbag57
(g78
g59
NtRp2897
(dp2898
g62
(dp2899
g89
g90
ssg71
g2889
sg64
(lp2900
S':'
asbag57
(g78
g59
NtRp2901
(dp2902
g62
(dp2903
sg71
g2889
sg64
(lp2904
g57
(g58
g59
NtRp2905
(dp2906
g62
(dp2907
g70
I4
ssg71
g2901
sg64
(lp2908
g100
asbasbasbag57
(g73
g59
NtRp2909
(dp2910
g62
(dp2911
sg71
g2718
sg64
(lp2912
g57
(g78
g59
NtRp2913
(dp2914
g62
(dp2915
g82
g83
ssg71
g2909
sg64
(lp2916
g1978
asbag57
(g78
g59
NtRp2917
(dp2918
g62
(dp2919
g89
g90
ssg71
g2909
sg64
(lp2920
S':'
asbag57
(g78
g59
NtRp2921
(dp2922
g62
(dp2923
sg71
g2909
sg64
(lp2924
g57
(g58
g59
NtRp2925
(dp2926
g62
(dp2927
g70
I4
ssg71
g2921
sg64
(lp2928
g57
(g66
g59
NtRp2929
(dp2930
g62
(dp2931
g70
I3
ssg71
Nsg64
(lp2932
g57
(g73
g59
NtRp2933
(dp2934
g62
(dp2935
sg71
g2929
sg64
(lp2936
g57
(g78
g59
NtRp2937
(dp2938
g62
(dp2939
sg71
g2933
sg64
(lp2940
g57
(g58
g59
NtRp2941
(dp2942
g62
(dp2943
g70
I3
ssg71
g2937
sg64
(lp2944
g2007
asbasbasbag57
(g73
g59
NtRp2945
(dp2946
g62
(dp2947
sg71
g2929
sg64
(lp2948
g57
(g78
g59
NtRp2949
(dp2950
g62
(dp2951
sg71
g2945
sg64
(lp2952
g57
(g58
g59
NtRp2953
(dp2954
g62
(dp2955
g70
I3
ssg71
g2949
sg64
(lp2956
g2020
asbasbasbag57
(g73
g59
NtRp2957
(dp2958
g62
(dp2959
sg71
g2929
sg64
(lp2960
g57
(g78
g59
NtRp2961
(dp2962
g62
(dp2963
sg71
g2957
sg64
(lp2964
g57
(g58
g59
NtRp2965
(dp2966
g62
(dp2967
g70
I3
ssg71
g2961
sg64
(lp2968
g2033
asbasbasbag57
(g73
g59
NtRp2969
(dp2970
g62
(dp2971
sg71
g2929
sg64
(lp2972
g57
(g78
g59
NtRp2973
(dp2974
g62
(dp2975
sg71
g2969
sg64
(lp2976
g57
(g58
g59
NtRp2977
(dp2978
g62
(dp2979
g70
I3
ssg71
g2973
sg64
(lp2980
g2046
asbasbasbag57
(g73
g59
NtRp2981
(dp2982
g62
(dp2983
sg71
g2929
sg64
(lp2984
g57
(g78
g59
NtRp2985
(dp2986
g62
(dp2987
sg71
g2981
sg64
(lp2988
g57
(g58
g59
NtRp2989
(dp2990
g62
(dp2991
g70
I3
ssg71
g2985
sg64
(lp2992
g2059
asbasbasbasbasbasbasbag57
(g73
g59
NtRp2993
(dp2994
g62
(dp2995
sg71
g2718
sg64
(lp2996
g57
(g78
g59
NtRp2997
(dp2998
g62
(dp2999
g82
g83
ssg71
g2993
sg64
(lp3000
g2327
asbag57
(g78
g59
NtRp3001
(dp3002
g62
(dp3003
g89
g90
ssg71
g2993
sg64
(lp3004
S':'
asbag57
(g78
g59
NtRp3005
(dp3006
g62
(dp3007
sg71
g2993
sg64
(lp3008
g57
(g58
g59
NtRp3009
(dp3010
g62
(dp3011
g70
I4
ssg71
g3005
sg64
(lp3012
g57
(g66
g59
NtRp3013
(dp3014
g62
(dp3015
g70
I3
ssg71
Nsg64
(lp3016
g57
(g73
g59
NtRp3017
(dp3018
g62
(dp3019
sg71
g3013
sg64
(lp3020
g57
(g78
g59
NtRp3021
(dp3022
g62
(dp3023
sg71
g3017
sg64
(lp3024
g57
(g58
g59
NtRp3025
(dp3026
g62
(dp3027
g70
I3
ssg71
g3021
sg64
(lp3028
S'2'
asbasbasbag57
(g73
g59
NtRp3029
(dp3030
g62
(dp3031
sg71
g3013
sg64
(lp3032
g57
(g78
g59
NtRp3033
(dp3034
g62
(dp3035
sg71
g3029
sg64
(lp3036
g57
(g58
g59
NtRp3037
(dp3038
g62
(dp3039
g70
I3
ssg71
g3033
sg64
(lp3040
S'4'
asbasbasbag57
(g73
g59
NtRp3041
(dp3042
g62
(dp3043
sg71
g3013
sg64
(lp3044
g57
(g78
g59
NtRp3045
(dp3046
g62
(dp3047
sg71
g3041
sg64
(lp3048
g57
(g58
g59
NtRp3049
(dp3050
g62
(dp3051
g70
I3
ssg71
g3045
sg64
(lp3052
S'1'
asbasbasbag57
(g73
g59
NtRp3053
(dp3054
g62
(dp3055
sg71
g3013
sg64
(lp3056
g57
(g78
g59
NtRp3057
(dp3058
g62
(dp3059
sg71
g3053
sg64
(lp3060
g57
(g58
g59
NtRp3061
(dp3062
g62
(dp3063
g70
I3
ssg71
g3057
sg64
(lp3064
g2392
asbasbasbag57
(g73
g59
NtRp3065
(dp3066
g62
(dp3067
sg71
g3013
sg64
(lp3068
g57
(g78
g59
NtRp3069
(dp3070
g62
(dp3071
sg71
g3065
sg64
(lp3072
g57
(g58
g59
NtRp3073
(dp3074
g62
(dp3075
g70
I3
ssg71
g3069
sg64
(lp3076
S'datetime.datetime(2013, 1, 10, 21, 26, 18)'
p3077
asbasbasbasbasbasbasbasbasbasbasbag57
(g73
g59
NtRp3078
(dp3079
g62
(dp3080
sg71
g67
sg64
(lp3081
g57
(g78
g59
NtRp3082
(dp3083
g62
(dp3084
g82
g83
ssg71
g3078
sg64
(lp3085
S'is_https'
p3086
asbag57
(g78
g59
NtRp3087
(dp3088
g62
(dp3089
g89
g90
ssg71
g3078
sg64
(lp3090
S':'
asbag57
(g78
g59
NtRp3091
(dp3092
g62
(dp3093
sg71
g3078
sg64
(lp3094
g57
(g58
g59
NtRp3095
(dp3096
g62
(dp3097
g70
I5
ssg71
g3091
sg64
(lp3098
g100
asbasbasbag57
(g73
g59
NtRp3099
(dp3100
g62
(dp3101
sg71
g67
sg64
(lp3102
g57
(g78
g59
NtRp3103
(dp3104
g62
(dp3105
g82
g83
ssg71
g3099
sg64
(lp3106
S'is_local'
p3107
asbag57
(g78
g59
NtRp3108
(dp3109
g62
(dp3110
g89
g90
ssg71
g3099
sg64
(lp3111
S':'
asbag57
(g78
g59
NtRp3112
(dp3113
g62
(dp3114
sg71
g3099
sg64
(lp3115
g57
(g58
g59
NtRp3116
(dp3117
g62
(dp3118
g70
I5
ssg71
g3112
sg64
(lp3119
g1729
asbasbasbag57
(g73
g59
NtRp3120
(dp3121
g62
(dp3122
sg71
g67
sg64
(lp3123
g57
(g78
g59
NtRp3124
(dp3125
g62
(dp3126
g82
g83
ssg71
g3120
sg64
(lp3127
S'is_restful'
p3128
asbag57
(g78
g59
NtRp3129
(dp3130
g62
(dp3131
g89
g90
ssg71
g3120
sg64
(lp3132
S':'
asbag57
(g78
g59
NtRp3133
(dp3134
g62
(dp3135
sg71
g3120
sg64
(lp3136
g57
(g58
g59
NtRp3137
(dp3138
g62
(dp3139
g70
I5
ssg71
g3133
sg64
(lp3140
g100
asbasbasbag57
(g73
g59
NtRp3141
(dp3142
g62
(dp3143
sg71
g67
sg64
(lp3144
g57
(g78
g59
NtRp3145
(dp3146
g62
(dp3147
g82
g83
ssg71
g3141
sg64
(lp3148
S'now'
p3149
asbag57
(g78
g59
NtRp3150
(dp3151
g62
(dp3152
g89
g90
ssg71
g3141
sg64
(lp3153
S':'
asbag57
(g78
g59
NtRp3154
(dp3155
g62
(dp3156
sg71
g3141
sg64
(lp3157
g57
(g58
g59
NtRp3158
(dp3159
g62
(dp3160
g70
I5
ssg71
g3154
sg64
(lp3161
S'datetime.datetime(2013, 4, 30, 15, 5, 59, 251709)'
p3162
asbasbasbag57
(g73
g59
NtRp3163
(dp3164
g62
(dp3165
sg71
g67
sg64
(lp3166
g57
(g78
g59
NtRp3167
(dp3168
g62
(dp3169
g82
g83
ssg71
g3163
sg64
(lp3170
S'post_vars'
p3171
asbag57
(g78
g59
NtRp3172
(dp3173
g62
(dp3174
g89
g90
ssg71
g3163
sg64
(lp3175
S':'
asbag57
(g78
g59
NtRp3176
(dp3177
g62
(dp3178
sg71
g3163
sg64
(lp3179
g57
(g58
g59
NtRp3180
(dp3181
g62
(dp3182
g70
I5
ssg71
g3176
sg64
(lp3183
g57
(g66
g59
NtRp3184
(dp3185
g62
(dp3186
g70
I4
ssg71
Nsg64
(lp3187
sbasbasbasbag57
(g73
g59
NtRp3188
(dp3189
g62
(dp3190
sg71
g67
sg64
(lp3191
g57
(g78
g59
NtRp3192
(dp3193
g62
(dp3194
g82
g83
ssg71
g3188
sg64
(lp3195
S'raw_args'
p3196
asbag57
(g78
g59
NtRp3197
(dp3198
g62
(dp3199
g89
g90
ssg71
g3188
sg64
(lp3200
S':'
asbag57
(g78
g59
NtRp3201
(dp3202
g62
(dp3203
sg71
g3188
sg64
(lp3204
g57
(g58
g59
NtRp3205
(dp3206
g62
(dp3207
g70
I5
ssg71
g3201
sg64
(lp3208
S''
asbasbasbag57
(g73
g59
NtRp3209
(dp3210
g62
(dp3211
sg71
g67
sg64
(lp3212
g57
(g78
g59
NtRp3213
(dp3214
g62
(dp3215
g82
g83
ssg71
g3209
sg64
(lp3216
S'raw_extension'
p3217
asbag57
(g78
g59
NtRp3218
(dp3219
g62
(dp3220
g89
g90
ssg71
g3209
sg64
(lp3221
S':'
asbag57
(g78
g59
NtRp3222
(dp3223
g62
(dp3224
sg71
g3209
sg64
(lp3225
g57
(g58
g59
NtRp3226
(dp3227
g62
(dp3228
g70
I5
ssg71
g3222
sg64
(lp3229
S'None'
p3230
asbasbasbag57
(g73
g59
NtRp3231
(dp3232
g62
(dp3233
sg71
g67
sg64
(lp3234
g57
(g78
g59
NtRp3235
(dp3236
g62
(dp3237
g82
g83
ssg71
g3231
sg64
(lp3238
S'url'
p3239
asbag57
(g78
g59
NtRp3240
(dp3241
g62
(dp3242
g89
g90
ssg71
g3231
sg64
(lp3243
S':'
asbag57
(g78
g59
NtRp3244
(dp3245
g62
(dp3246
sg71
g3231
sg64
(lp3247
g57
(g58
g59
NtRp3248
(dp3249
g62
(dp3250
g70
I5
ssg71
g3244
sg64
(lp3251
g2081
asbasbasbag57
(g73
g59
NtRp3252
(dp3253
g62
(dp3254
sg71
g67
sg64
(lp3255
g57
(g78
g59
NtRp3256
(dp3257
g62
(dp3258
g82
g83
ssg71
g3252
sg64
(lp3259
S'utcnow'
p3260
asbag57
(g78
g59
NtRp3261
(dp3262
g62
(dp3263
g89
g90
ssg71
g3252
sg64
(lp3264
S':'
asbag57
(g78
g59
NtRp3265
(dp3266
g62
(dp3267
sg71
g3252
sg64
(lp3268
g57
(g58
g59
NtRp3269
(dp3270
g62
(dp3271
g70
I5
ssg71
g3265
sg64
(lp3272
S'datetime.datetime(2013, 4, 30, 9, 35, 59, 251782)'
p3273
asbasbasbag57
(g73
g59
NtRp3274
(dp3275
g62
(dp3276
sg71
g67
sg64
(lp3277
g57
(g78
g59
NtRp3278
(dp3279
g62
(dp3280
g82
g83
ssg71
g3274
sg64
(lp3281
S'uuid'
p3282
asbag57
(g78
g59
NtRp3283
(dp3284
g62
(dp3285
g89
g90
ssg71
g3274
sg64
(lp3286
S':'
asbag57
(g78
g59
NtRp3287
(dp3288
g62
(dp3289
sg71
g3274
sg64
(lp3290
g57
(g58
g59
NtRp3291
(dp3292
g62
(dp3293
g70
I5
ssg71
g3287
sg64
(lp3294
S'backimg/127.0.0.1.2013-04-30.15-05-59.fce0338a-5013-4ba3-9d5c-8c5fc1af1450'
p3295
asbasbasbag57
(g73
g59
NtRp3296
(dp3297
g62
(dp3298
sg71
g67
sg64
(lp3299
g57
(g78
g59
NtRp3300
(dp3301
g62
(dp3302
g82
g83
ssg71
g3296
sg64
(lp3303
S'vars'
p3304
asbag57
(g78
g59
NtRp3305
(dp3306
g62
(dp3307
g89
g90
ssg71
g3296
sg64
(lp3308
S':'
asbag57
(g78
g59
NtRp3309
(dp3310
g62
(dp3311
sg71
g3296
sg64
(lp3312
g57
(g58
g59
NtRp3313
(dp3314
g62
(dp3315
g70
I5
ssg71
g3309
sg64
(lp3316
g57
(g66
g59
NtRp3317
(dp3318
g62
(dp3319
g70
I4
ssg71
Nsg64
(lp3320
sbasbasbasbag57
(g73
g59
NtRp3321
(dp3322
g62
(dp3323
sg71
g67
sg64
(lp3324
g57
(g78
g59
NtRp3325
(dp3326
g62
(dp3327
g82
g83
ssg71
g3321
sg64
(lp3328
S'wsgi'
p3329
asbag57
(g78
g59
NtRp3330
(dp3331
g62
(dp3332
g89
g90
ssg71
g3321
sg64
(lp3333
S':'
asbag57
(g78
g59
NtRp3334
(dp3335
g62
(dp3336
sg71
g3321
sg64
(lp3337
g57
(g58
g59
NtRp3338
(dp3339
g62
(dp3340
g70
I5
ssg71
g3334
sg64
(lp3341
g57
(g66
g59
NtRp3342
(dp3343
g62
(dp3344
g70
I4
ssg71
Nsg64
(lp3345
g57
(g73
g59
NtRp3346
(dp3347
g62
(dp3348
sg71
g3342
sg64
(lp3349
g57
(g78
g59
NtRp3350
(dp3351
g62
(dp3352
g82
g83
ssg71
g3346
sg64
(lp3353
S'environ'
p3354
asbag57
(g78
g59
NtRp3355
(dp3356
g62
(dp3357
g89
g90
ssg71
g3346
sg64
(lp3358
S':'
asbag57
(g78
g59
NtRp3359
(dp3360
g62
(dp3361
sg71
g3346
sg64
(lp3362
g57
(g58
g59
NtRp3363
(dp3364
g62
(dp3365
g70
I4
ssg71
g3359
sg64
(lp3366
g57
(g66
g59
NtRp3367
(dp3368
g62
(dp3369
g70
I3
ssg71
Nsg64
(lp3370
g57
(g73
g59
NtRp3371
(dp3372
g62
(dp3373
sg71
g3367
sg64
(lp3374
g57
(g78
g59
NtRp3375
(dp3376
g62
(dp3377
g82
g83
ssg71
g3371
sg64
(lp3378
S'HTTP_ACCEPT'
p3379
asbag57
(g78
g59
NtRp3380
(dp3381
g62
(dp3382
g89
g90
ssg71
g3371
sg64
(lp3383
S':'
asbag57
(g78
g59
NtRp3384
(dp3385
g62
(dp3386
sg71
g3371
sg64
(lp3387
g57
(g58
g59
NtRp3388
(dp3389
g62
(dp3390
g70
I3
ssg71
g3384
sg64
(lp3391
g1773
asbasbasbag57
(g73
g59
NtRp3392
(dp3393
g62
(dp3394
sg71
g3367
sg64
(lp3395
g57
(g78
g59
NtRp3396
(dp3397
g62
(dp3398
g82
g83
ssg71
g3392
sg64
(lp3399
S'HTTP_ACCEPT_ENCODING'
p3400
asbag57
(g78
g59
NtRp3401
(dp3402
g62
(dp3403
g89
g90
ssg71
g3392
sg64
(lp3404
S':'
asbag57
(g78
g59
NtRp3405
(dp3406
g62
(dp3407
sg71
g3392
sg64
(lp3408
g57
(g58
g59
NtRp3409
(dp3410
g62
(dp3411
g70
I3
ssg71
g3405
sg64
(lp3412
g1795
asbasbasbag57
(g73
g59
NtRp3413
(dp3414
g62
(dp3415
sg71
g3367
sg64
(lp3416
g57
(g78
g59
NtRp3417
(dp3418
g62
(dp3419
g82
g83
ssg71
g3413
sg64
(lp3420
S'HTTP_ACCEPT_LANGUAGE'
p3421
asbag57
(g78
g59
NtRp3422
(dp3423
g62
(dp3424
g89
g90
ssg71
g3413
sg64
(lp3425
S':'
asbag57
(g78
g59
NtRp3426
(dp3427
g62
(dp3428
sg71
g3413
sg64
(lp3429
g57
(g58
g59
NtRp3430
(dp3431
g62
(dp3432
g70
I3
ssg71
g3426
sg64
(lp3433
g1817
asbasbasbag57
(g73
g59
NtRp3434
(dp3435
g62
(dp3436
sg71
g3367
sg64
(lp3437
g57
(g78
g59
NtRp3438
(dp3439
g62
(dp3440
g82
g83
ssg71
g3434
sg64
(lp3441
S'HTTP_CONNECTION'
p3442
asbag57
(g78
g59
NtRp3443
(dp3444
g62
(dp3445
g89
g90
ssg71
g3434
sg64
(lp3446
S':'
asbag57
(g78
g59
NtRp3447
(dp3448
g62
(dp3449
sg71
g3434
sg64
(lp3450
g57
(g58
g59
NtRp3451
(dp3452
g62
(dp3453
g70
I3
ssg71
g3447
sg64
(lp3454
g1839
asbasbasbag57
(g73
g59
NtRp3455
(dp3456
g62
(dp3457
sg71
g3367
sg64
(lp3458
g57
(g78
g59
NtRp3459
(dp3460
g62
(dp3461
g82
g83
ssg71
g3455
sg64
(lp3462
S'HTTP_COOKIE'
p3463
asbag57
(g78
g59
NtRp3464
(dp3465
g62
(dp3466
g89
g90
ssg71
g3455
sg64
(lp3467
S':'
asbag57
(g78
g59
NtRp3468
(dp3469
g62
(dp3470
sg71
g3455
sg64
(lp3471
g57
(g58
g59
NtRp3472
(dp3473
g62
(dp3474
g70
I3
ssg71
g3468
sg64
(lp3475
g1861
asbasbasbag57
(g73
g59
NtRp3476
(dp3477
g62
(dp3478
sg71
g3367
sg64
(lp3479
g57
(g78
g59
NtRp3480
(dp3481
g62
(dp3482
g82
g83
ssg71
g3476
sg64
(lp3483
S'HTTP_HOST'
p3484
asbag57
(g78
g59
NtRp3485
(dp3486
g62
(dp3487
g89
g90
ssg71
g3476
sg64
(lp3488
S':'
asbag57
(g78
g59
NtRp3489
(dp3490
g62
(dp3491
sg71
g3476
sg64
(lp3492
g57
(g58
g59
NtRp3493
(dp3494
g62
(dp3495
g70
I3
ssg71
g3489
sg64
(lp3496
g1883
asbasbasbag57
(g73
g59
NtRp3497
(dp3498
g62
(dp3499
sg71
g3367
sg64
(lp3500
g57
(g78
g59
NtRp3501
(dp3502
g62
(dp3503
g82
g83
ssg71
g3497
sg64
(lp3504
S'HTTP_REFERER'
p3505
asbag57
(g78
g59
NtRp3506
(dp3507
g62
(dp3508
g89
g90
ssg71
g3497
sg64
(lp3509
S':'
asbag57
(g78
g59
NtRp3510
(dp3511
g62
(dp3512
sg71
g3497
sg64
(lp3513
g57
(g58
g59
NtRp3514
(dp3515
g62
(dp3516
g70
I3
ssg71
g3510
sg64
(lp3517
g1905
asbasbasbag57
(g73
g59
NtRp3518
(dp3519
g62
(dp3520
sg71
g3367
sg64
(lp3521
g57
(g78
g59
NtRp3522
(dp3523
g62
(dp3524
g82
g83
ssg71
g3518
sg64
(lp3525
S'HTTP_USER_AGENT'
p3526
asbag57
(g78
g59
NtRp3527
(dp3528
g62
(dp3529
g89
g90
ssg71
g3518
sg64
(lp3530
S':'
asbag57
(g78
g59
NtRp3531
(dp3532
g62
(dp3533
sg71
g3518
sg64
(lp3534
g57
(g58
g59
NtRp3535
(dp3536
g62
(dp3537
g70
I3
ssg71
g3531
sg64
(lp3538
g1927
asbasbasbag57
(g73
g59
NtRp3539
(dp3540
g62
(dp3541
sg71
g3367
sg64
(lp3542
g57
(g78
g59
NtRp3543
(dp3544
g62
(dp3545
g82
g83
ssg71
g3539
sg64
(lp3546
S'PATH_INFO'
p3547
asbag57
(g78
g59
NtRp3548
(dp3549
g62
(dp3550
g89
g90
ssg71
g3539
sg64
(lp3551
S':'
asbag57
(g78
g59
NtRp3552
(dp3553
g62
(dp3554
sg71
g3539
sg64
(lp3555
g57
(g58
g59
NtRp3556
(dp3557
g62
(dp3558
g70
I3
ssg71
g3552
sg64
(lp3559
g2081
asbasbasbag57
(g73
g59
NtRp3560
(dp3561
g62
(dp3562
sg71
g3367
sg64
(lp3563
g57
(g78
g59
NtRp3564
(dp3565
g62
(dp3566
g82
g83
ssg71
g3560
sg64
(lp3567
S'QUERY_STRING'
p3568
asbag57
(g78
g59
NtRp3569
(dp3570
g62
(dp3571
g89
g90
ssg71
g3560
sg64
(lp3572
S':'
asbag57
(g78
g59
NtRp3573
(dp3574
g62
(dp3575
sg71
g3560
sg64
(lp3576
g57
(g58
g59
NtRp3577
(dp3578
g62
(dp3579
g70
I3
ssg71
g3573
sg64
(lp3580
S''
asbasbasbag57
(g73
g59
NtRp3581
(dp3582
g62
(dp3583
sg71
g3367
sg64
(lp3584
g57
(g78
g59
NtRp3585
(dp3586
g62
(dp3587
g82
g83
ssg71
g3581
sg64
(lp3588
S'REMOTE_ADDR'
p3589
asbag57
(g78
g59
NtRp3590
(dp3591
g62
(dp3592
g89
g90
ssg71
g3581
sg64
(lp3593
S':'
asbag57
(g78
g59
NtRp3594
(dp3595
g62
(dp3596
sg71
g3581
sg64
(lp3597
g57
(g58
g59
NtRp3598
(dp3599
g62
(dp3600
g70
I3
ssg71
g3594
sg64
(lp3601
g212
asbasbasbag57
(g73
g59
NtRp3602
(dp3603
g62
(dp3604
sg71
g3367
sg64
(lp3605
g57
(g78
g59
NtRp3606
(dp3607
g62
(dp3608
g82
g83
ssg71
g3602
sg64
(lp3609
S'REMOTE_PORT'
p3610
asbag57
(g78
g59
NtRp3611
(dp3612
g62
(dp3613
g89
g90
ssg71
g3602
sg64
(lp3614
S':'
asbag57
(g78
g59
NtRp3615
(dp3616
g62
(dp3617
sg71
g3602
sg64
(lp3618
g57
(g58
g59
NtRp3619
(dp3620
g62
(dp3621
g70
I3
ssg71
g3615
sg64
(lp3622
g2145
asbasbasbag57
(g73
g59
NtRp3623
(dp3624
g62
(dp3625
sg71
g3367
sg64
(lp3626
g57
(g78
g59
NtRp3627
(dp3628
g62
(dp3629
g82
g83
ssg71
g3623
sg64
(lp3630
S'REQUEST_METHOD'
p3631
asbag57
(g78
g59
NtRp3632
(dp3633
g62
(dp3634
g89
g90
ssg71
g3623
sg64
(lp3635
S':'
asbag57
(g78
g59
NtRp3636
(dp3637
g62
(dp3638
sg71
g3623
sg64
(lp3639
g57
(g58
g59
NtRp3640
(dp3641
g62
(dp3642
g70
I3
ssg71
g3636
sg64
(lp3643
g2167
asbasbasbag57
(g73
g59
NtRp3644
(dp3645
g62
(dp3646
sg71
g3367
sg64
(lp3647
g57
(g78
g59
NtRp3648
(dp3649
g62
(dp3650
g82
g83
ssg71
g3644
sg64
(lp3651
S'REQUEST_URI'
p3652
asbag57
(g78
g59
NtRp3653
(dp3654
g62
(dp3655
g89
g90
ssg71
g3644
sg64
(lp3656
S':'
asbag57
(g78
g59
NtRp3657
(dp3658
g62
(dp3659
sg71
g3644
sg64
(lp3660
g57
(g58
g59
NtRp3661
(dp3662
g62
(dp3663
g70
I3
ssg71
g3657
sg64
(lp3664
g2081
asbasbasbag57
(g73
g59
NtRp3665
(dp3666
g62
(dp3667
sg71
g3367
sg64
(lp3668
g57
(g78
g59
NtRp3669
(dp3670
g62
(dp3671
g82
g83
ssg71
g3665
sg64
(lp3672
S'SCRIPT_NAME'
p3673
asbag57
(g78
g59
NtRp3674
(dp3675
g62
(dp3676
g89
g90
ssg71
g3665
sg64
(lp3677
S':'
asbag57
(g78
g59
NtRp3678
(dp3679
g62
(dp3680
sg71
g3665
sg64
(lp3681
g57
(g58
g59
NtRp3682
(dp3683
g62
(dp3684
g70
I3
ssg71
g3678
sg64
(lp3685
S''
asbasbasbag57
(g73
g59
NtRp3686
(dp3687
g62
(dp3688
sg71
g3367
sg64
(lp3689
g57
(g78
g59
NtRp3690
(dp3691
g62
(dp3692
g82
g83
ssg71
g3686
sg64
(lp3693
S'SERVER_NAME'
p3694
asbag57
(g78
g59
NtRp3695
(dp3696
g62
(dp3697
g89
g90
ssg71
g3686
sg64
(lp3698
S':'
asbag57
(g78
g59
NtRp3699
(dp3700
g62
(dp3701
sg71
g3686
sg64
(lp3702
g57
(g58
g59
NtRp3703
(dp3704
g62
(dp3705
g70
I3
ssg71
g3699
sg64
(lp3706
g2231
asbasbasbag57
(g73
g59
NtRp3707
(dp3708
g62
(dp3709
sg71
g3367
sg64
(lp3710
g57
(g78
g59
NtRp3711
(dp3712
g62
(dp3713
g82
g83
ssg71
g3707
sg64
(lp3714
S'SERVER_PORT'
p3715
asbag57
(g78
g59
NtRp3716
(dp3717
g62
(dp3718
g89
g90
ssg71
g3707
sg64
(lp3719
S':'
asbag57
(g78
g59
NtRp3720
(dp3721
g62
(dp3722
sg71
g3707
sg64
(lp3723
g57
(g58
g59
NtRp3724
(dp3725
g62
(dp3726
g70
I3
ssg71
g3720
sg64
(lp3727
g2253
asbasbasbag57
(g73
g59
NtRp3728
(dp3729
g62
(dp3730
sg71
g3367
sg64
(lp3731
g57
(g78
g59
NtRp3732
(dp3733
g62
(dp3734
g82
g83
ssg71
g3728
sg64
(lp3735
S'SERVER_PROTOCOL'
p3736
asbag57
(g78
g59
NtRp3737
(dp3738
g62
(dp3739
g89
g90
ssg71
g3728
sg64
(lp3740
S':'
asbag57
(g78
g59
NtRp3741
(dp3742
g62
(dp3743
sg71
g3728
sg64
(lp3744
g57
(g58
g59
NtRp3745
(dp3746
g62
(dp3747
g70
I3
ssg71
g3741
sg64
(lp3748
g2275
asbasbasbag57
(g73
g59
NtRp3749
(dp3750
g62
(dp3751
sg71
g3367
sg64
(lp3752
g57
(g78
g59
NtRp3753
(dp3754
g62
(dp3755
g82
g83
ssg71
g3749
sg64
(lp3756
S'SERVER_SOFTWARE'
p3757
asbag57
(g78
g59
NtRp3758
(dp3759
g62
(dp3760
g89
g90
ssg71
g3749
sg64
(lp3761
S':'
asbag57
(g78
g59
NtRp3762
(dp3763
g62
(dp3764
sg71
g3749
sg64
(lp3765
g57
(g58
g59
NtRp3766
(dp3767
g62
(dp3768
g70
I3
ssg71
g3762
sg64
(lp3769
g2297
asbasbasbag57
(g73
g59
NtRp3770
(dp3771
g62
(dp3772
sg71
g3367
sg64
(lp3773
g57
(g78
g59
NtRp3774
(dp3775
g62
(dp3776
g82
g83
ssg71
g3770
sg64
(lp3777
S'wsgi.errors'
p3778
asbag57
(g78
g59
NtRp3779
(dp3780
g62
(dp3781
g89
g90
ssg71
g3770
sg64
(lp3782
S':'
asbag57
(g78
g59
NtRp3783
(dp3784
g62
(dp3785
sg71
g3770
sg64
(lp3786
g57
(g58
g59
NtRp3787
(dp3788
g62
(dp3789
g70
I3
ssg71
g3783
sg64
(lp3790
S"<open file '<stderr>', mode 'w' at 0xb75210d0>"
p3791
asbasbasbag57
(g73
g59
NtRp3792
(dp3793
g62
(dp3794
sg71
g3367
sg64
(lp3795
g57
(g78
g59
NtRp3796
(dp3797
g62
(dp3798
g82
g83
ssg71
g3792
sg64
(lp3799
S'wsgi.file_wrapper'
p3800
asbag57
(g78
g59
NtRp3801
(dp3802
g62
(dp3803
g89
g90
ssg71
g3792
sg64
(lp3804
S':'
asbag57
(g78
g59
NtRp3805
(dp3806
g62
(dp3807
sg71
g3792
sg64
(lp3808
g57
(g58
g59
NtRp3809
(dp3810
g62
(dp3811
g70
I3
ssg71
g3805
sg64
(lp3812
S'<class wsgiref.util.FileWrapper at 0x9220ddc>'
p3813
asbasbasbag57
(g73
g59
NtRp3814
(dp3815
g62
(dp3816
sg71
g3367
sg64
(lp3817
g57
(g78
g59
NtRp3818
(dp3819
g62
(dp3820
g82
g83
ssg71
g3814
sg64
(lp3821
S'wsgi.input'
p3822
asbag57
(g78
g59
NtRp3823
(dp3824
g62
(dp3825
g89
g90
ssg71
g3814
sg64
(lp3826
S':'
asbag57
(g78
g59
NtRp3827
(dp3828
g62
(dp3829
sg71
g3814
sg64
(lp3830
g57
(g58
g59
NtRp3831
(dp3832
g62
(dp3833
g70
I3
ssg71
g3827
sg64
(lp3834
S'<cStringIO.StringO object at 0xafb64860>'
p3835
asbasbasbag57
(g73
g59
NtRp3836
(dp3837
g62
(dp3838
sg71
g3367
sg64
(lp3839
g57
(g78
g59
NtRp3840
(dp3841
g62
(dp3842
g82
g83
ssg71
g3836
sg64
(lp3843
S'wsgi.multiprocess'
p3844
asbag57
(g78
g59
NtRp3845
(dp3846
g62
(dp3847
g89
g90
ssg71
g3836
sg64
(lp3848
S':'
asbag57
(g78
g59
NtRp3849
(dp3850
g62
(dp3851
sg71
g3836
sg64
(lp3852
g57
(g58
g59
NtRp3853
(dp3854
g62
(dp3855
g70
I3
ssg71
g3849
sg64
(lp3856
g100
asbasbasbag57
(g73
g59
NtRp3857
(dp3858
g62
(dp3859
sg71
g3367
sg64
(lp3860
g57
(g78
g59
NtRp3861
(dp3862
g62
(dp3863
g82
g83
ssg71
g3857
sg64
(lp3864
S'wsgi.multithread'
p3865
asbag57
(g78
g59
NtRp3866
(dp3867
g62
(dp3868
g89
g90
ssg71
g3857
sg64
(lp3869
S':'
asbag57
(g78
g59
NtRp3870
(dp3871
g62
(dp3872
sg71
g3857
sg64
(lp3873
g57
(g58
g59
NtRp3874
(dp3875
g62
(dp3876
g70
I3
ssg71
g3870
sg64
(lp3877
g1729
asbasbasbag57
(g73
g59
NtRp3878
(dp3879
g62
(dp3880
sg71
g3367
sg64
(lp3881
g57
(g78
g59
NtRp3882
(dp3883
g62
(dp3884
g82
g83
ssg71
g3878
sg64
(lp3885
S'wsgi.run_once'
p3886
asbag57
(g78
g59
NtRp3887
(dp3888
g62
(dp3889
g89
g90
ssg71
g3878
sg64
(lp3890
S':'
asbag57
(g78
g59
NtRp3891
(dp3892
g62
(dp3893
sg71
g3878
sg64
(lp3894
g57
(g58
g59
NtRp3895
(dp3896
g62
(dp3897
g70
I3
ssg71
g3891
sg64
(lp3898
g100
asbasbasbag57
(g73
g59
NtRp3899
(dp3900
g62
(dp3901
sg71
g3367
sg64
(lp3902
g57
(g78
g59
NtRp3903
(dp3904
g62
(dp3905
g82
g83
ssg71
g3899
sg64
(lp3906
S'wsgi.url_scheme'
p3907
asbag57
(g78
g59
NtRp3908
(dp3909
g62
(dp3910
g89
g90
ssg71
g3899
sg64
(lp3911
S':'
asbag57
(g78
g59
NtRp3912
(dp3913
g62
(dp3914
sg71
g3899
sg64
(lp3915
g57
(g58
g59
NtRp3916
(dp3917
g62
(dp3918
g70
I3
ssg71
g3912
sg64
(lp3919
g2556
asbasbasbag57
(g73
g59
NtRp3920
(dp3921
g62
(dp3922
sg71
g3367
sg64
(lp3923
g57
(g78
g59
NtRp3924
(dp3925
g62
(dp3926
g82
g83
ssg71
g3920
sg64
(lp3927
S'wsgi.version'
p3928
asbag57
(g78
g59
NtRp3929
(dp3930
g62
(dp3931
g89
g90
ssg71
g3920
sg64
(lp3932
S':'
asbag57
(g78
g59
NtRp3933
(dp3934
g62
(dp3935
sg71
g3920
sg64
(lp3936
g57
(g58
g59
NtRp3937
(dp3938
g62
(dp3939
g70
I3
ssg71
g3933
sg64
(lp3940
S'1'
asbasbasbasbasbasbasbasbasbasbasbasbasbsS'frames'
p3941
(lp3942
(dp3943
S'file'
p3944
S'/home/nishant/Acaedmics/Sem-2/ITWS-2/web2py/gluon/restricted.py'
p3945
sS'dump'
p3946
(dp3947
S'environment'
p3948
S"{'A': <class 'gluon.html.A'>, 'Auth': <class 'gluon.tools.Auth'>, 'B': <class 'gluon.html.B'>, 'BEAUTIFY': <class 'gluon.html.BEAUTIFY'>, 'BODY': <class 'gluon.html.BODY'>, 'BR': <class 'gluon.html.BR'>, 'BUTTON': <class 'gluon.html.BUTTON'>, 'CAT': <class 'gluon.html.CAT'>, 'CENTER': <class 'gluon.html.CENTER'>, 'CLEANUP': <class 'gluon.validators.CLEANUP'>, ...}"
p3949
sS'ccode'
p3950
S'<code object <module> at 0xaef743c8, file "/home...ons/backimg/views/default/view_msg.html", line 1>'
p3951
ssS'lnum'
p3952
I212
sS'lines'
p3953
(dp3954
I207
S'    try:'
p3955
sI208
S'        if isinstance(code, types.CodeType):'
p3956
sI209
S'            ccode = code'
p3957
sI210
S'        else:'
p3958
sI211
S'            ccode = compile2(code, layer)'
p3959
sI212
S'        exec ccode in environment'
p3960
sI213
S'    except HTTP:'
p3961
sI214
S'        raise'
p3962
sI215
S'    except RestrictedError:'
p3963
sI216
S'        # do not encapsulate (obfuscate) the original RestrictedError'
p3964
ssS'call'
p3965
S'(code=\'response.write(\\\'<!DOCTYPE html>\\\\n<!-- paulirish....(\\\'"></script>\\\\n</body>\\\\n</html>\\\\n\\\', escape=False)\', environment={\'A\': <class \'gluon.html.A\'>, \'Auth\': <class \'gluon.tools.Auth\'>, \'B\': <class \'gluon.html.B\'>, \'BEAUTIFY\': <class \'gluon.html.BEAUTIFY\'>, \'BODY\': <class \'gluon.html.BODY\'>, \'BR\': <class \'gluon.html.BR\'>, \'BUTTON\': <class \'gluon.html.BUTTON\'>, \'CAT\': <class \'gluon.html.CAT\'>, \'CENTER\': <class \'gluon.html.CENTER\'>, \'CLEANUP\': <class \'gluon.validators.CLEANUP\'>, ...}, layer=\'/home/nishant/Acaedmics/Sem-2/ITWS-2/web2py/applications/backimg/views/default/view_msg.html\')'
p3966
sS'func'
p3967
S'restricted'
p3968
sa(dp3969
g3944
S'/home/nishant/Acaedmics/Sem-2/ITWS-2/web2py/applications/backimg/views/default/view_msg.html'
p3970
sg3946
(dp3971
sg3952
I97
sg3953
(dp3972
I96
S"    response.write('\\n    ', escape=False)"
p3973
sI97
S'    msgid=dict_companies[i][senderid]'
p3974
sI98
S'    response.write(\'\\n    <li><a href="\', escape=False)'
p3975
sI99
S"    response.write(URL('single_company_msg',args=msgid))"
p3976
sI100
S'    response.write(\'" >\', escape=False)'
p3977
sI101
S'    response.write(i)'
p3978
sI102
S"    response.write('</a>\\n', escape=False)"
p3979
sI103
S'    pass'
p3980
sI104
S"response.write('\\n', escape=False)"
p3981
sI105
S"response.write('\\n', escape=False)"
p3982
sI106
S"response.write('\\n</div>\\n\\n', escape=False)"
p3983
sI107
S'if right_sidebar_enabled:'
p3984
sI88
S"    response.write('</td>\\n\\t        <td>', escape=False)"
p3985
sI89
S'    response.write(i.sub)'
p3986
sI90
S"    response.write('</td>\\n\\t        <td>', escape=False)"
p3987
sI91
S'    response.write(i.msg)'
p3988
sI92
S"    response.write('</td>\\n\\t</tr>\\n', escape=False)"
p3989
sI93
S'    pass'
p3990
sI94
S"response.write('\\n</table>-->\\n<h3>View you conversations with:</h3><br />\\n<ul>\\n', escape=False)"
p3991
sI95
S'for i in dict_companies.keys():'
p3992
ssg3965
S'()'
p3993
sg3967
S'<module>'
p3994
sasS'pyver'
p3995
S'Python 2.7.3: /usr/bin/python'
p3996
sS'session'
p3997
g57
(g58
g59
NtRp3998
(dp3999
g62
(dp4000
sg64
(lp4001
g57
(g66
g59
NtRp4002
(dp4003
g62
(dp4004
g70
I5
ssg71
Nsg64
(lp4005
g57
(g73
g59
NtRp4006
(dp4007
g62
(dp4008
sg71
g4002
sg64
(lp4009
g57
(g78
g59
NtRp4010
(dp4011
g62
(dp4012
g82
g83
ssg71
g4006
sg64
(lp4013
S'auth'
p4014
asbag57
(g78
g59
NtRp4015
(dp4016
g62
(dp4017
g89
g90
ssg71
g4006
sg64
(lp4018
S':'
asbag57
(g78
g59
NtRp4019
(dp4020
g62
(dp4021
sg71
g4006
sg64
(lp4022
g57
(g58
g59
NtRp4023
(dp4024
g62
(dp4025
g70
I5
ssg71
g4019
sg64
(lp4026
g57
(g66
g59
NtRp4027
(dp4028
g62
(dp4029
g70
I4
ssg71
Nsg64
(lp4030
g57
(g73
g59
NtRp4031
(dp4032
g62
(dp4033
sg71
g4027
sg64
(lp4034
g57
(g78
g59
NtRp4035
(dp4036
g62
(dp4037
g82
g83
ssg71
g4031
sg64
(lp4038
S'expiration'
p4039
asbag57
(g78
g59
NtRp4040
(dp4041
g62
(dp4042
g89
g90
ssg71
g4031
sg64
(lp4043
S':'
asbag57
(g78
g59
NtRp4044
(dp4045
g62
(dp4046
sg71
g4031
sg64
(lp4047
g57
(g58
g59
NtRp4048
(dp4049
g62
(dp4050
g70
I4
ssg71
g4044
sg64
(lp4051
S'2592000'
p4052
asbasbasbag57
(g73
g59
NtRp4053
(dp4054
g62
(dp4055
sg71
g4027
sg64
(lp4056
g57
(g78
g59
NtRp4057
(dp4058
g62
(dp4059
g82
g83
ssg71
g4053
sg64
(lp4060
S'hmac_key'
p4061
asbag57
(g78
g59
NtRp4062
(dp4063
g62
(dp4064
g89
g90
ssg71
g4053
sg64
(lp4065
S':'
asbag57
(g78
g59
NtRp4066
(dp4067
g62
(dp4068
sg71
g4053
sg64
(lp4069
g57
(g58
g59
NtRp4070
(dp4071
g62
(dp4072
g70
I4
ssg71
g4066
sg64
(lp4073
S'bf7f7667-fb13-42c9-87f7-cb9bdcf08bad'
p4074
asbasbasbag57
(g73
g59
NtRp4075
(dp4076
g62
(dp4077
sg71
g4027
sg64
(lp4078
g57
(g78
g59
NtRp4079
(dp4080
g62
(dp4081
g82
g83
ssg71
g4075
sg64
(lp4082
S'last_visit'
p4083
asbag57
(g78
g59
NtRp4084
(dp4085
g62
(dp4086
g89
g90
ssg71
g4075
sg64
(lp4087
S':'
asbag57
(g78
g59
NtRp4088
(dp4089
g62
(dp4090
sg71
g4075
sg64
(lp4091
g57
(g58
g59
NtRp4092
(dp4093
g62
(dp4094
g70
I4
ssg71
g4088
sg64
(lp4095
S'datetime.datetime(2013, 4, 30, 14, 10, 18, 35687)'
p4096
asbasbasbag57
(g73
g59
NtRp4097
(dp4098
g62
(dp4099
sg71
g4027
sg64
(lp4100
g57
(g78
g59
NtRp4101
(dp4102
g62
(dp4103
g82
g83
ssg71
g4097
sg64
(lp4104
S'remember'
p4105
asbag57
(g78
g59
NtRp4106
(dp4107
g62
(dp4108
g89
g90
ssg71
g4097
sg64
(lp4109
S':'
asbag57
(g78
g59
NtRp4110
(dp4111
g62
(dp4112
sg71
g4097
sg64
(lp4113
g57
(g58
g59
NtRp4114
(dp4115
g62
(dp4116
g70
I4
ssg71
g4110
sg64
(lp4117
g1729
asbasbasbag57
(g73
g59
NtRp4118
(dp4119
g62
(dp4120
sg71
g4027
sg64
(lp4121
g57
(g78
g59
NtRp4122
(dp4123
g62
(dp4124
g82
g83
ssg71
g4118
sg64
(lp4125
S'user'
p4126
asbag57
(g78
g59
NtRp4127
(dp4128
g62
(dp4129
g89
g90
ssg71
g4118
sg64
(lp4130
S':'
asbag57
(g78
g59
NtRp4131
(dp4132
g62
(dp4133
sg71
g4118
sg64
(lp4134
g57
(g58
g59
NtRp4135
(dp4136
g62
(dp4137
g70
I4
ssg71
g4131
sg64
(lp4138
g57
(g66
g59
NtRp4139
(dp4140
g62
(dp4141
g70
I3
ssg71
Nsg64
(lp4142
g57
(g73
g59
NtRp4143
(dp4144
g62
(dp4145
sg71
g4139
sg64
(lp4146
g57
(g78
g59
NtRp4147
(dp4148
g62
(dp4149
g82
g83
ssg71
g4143
sg64
(lp4150
S'email'
p4151
asbag57
(g78
g59
NtRp4152
(dp4153
g62
(dp4154
g89
g90
ssg71
g4143
sg64
(lp4155
S':'
asbag57
(g78
g59
NtRp4156
(dp4157
g62
(dp4158
sg71
g4143
sg64
(lp4159
g57
(g58
g59
NtRp4160
(dp4161
g62
(dp4162
g70
I3
ssg71
g4156
sg64
(lp4163
S'nishant.agrawal@students.iiit.ac.in'
p4164
asbasbasbag57
(g73
g59
NtRp4165
(dp4166
g62
(dp4167
sg71
g4139
sg64
(lp4168
g57
(g78
g59
NtRp4169
(dp4170
g62
(dp4171
g82
g83
ssg71
g4165
sg64
(lp4172
S'first_name'
p4173
asbag57
(g78
g59
NtRp4174
(dp4175
g62
(dp4176
g89
g90
ssg71
g4165
sg64
(lp4177
S':'
asbag57
(g78
g59
NtRp4178
(dp4179
g62
(dp4180
sg71
g4165
sg64
(lp4181
g57
(g58
g59
NtRp4182
(dp4183
g62
(dp4184
g70
I3
ssg71
g4178
sg64
(lp4185
S'Nishant (nerd)'
p4186
asbasbasbag57
(g73
g59
NtRp4187
(dp4188
g62
(dp4189
sg71
g4139
sg64
(lp4190
g57
(g78
g59
NtRp4191
(dp4192
g62
(dp4193
g82
g83
ssg71
g4187
sg64
(lp4194
S'id'
p4195
asbag57
(g78
g59
NtRp4196
(dp4197
g62
(dp4198
g89
g90
ssg71
g4187
sg64
(lp4199
S':'
asbag57
(g78
g59
NtRp4200
(dp4201
g62
(dp4202
sg71
g4187
sg64
(lp4203
g57
(g58
g59
NtRp4204
(dp4205
g62
(dp4206
g70
I3
ssg71
g4200
sg64
(lp4207
S'1'
asbasbasbag57
(g73
g59
NtRp4208
(dp4209
g62
(dp4210
sg71
g4139
sg64
(lp4211
g57
(g78
g59
NtRp4212
(dp4213
g62
(dp4214
g82
g83
ssg71
g4208
sg64
(lp4215
S'last_name'
p4216
asbag57
(g78
g59
NtRp4217
(dp4218
g62
(dp4219
g89
g90
ssg71
g4208
sg64
(lp4220
S':'
asbag57
(g78
g59
NtRp4221
(dp4222
g62
(dp4223
sg71
g4208
sg64
(lp4224
g57
(g58
g59
NtRp4225
(dp4226
g62
(dp4227
g70
I3
ssg71
g4221
sg64
(lp4228
S'Agrawal'
p4229
asbasbasbag57
(g73
g59
NtRp4230
(dp4231
g62
(dp4232
sg71
g4139
sg64
(lp4233
g57
(g78
g59
NtRp4234
(dp4235
g62
(dp4236
g82
g83
ssg71
g4230
sg64
(lp4237
S'registration_id'
p4238
asbag57
(g78
g59
NtRp4239
(dp4240
g62
(dp4241
g89
g90
ssg71
g4230
sg64
(lp4242
S':'
asbag57
(g78
g59
NtRp4243
(dp4244
g62
(dp4245
sg71
g4230
sg64
(lp4246
g57
(g58
g59
NtRp4247
(dp4248
g62
(dp4249
g70
I3
ssg71
g4243
sg64
(lp4250
S''
asbasbasbag57
(g73
g59
NtRp4251
(dp4252
g62
(dp4253
sg71
g4139
sg64
(lp4254
g57
(g78
g59
NtRp4255
(dp4256
g62
(dp4257
g82
g83
ssg71
g4251
sg64
(lp4258
S'registration_key'
p4259
asbag57
(g78
g59
NtRp4260
(dp4261
g62
(dp4262
g89
g90
ssg71
g4251
sg64
(lp4263
S':'
asbag57
(g78
g59
NtRp4264
(dp4265
g62
(dp4266
sg71
g4251
sg64
(lp4267
g57
(g58
g59
NtRp4268
(dp4269
g62
(dp4270
g70
I3
ssg71
g4264
sg64
(lp4271
S''
asbasbasbag57
(g73
g59
NtRp4272
(dp4273
g62
(dp4274
sg71
g4139
sg64
(lp4275
g57
(g78
g59
NtRp4276
(dp4277
g62
(dp4278
g82
g83
ssg71
g4272
sg64
(lp4279
S'reset_password_key'
p4280
asbag57
(g78
g59
NtRp4281
(dp4282
g62
(dp4283
g89
g90
ssg71
g4272
sg64
(lp4284
S':'
asbag57
(g78
g59
NtRp4285
(dp4286
g62
(dp4287
sg71
g4272
sg64
(lp4288
g57
(g58
g59
NtRp4289
(dp4290
g62
(dp4291
g70
I3
ssg71
g4285
sg64
(lp4292
S''
asbasbasbasbasbasbasbag57
(g73
g59
NtRp4293
(dp4294
g62
(dp4295
sg71
g4027
sg64
(lp4296
g57
(g78
g59
NtRp4297
(dp4298
g62
(dp4299
g82
g83
ssg71
g4293
sg64
(lp4300
S'user_groups'
p4301
asbag57
(g78
g59
NtRp4302
(dp4303
g62
(dp4304
g89
g90
ssg71
g4293
sg64
(lp4305
S':'
asbag57
(g78
g59
NtRp4306
(dp4307
g62
(dp4308
sg71
g4293
sg64
(lp4309
g57
(g58
g59
NtRp4310
(dp4311
g62
(dp4312
g70
I4
ssg71
g4306
sg64
(lp4313
g57
(g66
g59
NtRp4314
(dp4315
g62
(dp4316
g70
I3
ssg71
Nsg64
(lp4317
g57
(g73
g59
NtRp4318
(dp4319
g62
(dp4320
sg71
g4314
sg64
(lp4321
g57
(g78
g59
NtRp4322
(dp4323
g62
(dp4324
g82
g83
ssg71
g4318
sg64
(lp4325
S'1'
asbag57
(g78
g59
NtRp4326
(dp4327
g62
(dp4328
g89
g90
ssg71
g4318
sg64
(lp4329
S':'
asbag57
(g78
g59
NtRp4330
(dp4331
g62
(dp4332
sg71
g4318
sg64
(lp4333
g57
(g58
g59
NtRp4334
(dp4335
g62
(dp4336
g70
I3
ssg71
g4330
sg64
(lp4337
S'Student'
p4338
asbasbasbasbasbasbasbasbasbasbasbag57
(g73
g59
NtRp4339
(dp4340
g62
(dp4341
sg71
g4002
sg64
(lp4342
g57
(g78
g59
NtRp4343
(dp4344
g62
(dp4345
g82
g83
ssg71
g4339
sg64
(lp4346
S'flash'
p4347
asbag57
(g78
g59
NtRp4348
(dp4349
g62
(dp4350
g89
g90
ssg71
g4339
sg64
(lp4351
S':'
asbag57
(g78
g59
NtRp4352
(dp4353
g62
(dp4354
sg71
g4339
sg64
(lp4355
g57
(g58
g59
NtRp4356
(dp4357
g62
(dp4358
g70
I5
ssg71
g4352
sg64
(lp4359
S'None'
p4360
asbasbasbasbasbsS'etype'
p4361
S"<type 'exceptions.NameError'>"
p4362
sS'date'
p4363
S'Tue Apr 30 15:05:59 2013'
p4364
sS'response'
p4365
g57
(g58
g59
NtRp4366
(dp4367
g62
(dp4368
sg64
(lp4369
g57
(g66
g59
NtRp4370
(dp4371
g62
(dp4372
g70
I5
ssg71
Nsg64
(lp4373
g57
(g73
g59
NtRp4374
(dp4375
g62
(dp4376
sg71
g4370
sg64
(lp4377
g57
(g78
g59
NtRp4378
(dp4379
g62
(dp4380
g82
g83
ssg71
g4374
sg64
(lp4381
g155
asbag57
(g78
g59
NtRp4382
(dp4383
g62
(dp4384
g89
g90
ssg71
g4374
sg64
(lp4385
S':'
asbag57
(g78
g59
NtRp4386
(dp4387
g62
(dp4388
sg71
g4374
sg64
(lp4389
g57
(g58
g59
NtRp4390
(dp4391
g62
(dp4392
g70
I5
ssg71
g4386
sg64
(lp4393
S'<cStringIO.StringO object at 0xaf765380>'
p4394
asbasbasbag57
(g73
g59
NtRp4395
(dp4396
g62
(dp4397
sg71
g4370
sg64
(lp4398
g57
(g78
g59
NtRp4399
(dp4400
g62
(dp4401
g82
g83
ssg71
g4395
sg64
(lp4402
g243
asbag57
(g78
g59
NtRp4403
(dp4404
g62
(dp4405
g89
g90
ssg71
g4395
sg64
(lp4406
S':'
asbag57
(g78
g59
NtRp4407
(dp4408
g62
(dp4409
sg71
g4395
sg64
(lp4410
g57
(g58
g59
NtRp4411
(dp4412
g62
(dp4413
g70
I5
ssg71
g4407
sg64
(lp4414
g57
(g66
g59
NtRp4415
(dp4416
g62
(dp4417
g70
I4
ssg71
Nsg64
(lp4418
g57
(g73
g59
NtRp4419
(dp4420
g62
(dp4421
sg71
g4415
sg64
(lp4422
g57
(g78
g59
NtRp4423
(dp4424
g62
(dp4425
g82
g83
ssg71
g4419
sg64
(lp4426
S'session_id_backimg'
p4427
asbag57
(g78
g59
NtRp4428
(dp4429
g62
(dp4430
g89
g90
ssg71
g4419
sg64
(lp4431
S':'
asbag57
(g78
g59
NtRp4432
(dp4433
g62
(dp4434
sg71
g4419
sg64
(lp4435
g57
(g58
g59
NtRp4436
(dp4437
g62
(dp4438
g70
I4
ssg71
g4432
sg64
(lp4439
g475
ag57
(g66
g59
NtRp4440
(dp4441
g62
(dp4442
g70
I3
ssg71
Nsg64
(lp4443
g57
(g73
g59
NtRp4444
(dp4445
g62
(dp4446
sg71
g4440
sg64
(lp4447
g57
(g78
g59
NtRp4448
(dp4449
g62
(dp4450
g82
g83
ssg71
g4444
sg64
(lp4451
g294
asbag57
(g78
g59
NtRp4452
(dp4453
g62
(dp4454
g89
g90
ssg71
g4444
sg64
(lp4455
S':'
asbag57
(g78
g59
NtRp4456
(dp4457
g62
(dp4458
sg71
g4444
sg64
(lp4459
g57
(g58
g59
NtRp4460
(dp4461
g62
(dp4462
g70
I3
ssg71
g4456
sg64
(lp4463
S''
asbasbasbag57
(g73
g59
NtRp4464
(dp4465
g62
(dp4466
sg71
g4440
sg64
(lp4467
g57
(g78
g59
NtRp4468
(dp4469
g62
(dp4470
g82
g83
ssg71
g4464
sg64
(lp4471
g315
asbag57
(g78
g59
NtRp4472
(dp4473
g62
(dp4474
g89
g90
ssg71
g4464
sg64
(lp4475
S':'
asbag57
(g78
g59
NtRp4476
(dp4477
g62
(dp4478
sg71
g4464
sg64
(lp4479
g57
(g58
g59
NtRp4480
(dp4481
g62
(dp4482
g70
I3
ssg71
g4476
sg64
(lp4483
S''
asbasbasbag57
(g73
g59
NtRp4484
(dp4485
g62
(dp4486
sg71
g4440
sg64
(lp4487
g57
(g78
g59
NtRp4488
(dp4489
g62
(dp4490
g82
g83
ssg71
g4484
sg64
(lp4491
g336
asbag57
(g78
g59
NtRp4492
(dp4493
g62
(dp4494
g89
g90
ssg71
g4484
sg64
(lp4495
S':'
asbag57
(g78
g59
NtRp4496
(dp4497
g62
(dp4498
sg71
g4484
sg64
(lp4499
g57
(g58
g59
NtRp4500
(dp4501
g62
(dp4502
g70
I3
ssg71
g4496
sg64
(lp4503
S'2592000'
p4504
asbasbasbag57
(g73
g59
NtRp4505
(dp4506
g62
(dp4507
sg71
g4440
sg64
(lp4508
g57
(g78
g59
NtRp4509
(dp4510
g62
(dp4511
g82
g83
ssg71
g4505
sg64
(lp4512
g357
asbag57
(g78
g59
NtRp4513
(dp4514
g62
(dp4515
g89
g90
ssg71
g4505
sg64
(lp4516
S':'
asbag57
(g78
g59
NtRp4517
(dp4518
g62
(dp4519
sg71
g4505
sg64
(lp4520
g57
(g58
g59
NtRp4521
(dp4522
g62
(dp4523
g70
I3
ssg71
g4517
sg64
(lp4524
S''
asbasbasbag57
(g73
g59
NtRp4525
(dp4526
g62
(dp4527
sg71
g4440
sg64
(lp4528
g57
(g78
g59
NtRp4529
(dp4530
g62
(dp4531
g82
g83
ssg71
g4525
sg64
(lp4532
g378
asbag57
(g78
g59
NtRp4533
(dp4534
g62
(dp4535
g89
g90
ssg71
g4525
sg64
(lp4536
S':'
asbag57
(g78
g59
NtRp4537
(dp4538
g62
(dp4539
sg71
g4525
sg64
(lp4540
g57
(g58
g59
NtRp4541
(dp4542
g62
(dp4543
g70
I3
ssg71
g4537
sg64
(lp4544
S''
asbasbasbag57
(g73
g59
NtRp4545
(dp4546
g62
(dp4547
sg71
g4440
sg64
(lp4548
g57
(g78
g59
NtRp4549
(dp4550
g62
(dp4551
g82
g83
ssg71
g4545
sg64
(lp4552
g399
asbag57
(g78
g59
NtRp4553
(dp4554
g62
(dp4555
g89
g90
ssg71
g4545
sg64
(lp4556
S':'
asbag57
(g78
g59
NtRp4557
(dp4558
g62
(dp4559
sg71
g4545
sg64
(lp4560
g57
(g58
g59
NtRp4561
(dp4562
g62
(dp4563
g70
I3
ssg71
g4557
sg64
(lp4564
S'/'
asbasbasbag57
(g73
g59
NtRp4565
(dp4566
g62
(dp4567
sg71
g4440
sg64
(lp4568
g57
(g78
g59
NtRp4569
(dp4570
g62
(dp4571
g82
g83
ssg71
g4565
sg64
(lp4572
g420
asbag57
(g78
g59
NtRp4573
(dp4574
g62
(dp4575
g89
g90
ssg71
g4565
sg64
(lp4576
S':'
asbag57
(g78
g59
NtRp4577
(dp4578
g62
(dp4579
sg71
g4565
sg64
(lp4580
g57
(g58
g59
NtRp4581
(dp4582
g62
(dp4583
g70
I3
ssg71
g4577
sg64
(lp4584
S''
asbasbasbag57
(g73
g59
NtRp4585
(dp4586
g62
(dp4587
sg71
g4440
sg64
(lp4588
g57
(g78
g59
NtRp4589
(dp4590
g62
(dp4591
g82
g83
ssg71
g4585
sg64
(lp4592
g441
asbag57
(g78
g59
NtRp4593
(dp4594
g62
(dp4595
g89
g90
ssg71
g4585
sg64
(lp4596
S':'
asbag57
(g78
g59
NtRp4597
(dp4598
g62
(dp4599
sg71
g4585
sg64
(lp4600
g57
(g58
g59
NtRp4601
(dp4602
g62
(dp4603
g70
I3
ssg71
g4597
sg64
(lp4604
S''
asbasbasbasbasbasbasbasbasbasbasbag57
(g73
g59
NtRp4605
(dp4606
g62
(dp4607
sg71
g4370
sg64
(lp4608
g57
(g78
g59
NtRp4609
(dp4610
g62
(dp4611
g82
g83
ssg71
g4605
sg64
(lp4612
S'delimiters'
p4613
asbag57
(g78
g59
NtRp4614
(dp4615
g62
(dp4616
g89
g90
ssg71
g4605
sg64
(lp4617
S':'
asbag57
(g78
g59
NtRp4618
(dp4619
g62
(dp4620
sg71
g4605
sg64
(lp4621
g57
(g58
g59
NtRp4622
(dp4623
g62
(dp4624
g70
I5
ssg71
g4618
sg64
(lp4625
g57
(g66
g59
NtRp4626
(dp4627
g62
(dp4628
g70
I4
ssg71
Nsg64
(lp4629
g57
(g73
g59
NtRp4630
(dp4631
g62
(dp4632
sg71
g4626
sg64
(lp4633
g57
(g78
g59
NtRp4634
(dp4635
g62
(dp4636
sg71
g4630
sg64
(lp4637
g57
(g58
g59
NtRp4638
(dp4639
g62
(dp4640
g70
I4
ssg71
g4634
sg64
(lp4641
S'{{'
p4642
asbasbasbag57
(g73
g59
NtRp4643
(dp4644
g62
(dp4645
sg71
g4626
sg64
(lp4646
g57
(g78
g59
NtRp4647
(dp4648
g62
(dp4649
sg71
g4643
sg64
(lp4650
g57
(g58
g59
NtRp4651
(dp4652
g62
(dp4653
g70
I4
ssg71
g4647
sg64
(lp4654
S'}}'
p4655
asbasbasbasbasbasbasbag57
(g73
g59
NtRp4656
(dp4657
g62
(dp4658
sg71
g4370
sg64
(lp4659
g57
(g78
g59
NtRp4660
(dp4661
g62
(dp4662
g82
g83
ssg71
g4656
sg64
(lp4663
S'files'
p4664
asbag57
(g78
g59
NtRp4665
(dp4666
g62
(dp4667
g89
g90
ssg71
g4656
sg64
(lp4668
S':'
asbag57
(g78
g59
NtRp4669
(dp4670
g62
(dp4671
sg71
g4656
sg64
(lp4672
g57
(g58
g59
NtRp4673
(dp4674
g62
(dp4675
g70
I5
ssg71
g4669
sg64
(lp4676
g57
(g66
g59
NtRp4677
(dp4678
g62
(dp4679
g70
I4
ssg71
Nsg64
(lp4680
g57
(g73
g59
NtRp4681
(dp4682
g62
(dp4683
sg71
g4677
sg64
(lp4684
g57
(g78
g59
NtRp4685
(dp4686
g62
(dp4687
sg71
g4681
sg64
(lp4688
g57
(g58
g59
NtRp4689
(dp4690
g62
(dp4691
g70
I4
ssg71
g4685
sg64
(lp4692
S'/backimg/static/js/jquery.js'
p4693
asbasbasbag57
(g73
g59
NtRp4694
(dp4695
g62
(dp4696
sg71
g4677
sg64
(lp4697
g57
(g78
g59
NtRp4698
(dp4699
g62
(dp4700
sg71
g4694
sg64
(lp4701
g57
(g58
g59
NtRp4702
(dp4703
g62
(dp4704
g70
I4
ssg71
g4698
sg64
(lp4705
S'/backimg/static/css/calendar.css'
p4706
asbasbasbag57
(g73
g59
NtRp4707
(dp4708
g62
(dp4709
sg71
g4677
sg64
(lp4710
g57
(g78
g59
NtRp4711
(dp4712
g62
(dp4713
sg71
g4707
sg64
(lp4714
g57
(g58
g59
NtRp4715
(dp4716
g62
(dp4717
g70
I4
ssg71
g4711
sg64
(lp4718
S'/backimg/static/js/calendar.js'
p4719
asbasbasbag57
(g73
g59
NtRp4720
(dp4721
g62
(dp4722
sg71
g4677
sg64
(lp4723
g57
(g78
g59
NtRp4724
(dp4725
g62
(dp4726
sg71
g4720
sg64
(lp4727
g57
(g58
g59
NtRp4728
(dp4729
g62
(dp4730
g70
I4
ssg71
g4724
sg64
(lp4731
S'/backimg/static/js/web2py.js'
p4732
asbasbasbag57
(g73
g59
NtRp4733
(dp4734
g62
(dp4735
sg71
g4677
sg64
(lp4736
g57
(g78
g59
NtRp4737
(dp4738
g62
(dp4739
sg71
g4733
sg64
(lp4740
g57
(g58
g59
NtRp4741
(dp4742
g62
(dp4743
g70
I4
ssg71
g4737
sg64
(lp4744
S'/backimg/static/css/web2py.css'
p4745
asbasbasbag57
(g73
g59
NtRp4746
(dp4747
g62
(dp4748
sg71
g4677
sg64
(lp4749
g57
(g78
g59
NtRp4750
(dp4751
g62
(dp4752
sg71
g4746
sg64
(lp4753
g57
(g58
g59
NtRp4754
(dp4755
g62
(dp4756
g70
I4
ssg71
g4750
sg64
(lp4757
S'/backimg/static/css/bootstrap.min.css'
p4758
asbasbasbag57
(g73
g59
NtRp4759
(dp4760
g62
(dp4761
sg71
g4677
sg64
(lp4762
g57
(g78
g59
NtRp4763
(dp4764
g62
(dp4765
sg71
g4759
sg64
(lp4766
g57
(g58
g59
NtRp4767
(dp4768
g62
(dp4769
g70
I4
ssg71
g4763
sg64
(lp4770
S'/backimg/static/css/bootstrap-responsive.min.css'
p4771
asbasbasbag57
(g73
g59
NtRp4772
(dp4773
g62
(dp4774
sg71
g4677
sg64
(lp4775
g57
(g78
g59
NtRp4776
(dp4777
g62
(dp4778
sg71
g4772
sg64
(lp4779
g57
(g58
g59
NtRp4780
(dp4781
g62
(dp4782
g70
I4
ssg71
g4776
sg64
(lp4783
S'/backimg/static/css/web2py_bootstrap.css'
p4784
asbasbasbasbasbasbasbag57
(g73
g59
NtRp4785
(dp4786
g62
(dp4787
sg71
g4370
sg64
(lp4788
g57
(g78
g59
NtRp4789
(dp4790
g62
(dp4791
g82
g83
ssg71
g4785
sg64
(lp4792
S'flash'
p4793
asbag57
(g78
g59
NtRp4794
(dp4795
g62
(dp4796
g89
g90
ssg71
g4785
sg64
(lp4797
S':'
asbag57
(g78
g59
NtRp4798
(dp4799
g62
(dp4800
sg71
g4785
sg64
(lp4801
g57
(g58
g59
NtRp4802
(dp4803
g62
(dp4804
g70
I5
ssg71
g4798
sg64
(lp4805
S''
asbasbasbag57
(g73
g59
NtRp4806
(dp4807
g62
(dp4808
sg71
g4370
sg64
(lp4809
g57
(g78
g59
NtRp4810
(dp4811
g62
(dp4812
g82
g83
ssg71
g4806
sg64
(lp4813
S'generic_patterns'
p4814
asbag57
(g78
g59
NtRp4815
(dp4816
g62
(dp4817
g89
g90
ssg71
g4806
sg64
(lp4818
S':'
asbag57
(g78
g59
NtRp4819
(dp4820
g62
(dp4821
sg71
g4806
sg64
(lp4822
g57
(g58
g59
NtRp4823
(dp4824
g62
(dp4825
g70
I5
ssg71
g4819
sg64
(lp4826
g57
(g66
g59
NtRp4827
(dp4828
g62
(dp4829
g70
I4
ssg71
Nsg64
(lp4830
g57
(g73
g59
NtRp4831
(dp4832
g62
(dp4833
sg71
g4827
sg64
(lp4834
g57
(g78
g59
NtRp4835
(dp4836
g62
(dp4837
sg71
g4831
sg64
(lp4838
g57
(g58
g59
NtRp4839
(dp4840
g62
(dp4841
g70
I4
ssg71
g4835
sg64
(lp4842
S'*'
asbasbasbasbasbasbasbag57
(g73
g59
NtRp4843
(dp4844
g62
(dp4845
sg71
g4370
sg64
(lp4846
g57
(g78
g59
NtRp4847
(dp4848
g62
(dp4849
g82
g83
ssg71
g4843
sg64
(lp4850
S'google_analytics_id'
p4851
asbag57
(g78
g59
NtRp4852
(dp4853
g62
(dp4854
g89
g90
ssg71
g4843
sg64
(lp4855
S':'
asbag57
(g78
g59
NtRp4856
(dp4857
g62
(dp4858
sg71
g4843
sg64
(lp4859
g57
(g58
g59
NtRp4860
(dp4861
g62
(dp4862
g70
I5
ssg71
g4856
sg64
(lp4863
S'None'
p4864
asbasbasbag57
(g73
g59
NtRp4865
(dp4866
g62
(dp4867
sg71
g4370
sg64
(lp4868
g57
(g78
g59
NtRp4869
(dp4870
g62
(dp4871
g82
g83
ssg71
g4865
sg64
(lp4872
S'headers'
p4873
asbag57
(g78
g59
NtRp4874
(dp4875
g62
(dp4876
g89
g90
ssg71
g4865
sg64
(lp4877
S':'
asbag57
(g78
g59
NtRp4878
(dp4879
g62
(dp4880
sg71
g4865
sg64
(lp4881
g57
(g58
g59
NtRp4882
(dp4883
g62
(dp4884
g70
I5
ssg71
g4878
sg64
(lp4885
g57
(g66
g59
NtRp4886
(dp4887
g62
(dp4888
g70
I4
ssg71
Nsg64
(lp4889
g57
(g73
g59
NtRp4890
(dp4891
g62
(dp4892
sg71
g4886
sg64
(lp4893
g57
(g78
g59
NtRp4894
(dp4895
g62
(dp4896
g82
g83
ssg71
g4890
sg64
(lp4897
S'X-Powered-By'
p4898
asbag57
(g78
g59
NtRp4899
(dp4900
g62
(dp4901
g89
g90
ssg71
g4890
sg64
(lp4902
S':'
asbag57
(g78
g59
NtRp4903
(dp4904
g62
(dp4905
sg71
g4890
sg64
(lp4906
g57
(g58
g59
NtRp4907
(dp4908
g62
(dp4909
g70
I4
ssg71
g4903
sg64
(lp4910
S'web2py'
p4911
asbasbasbasbasbasbasbag57
(g73
g59
NtRp4912
(dp4913
g62
(dp4914
sg71
g4370
sg64
(lp4915
g57
(g78
g59
NtRp4916
(dp4917
g62
(dp4918
g82
g83
ssg71
g4912
sg64
(lp4919
S'logo'
p4920
asbag57
(g78
g59
NtRp4921
(dp4922
g62
(dp4923
g89
g90
ssg71
g4912
sg64
(lp4924
S':'
asbag57
(g78
g59
NtRp4925
(dp4926
g62
(dp4927
sg71
g4912
sg64
(lp4928
g57
(g58
g59
NtRp4929
(dp4930
g62
(dp4931
g70
I5
ssg71
g4925
sg64
(lp4932
g57
(cgluon.html
A
p4933
g59
NtRp4934
(dp4935
g62
(dp4936
S'_class'
p4937
S'brand'
p4938
sS'_href'
p4939
S'http://www.web2py.com/'
p4940
ssg71
Nsg64
(lp4941
g57
(cgluon.html
B
p4942
g59
NtRp4943
(dp4944
g62
(dp4945
sg71
g4934
sg64
(lp4946
S'web'
p4947
ag57
(cgluon.html
SPAN
p4948
g59
NtRp4949
(dp4950
g62
(dp4951
sg71
g4943
sg64
(lp4952
I2
asbaS'py'
p4953
asbacgluon.html
XML_unpickle
p4954
(S's\r\x00\x00\x00&trade;&nbsp;'
tRp4955
asbasbasbasbag57
(g73
g59
NtRp4956
(dp4957
g62
(dp4958
sg71
g4370
sg64
(lp4959
g57
(g78
g59
NtRp4960
(dp4961
g62
(dp4962
g82
g83
ssg71
g4956
sg64
(lp4963
S'menu'
p4964
asbag57
(g78
g59
NtRp4965
(dp4966
g62
(dp4967
g89
g90
ssg71
g4956
sg64
(lp4968
S':'
asbag57
(g78
g59
NtRp4969
(dp4970
g62
(dp4971
sg71
g4956
sg64
(lp4972
g57
(g58
g59
NtRp4973
(dp4974
g62
(dp4975
g70
I5
ssg71
g4969
sg64
(lp4976
g57
(g66
g59
NtRp4977
(dp4978
g62
(dp4979
g70
I4
ssg71
Nsg64
(lp4980
g57
(g73
g59
NtRp4981
(dp4982
g62
(dp4983
sg71
g4977
sg64
(lp4984
g57
(g78
g59
NtRp4985
(dp4986
g62
(dp4987
sg71
g4981
sg64
(lp4988
g57
(g58
g59
NtRp4989
(dp4990
g62
(dp4991
g70
I4
ssg71
g4985
sg64
(lp4992
g57
(g66
g59
NtRp4993
(dp4994
g62
(dp4995
g70
I3
ssg71
Nsg64
(lp4996
g57
(g73
g59
NtRp4997
(dp4998
g62
(dp4999
sg71
g4993
sg64
(lp5000
g57
(g78
g59
NtRp5001
(dp5002
g62
(dp5003
sg71
g4997
sg64
(lp5004
g57
(g58
g59
NtRp5005
(dp5006
g62
(dp5007
g70
I3
ssg71
g5001
sg64
(lp5008
g57
(g4948
g59
NtRp5009
(dp5010
g62
(dp5011
g4937
S'highlighted'
p5012
ssg71
g57
(g4933
g59
NtRp5013
(dp5014
g62
(dp5015
g4939
S'/backimg/default/index'
p5016
ssg71
g57
(cgluon.html
LI
p5017
g59
NtRp5018
(dp5019
g62
(dp5020
g4937
S'web2py-menu-first'
p5021
ssg71
g57
(cgluon.html
UL
p5022
g59
NtRp5023
(dp5024
g62
(dp5025
S'mobile'
p5026
I00
sS'ul_class'
p5027
S'dropdown-menu'
p5028
sS'li_last'
p5029
S'web2py-menu-last'
p5030
sS'li_class'
p5031
S'dropdown'
p5032
sS'li_first'
p5033
g5021
sg4937
S'nav'
p5034
sS'li_active'
p5035
S'web2py-menu-active'
p5036
ssg71
Nsg64
(lp5037
g5018
ag57
(g5017
g59
NtRp5038
(dp5039
g62
(dp5040
sg71
g5023
sg64
(lp5041
g57
(g4933
g59
NtRp5042
(dp5043
g62
(dp5044
g4939
S'/backimg/default/view_msg'
p5045
ssg71
g5038
sg64
(lp5046
cgluon.languages
lazyT_unpickle
p5047
(S's\r\x00\x00\x00View Messages'
tRp5048
asbasbag57
(g5017
g59
NtRp5049
(dp5050
g62
(dp5051
sg71
g5023
sg64
(lp5052
g57
(g4933
g59
NtRp5053
(dp5054
g62
(dp5055
g4939
S'/backimg/default/edit_student'
p5056
ssg71
g5049
sg64
(lp5057
g5047
(S's\x0e\x00\x00\x00Update Profile'
tRp5058
asbasbag57
(g5017
g59
NtRp5059
(dp5060
g62
(dp5061
sg71
g5023
sg64
(lp5062
g57
(g4933
g59
NtRp5063
(dp5064
g62
(dp5065
g4939
S'/backimg/default/add_project'
p5066
ssg71
g5059
sg64
(lp5067
g5047
(S's\r\x00\x00\x00Add a project'
tRp5068
asbasbag57
(g5017
g59
NtRp5069
(dp5070
g62
(dp5071
sg71
g5023
sg64
(lp5072
g57
(g4933
g59
NtRp5073
(dp5074
g62
(dp5075
g4939
S'/backimg/default/pdf1'
p5076
ssg71
g5069
sg64
(lp5077
g5047
(S's\x08\x00\x00\x00Get PDF!'
tRp5078
asbasbag57
(g5017
g59
NtRp5079
(dp5080
g62
(dp5081
g4937
g5030
ssg71
g5023
sg64
(lp5082
g57
(g4933
g59
NtRp5083
(dp5084
g62
(dp5085
g4939
S'/backimg/default/add_achievement'
p5086
ssg71
g5079
sg64
(lp5087
g5047
(S's\x12\x00\x00\x00Add an Achievement'
tRp5088
asbasbasbsg64
(lp5089
g5013
asbsg64
(lp5090
g5009
asbsg64
(lp5091
S'Home'
p5092
asbasbasbasbag57
(g73
g59
NtRp5093
(dp5094
g62
(dp5095
sg71
g4993
sg64
(lp5096
g57
(g78
g59
NtRp5097
(dp5098
g62
(dp5099
sg71
g5093
sg64
(lp5100
g57
(g58
g59
NtRp5101
(dp5102
g62
(dp5103
g70
I3
ssg71
g5097
sg64
(lp5104
g100
asbasbasbag57
(g73
g59
NtRp5105
(dp5106
g62
(dp5107
sg71
g4993
sg64
(lp5108
g57
(g78
g59
NtRp5109
(dp5110
g62
(dp5111
sg71
g5105
sg64
(lp5112
g57
(g58
g59
NtRp5113
(dp5114
g62
(dp5115
g70
I3
ssg71
g5109
sg64
(lp5116
g5016
asbasbasbag57
(g73
g59
NtRp5117
(dp5118
g62
(dp5119
sg71
g4993
sg64
(lp5120
g57
(g78
g59
NtRp5121
(dp5122
g62
(dp5123
sg71
g5117
sg64
(lp5124
g57
(g58
g59
NtRp5125
(dp5126
g62
(dp5127
g70
I3
ssg71
g5121
sg64
(lp5128
g57
(g66
g59
NtRp5129
(dp5130
g62
(dp5131
g70
I2
ssg71
Nsg64
(lp5132
sbasbasbasbasbasbasbasbag57
(g73
g59
NtRp5133
(dp5134
g62
(dp5135
sg71
g4977
sg64
(lp5136
g57
(g78
g59
NtRp5137
(dp5138
g62
(dp5139
sg71
g5133
sg64
(lp5140
g57
(g58
g59
NtRp5141
(dp5142
g62
(dp5143
g70
I4
ssg71
g5137
sg64
(lp5144
g57
(g66
g59
NtRp5145
(dp5146
g62
(dp5147
g70
I3
ssg71
Nsg64
(lp5148
g57
(g73
g59
NtRp5149
(dp5150
g62
(dp5151
sg71
g5145
sg64
(lp5152
g57
(g78
g59
NtRp5153
(dp5154
g62
(dp5155
sg71
g5149
sg64
(lp5156
g57
(g58
g59
NtRp5157
(dp5158
g62
(dp5159
g70
I3
ssg71
g5153
sg64
(lp5160
g5048
asbasbasbag57
(g73
g59
NtRp5161
(dp5162
g62
(dp5163
sg71
g5145
sg64
(lp5164
g57
(g78
g59
NtRp5165
(dp5166
g62
(dp5167
sg71
g5161
sg64
(lp5168
g57
(g58
g59
NtRp5169
(dp5170
g62
(dp5171
g70
I3
ssg71
g5165
sg64
(lp5172
g100
asbasbasbag57
(g73
g59
NtRp5173
(dp5174
g62
(dp5175
sg71
g5145
sg64
(lp5176
g57
(g78
g59
NtRp5177
(dp5178
g62
(dp5179
sg71
g5173
sg64
(lp5180
g57
(g58
g59
NtRp5181
(dp5182
g62
(dp5183
g70
I3
ssg71
g5177
sg64
(lp5184
g5045
asbasbasbasbasbasbasbag57
(g73
g59
NtRp5185
(dp5186
g62
(dp5187
sg71
g4977
sg64
(lp5188
g57
(g78
g59
NtRp5189
(dp5190
g62
(dp5191
sg71
g5185
sg64
(lp5192
g57
(g58
g59
NtRp5193
(dp5194
g62
(dp5195
g70
I4
ssg71
g5189
sg64
(lp5196
g57
(g66
g59
NtRp5197
(dp5198
g62
(dp5199
g70
I3
ssg71
Nsg64
(lp5200
g57
(g73
g59
NtRp5201
(dp5202
g62
(dp5203
sg71
g5197
sg64
(lp5204
g57
(g78
g59
NtRp5205
(dp5206
g62
(dp5207
sg71
g5201
sg64
(lp5208
g57
(g58
g59
NtRp5209
(dp5210
g62
(dp5211
g70
I3
ssg71
g5205
sg64
(lp5212
g5058
asbasbasbag57
(g73
g59
NtRp5213
(dp5214
g62
(dp5215
sg71
g5197
sg64
(lp5216
g57
(g78
g59
NtRp5217
(dp5218
g62
(dp5219
sg71
g5213
sg64
(lp5220
g57
(g58
g59
NtRp5221
(dp5222
g62
(dp5223
g70
I3
ssg71
g5217
sg64
(lp5224
g100
asbasbasbag57
(g73
g59
NtRp5225
(dp5226
g62
(dp5227
sg71
g5197
sg64
(lp5228
g57
(g78
g59
NtRp5229
(dp5230
g62
(dp5231
sg71
g5225
sg64
(lp5232
g57
(g58
g59
NtRp5233
(dp5234
g62
(dp5235
g70
I3
ssg71
g5229
sg64
(lp5236
g5056
asbasbasbasbasbasbasbag57
(g73
g59
NtRp5237
(dp5238
g62
(dp5239
sg71
g4977
sg64
(lp5240
g57
(g78
g59
NtRp5241
(dp5242
g62
(dp5243
sg71
g5237
sg64
(lp5244
g57
(g58
g59
NtRp5245
(dp5246
g62
(dp5247
g70
I4
ssg71
g5241
sg64
(lp5248
g57
(g66
g59
NtRp5249
(dp5250
g62
(dp5251
g70
I3
ssg71
Nsg64
(lp5252
g57
(g73
g59
NtRp5253
(dp5254
g62
(dp5255
sg71
g5249
sg64
(lp5256
g57
(g78
g59
NtRp5257
(dp5258
g62
(dp5259
sg71
g5253
sg64
(lp5260
g57
(g58
g59
NtRp5261
(dp5262
g62
(dp5263
g70
I3
ssg71
g5257
sg64
(lp5264
g5068
asbasbasbag57
(g73
g59
NtRp5265
(dp5266
g62
(dp5267
sg71
g5249
sg64
(lp5268
g57
(g78
g59
NtRp5269
(dp5270
g62
(dp5271
sg71
g5265
sg64
(lp5272
g57
(g58
g59
NtRp5273
(dp5274
g62
(dp5275
g70
I3
ssg71
g5269
sg64
(lp5276
g100
asbasbasbag57
(g73
g59
NtRp5277
(dp5278
g62
(dp5279
sg71
g5249
sg64
(lp5280
g57
(g78
g59
NtRp5281
(dp5282
g62
(dp5283
sg71
g5277
sg64
(lp5284
g57
(g58
g59
NtRp5285
(dp5286
g62
(dp5287
g70
I3
ssg71
g5281
sg64
(lp5288
g5066
asbasbasbasbasbasbasbag57
(g73
g59
NtRp5289
(dp5290
g62
(dp5291
sg71
g4977
sg64
(lp5292
g57
(g78
g59
NtRp5293
(dp5294
g62
(dp5295
sg71
g5289
sg64
(lp5296
g57
(g58
g59
NtRp5297
(dp5298
g62
(dp5299
g70
I4
ssg71
g5293
sg64
(lp5300
g57
(g66
g59
NtRp5301
(dp5302
g62
(dp5303
g70
I3
ssg71
Nsg64
(lp5304
g57
(g73
g59
NtRp5305
(dp5306
g62
(dp5307
sg71
g5301
sg64
(lp5308
g57
(g78
g59
NtRp5309
(dp5310
g62
(dp5311
sg71
g5305
sg64
(lp5312
g57
(g58
g59
NtRp5313
(dp5314
g62
(dp5315
g70
I3
ssg71
g5309
sg64
(lp5316
g5078
asbasbasbag57
(g73
g59
NtRp5317
(dp5318
g62
(dp5319
sg71
g5301
sg64
(lp5320
g57
(g78
g59
NtRp5321
(dp5322
g62
(dp5323
sg71
g5317
sg64
(lp5324
g57
(g58
g59
NtRp5325
(dp5326
g62
(dp5327
g70
I3
ssg71
g5321
sg64
(lp5328
g100
asbasbasbag57
(g73
g59
NtRp5329
(dp5330
g62
(dp5331
sg71
g5301
sg64
(lp5332
g57
(g78
g59
NtRp5333
(dp5334
g62
(dp5335
sg71
g5329
sg64
(lp5336
g57
(g58
g59
NtRp5337
(dp5338
g62
(dp5339
g70
I3
ssg71
g5333
sg64
(lp5340
g5076
asbasbasbasbasbasbasbag57
(g73
g59
NtRp5341
(dp5342
g62
(dp5343
sg71
g4977
sg64
(lp5344
g57
(g78
g59
NtRp5345
(dp5346
g62
(dp5347
sg71
g5341
sg64
(lp5348
g57
(g58
g59
NtRp5349
(dp5350
g62
(dp5351
g70
I4
ssg71
g5345
sg64
(lp5352
g57
(g66
g59
NtRp5353
(dp5354
g62
(dp5355
g70
I3
ssg71
Nsg64
(lp5356
g57
(g73
g59
NtRp5357
(dp5358
g62
(dp5359
sg71
g5353
sg64
(lp5360
g57
(g78
g59
NtRp5361
(dp5362
g62
(dp5363
sg71
g5357
sg64
(lp5364
g57
(g58
g59
NtRp5365
(dp5366
g62
(dp5367
g70
I3
ssg71
g5361
sg64
(lp5368
g5088
asbasbasbag57
(g73
g59
NtRp5369
(dp5370
g62
(dp5371
sg71
g5353
sg64
(lp5372
g57
(g78
g59
NtRp5373
(dp5374
g62
(dp5375
sg71
g5369
sg64
(lp5376
g57
(g58
g59
NtRp5377
(dp5378
g62
(dp5379
g70
I3
ssg71
g5373
sg64
(lp5380
g100
asbasbasbag57
(g73
g59
NtRp5381
(dp5382
g62
(dp5383
sg71
g5353
sg64
(lp5384
g57
(g78
g59
NtRp5385
(dp5386
g62
(dp5387
sg71
g5381
sg64
(lp5388
g57
(g58
g59
NtRp5389
(dp5390
g62
(dp5391
g70
I3
ssg71
g5385
sg64
(lp5392
g5086
asbasbasbasbasbasbasbasbasbasbasbag57
(g73
g59
NtRp5393
(dp5394
g62
(dp5395
sg71
g4370
sg64
(lp5396
g57
(g78
g59
NtRp5397
(dp5398
g62
(dp5399
g82
g83
ssg71
g5393
sg64
(lp5400
S'meta'
p5401
asbag57
(g78
g59
NtRp5402
(dp5403
g62
(dp5404
g89
g90
ssg71
g5393
sg64
(lp5405
S':'
asbag57
(g78
g59
NtRp5406
(dp5407
g62
(dp5408
sg71
g5393
sg64
(lp5409
g57
(g58
g59
NtRp5410
(dp5411
g62
(dp5412
g70
I5
ssg71
g5406
sg64
(lp5413
g57
(g66
g59
NtRp5414
(dp5415
g62
(dp5416
g70
I4
ssg71
Nsg64
(lp5417
g57
(g73
g59
NtRp5418
(dp5419
g62
(dp5420
sg71
g5414
sg64
(lp5421
g57
(g78
g59
NtRp5422
(dp5423
g62
(dp5424
g82
g83
ssg71
g5418
sg64
(lp5425
S'author'
p5426
asbag57
(g78
g59
NtRp5427
(dp5428
g62
(dp5429
g89
g90
ssg71
g5418
sg64
(lp5430
S':'
asbag57
(g78
g59
NtRp5431
(dp5432
g62
(dp5433
sg71
g5418
sg64
(lp5434
g57
(g58
g59
NtRp5435
(dp5436
g62
(dp5437
g70
I4
ssg71
g5431
sg64
(lp5438
S'Your Name <you@example.com>'
p5439
asbasbasbag57
(g73
g59
NtRp5440
(dp5441
g62
(dp5442
sg71
g5414
sg64
(lp5443
g57
(g78
g59
NtRp5444
(dp5445
g62
(dp5446
g82
g83
ssg71
g5440
sg64
(lp5447
S'description'
p5448
asbag57
(g78
g59
NtRp5449
(dp5450
g62
(dp5451
g89
g90
ssg71
g5440
sg64
(lp5452
S':'
asbag57
(g78
g59
NtRp5453
(dp5454
g62
(dp5455
sg71
g5440
sg64
(lp5456
g57
(g58
g59
NtRp5457
(dp5458
g62
(dp5459
g70
I4
ssg71
g5453
sg64
(lp5460
S'a cool new app'
p5461
asbasbasbag57
(g73
g59
NtRp5462
(dp5463
g62
(dp5464
sg71
g5414
sg64
(lp5465
g57
(g78
g59
NtRp5466
(dp5467
g62
(dp5468
g82
g83
ssg71
g5462
sg64
(lp5469
S'generator'
p5470
asbag57
(g78
g59
NtRp5471
(dp5472
g62
(dp5473
g89
g90
ssg71
g5462
sg64
(lp5474
S':'
asbag57
(g78
g59
NtRp5475
(dp5476
g62
(dp5477
sg71
g5462
sg64
(lp5478
g57
(g58
g59
NtRp5479
(dp5480
g62
(dp5481
g70
I4
ssg71
g5475
sg64
(lp5482
S'Web2py Web Framework'
p5483
asbasbasbag57
(g73
g59
NtRp5484
(dp5485
g62
(dp5486
sg71
g5414
sg64
(lp5487
g57
(g78
g59
NtRp5488
(dp5489
g62
(dp5490
g82
g83
ssg71
g5484
sg64
(lp5491
S'keywords'
p5492
asbag57
(g78
g59
NtRp5493
(dp5494
g62
(dp5495
g89
g90
ssg71
g5484
sg64
(lp5496
S':'
asbag57
(g78
g59
NtRp5497
(dp5498
g62
(dp5499
sg71
g5484
sg64
(lp5500
g57
(g58
g59
NtRp5501
(dp5502
g62
(dp5503
g70
I4
ssg71
g5497
sg64
(lp5504
S'web2py, python, framework'
p5505
asbasbasbasbasbasbasbag57
(g73
g59
NtRp5506
(dp5507
g62
(dp5508
sg71
g4370
sg64
(lp5509
g57
(g78
g59
NtRp5510
(dp5511
g62
(dp5512
g82
g83
ssg71
g5506
sg64
(lp5513
S'models_to_run'
p5514
asbag57
(g78
g59
NtRp5515
(dp5516
g62
(dp5517
g89
g90
ssg71
g5506
sg64
(lp5518
S':'
asbag57
(g78
g59
NtRp5519
(dp5520
g62
(dp5521
sg71
g5506
sg64
(lp5522
g57
(g58
g59
NtRp5523
(dp5524
g62
(dp5525
g70
I5
ssg71
g5519
sg64
(lp5526
g57
(g66
g59
NtRp5527
(dp5528
g62
(dp5529
g70
I4
ssg71
Nsg64
(lp5530
g57
(g73
g59
NtRp5531
(dp5532
g62
(dp5533
sg71
g5527
sg64
(lp5534
g57
(g78
g59
NtRp5535
(dp5536
g62
(dp5537
sg71
g5531
sg64
(lp5538
g57
(g58
g59
NtRp5539
(dp5540
g62
(dp5541
g70
I4
ssg71
g5535
sg64
(lp5542
S'^\\w+\\.py$'
p5543
asbasbasbag57
(g73
g59
NtRp5544
(dp5545
g62
(dp5546
sg71
g5527
sg64
(lp5547
g57
(g78
g59
NtRp5548
(dp5549
g62
(dp5550
sg71
g5544
sg64
(lp5551
g57
(g58
g59
NtRp5552
(dp5553
g62
(dp5554
g70
I4
ssg71
g5548
sg64
(lp5555
S'^default/\\w+\\.py$'
p5556
asbasbasbag57
(g73
g59
NtRp5557
(dp5558
g62
(dp5559
sg71
g5527
sg64
(lp5560
g57
(g78
g59
NtRp5561
(dp5562
g62
(dp5563
sg71
g5557
sg64
(lp5564
g57
(g58
g59
NtRp5565
(dp5566
g62
(dp5567
g70
I4
ssg71
g5561
sg64
(lp5568
S'^default/view_msg/\\w+\\.py$'
p5569
asbasbasbasbasbasbasbag57
(g73
g59
NtRp5570
(dp5571
g62
(dp5572
sg71
g4370
sg64
(lp5573
g57
(g78
g59
NtRp5574
(dp5575
g62
(dp5576
g82
g83
ssg71
g5570
sg64
(lp5577
S'postprocessing'
p5578
asbag57
(g78
g59
NtRp5579
(dp5580
g62
(dp5581
g89
g90
ssg71
g5570
sg64
(lp5582
S':'
asbag57
(g78
g59
NtRp5583
(dp5584
g62
(dp5585
sg71
g5570
sg64
(lp5586
g57
(g58
g59
NtRp5587
(dp5588
g62
(dp5589
g70
I5
ssg71
g5583
sg64
(lp5590
g57
(g66
g59
NtRp5591
(dp5592
g62
(dp5593
g70
I4
ssg71
Nsg64
(lp5594
sbasbasbasbag57
(g73
g59
NtRp5595
(dp5596
g62
(dp5597
sg71
g4370
sg64
(lp5598
g57
(g78
g59
NtRp5599
(dp5600
g62
(dp5601
g82
g83
ssg71
g5595
sg64
(lp5602
S'session_cookie_expires'
p5603
asbag57
(g78
g59
NtRp5604
(dp5605
g62
(dp5606
g89
g90
ssg71
g5595
sg64
(lp5607
S':'
asbag57
(g78
g59
NtRp5608
(dp5609
g62
(dp5610
sg71
g5595
sg64
(lp5611
g57
(g58
g59
NtRp5612
(dp5613
g62
(dp5614
g70
I5
ssg71
g5608
sg64
(lp5615
S'None'
p5616
asbasbasbag57
(g73
g59
NtRp5617
(dp5618
g62
(dp5619
sg71
g4370
sg64
(lp5620
g57
(g78
g59
NtRp5621
(dp5622
g62
(dp5623
g82
g83
ssg71
g5617
sg64
(lp5624
S'session_data_name'
p5625
asbag57
(g78
g59
NtRp5626
(dp5627
g62
(dp5628
g89
g90
ssg71
g5617
sg64
(lp5629
S':'
asbag57
(g78
g59
NtRp5630
(dp5631
g62
(dp5632
sg71
g5617
sg64
(lp5633
g57
(g58
g59
NtRp5634
(dp5635
g62
(dp5636
g70
I5
ssg71
g5630
sg64
(lp5637
S'session_data_backimg'
p5638
asbasbasbag57
(g73
g59
NtRp5639
(dp5640
g62
(dp5641
sg71
g4370
sg64
(lp5642
g57
(g78
g59
NtRp5643
(dp5644
g62
(dp5645
g82
g83
ssg71
g5639
sg64
(lp5646
S'session_file'
p5647
asbag57
(g78
g59
NtRp5648
(dp5649
g62
(dp5650
g89
g90
ssg71
g5639
sg64
(lp5651
S':'
asbag57
(g78
g59
NtRp5652
(dp5653
g62
(dp5654
sg71
g5639
sg64
(lp5655
g57
(g58
g59
NtRp5656
(dp5657
g62
(dp5658
g70
I5
ssg71
g5652
sg64
(lp5659
S"<open file '/home/nishant/Acaedmics/Sem-2/ITWS-2/web2py/applications/backimg/sessions/127.0.0.1-510de37e-632d-4f80-b1c3-d8a3bf298387', mode 'rb+' at 0xb4fad5f8>"
p5660
asbasbasbag57
(g73
g59
NtRp5661
(dp5662
g62
(dp5663
sg71
g4370
sg64
(lp5664
g57
(g78
g59
NtRp5665
(dp5666
g62
(dp5667
g82
g83
ssg71
g5661
sg64
(lp5668
S'session_filename'
p5669
asbag57
(g78
g59
NtRp5670
(dp5671
g62
(dp5672
g89
g90
ssg71
g5661
sg64
(lp5673
S':'
asbag57
(g78
g59
NtRp5674
(dp5675
g62
(dp5676
sg71
g5661
sg64
(lp5677
g57
(g58
g59
NtRp5678
(dp5679
g62
(dp5680
g70
I5
ssg71
g5674
sg64
(lp5681
S'/home/nishant/Acaedmics/Sem-2/ITWS-2/web2py/applications/backimg/sessions/127.0.0.1-510de37e-632d-4f80-b1c3-d8a3bf298387'
p5682
asbasbasbag57
(g73
g59
NtRp5683
(dp5684
g62
(dp5685
sg71
g4370
sg64
(lp5686
g57
(g78
g59
NtRp5687
(dp5688
g62
(dp5689
g82
g83
ssg71
g5683
sg64
(lp5690
S'session_id'
p5691
asbag57
(g78
g59
NtRp5692
(dp5693
g62
(dp5694
g89
g90
ssg71
g5683
sg64
(lp5695
S':'
asbag57
(g78
g59
NtRp5696
(dp5697
g62
(dp5698
sg71
g5683
sg64
(lp5699
g57
(g58
g59
NtRp5700
(dp5701
g62
(dp5702
g70
I5
ssg71
g5696
sg64
(lp5703
g475
asbasbasbag57
(g73
g59
NtRp5704
(dp5705
g62
(dp5706
sg71
g4370
sg64
(lp5707
g57
(g78
g59
NtRp5708
(dp5709
g62
(dp5710
g82
g83
ssg71
g5704
sg64
(lp5711
S'session_id_name'
p5712
asbag57
(g78
g59
NtRp5713
(dp5714
g62
(dp5715
g89
g90
ssg71
g5704
sg64
(lp5716
S':'
asbag57
(g78
g59
NtRp5717
(dp5718
g62
(dp5719
sg71
g5704
sg64
(lp5720
g57
(g58
g59
NtRp5721
(dp5722
g62
(dp5723
g70
I5
ssg71
g5717
sg64
(lp5724
g4427
asbasbasbag57
(g73
g59
NtRp5725
(dp5726
g62
(dp5727
sg71
g4370
sg64
(lp5728
g57
(g78
g59
NtRp5729
(dp5730
g62
(dp5731
g82
g83
ssg71
g5725
sg64
(lp5732
S'session_locked'
p5733
asbag57
(g78
g59
NtRp5734
(dp5735
g62
(dp5736
g89
g90
ssg71
g5725
sg64
(lp5737
S':'
asbag57
(g78
g59
NtRp5738
(dp5739
g62
(dp5740
sg71
g5725
sg64
(lp5741
g57
(g58
g59
NtRp5742
(dp5743
g62
(dp5744
g70
I5
ssg71
g5738
sg64
(lp5745
g1729
asbasbasbag57
(g73
g59
NtRp5746
(dp5747
g62
(dp5748
sg71
g4370
sg64
(lp5749
g57
(g78
g59
NtRp5750
(dp5751
g62
(dp5752
g82
g83
ssg71
g5746
sg64
(lp5753
S'session_new'
p5754
asbag57
(g78
g59
NtRp5755
(dp5756
g62
(dp5757
g89
g90
ssg71
g5746
sg64
(lp5758
S':'
asbag57
(g78
g59
NtRp5759
(dp5760
g62
(dp5761
sg71
g5746
sg64
(lp5762
g57
(g58
g59
NtRp5763
(dp5764
g62
(dp5765
g70
I5
ssg71
g5759
sg64
(lp5766
g100
asbasbasbag57
(g73
g59
NtRp5767
(dp5768
g62
(dp5769
sg71
g4370
sg64
(lp5770
g57
(g78
g59
NtRp5771
(dp5772
g62
(dp5773
g82
g83
ssg71
g5767
sg64
(lp5774
S'session_storage_type'
p5775
asbag57
(g78
g59
NtRp5776
(dp5777
g62
(dp5778
g89
g90
ssg71
g5767
sg64
(lp5779
S':'
asbag57
(g78
g59
NtRp5780
(dp5781
g62
(dp5782
sg71
g5767
sg64
(lp5783
g57
(g58
g59
NtRp5784
(dp5785
g62
(dp5786
g70
I5
ssg71
g5780
sg64
(lp5787
g3944
asbasbasbag57
(g73
g59
NtRp5788
(dp5789
g62
(dp5790
sg71
g4370
sg64
(lp5791
g57
(g78
g59
NtRp5792
(dp5793
g62
(dp5794
g82
g83
ssg71
g5788
sg64
(lp5795
S'status'
p5796
asbag57
(g78
g59
NtRp5797
(dp5798
g62
(dp5799
g89
g90
ssg71
g5788
sg64
(lp5800
S':'
asbag57
(g78
g59
NtRp5801
(dp5802
g62
(dp5803
sg71
g5788
sg64
(lp5804
g57
(g58
g59
NtRp5805
(dp5806
g62
(dp5807
g70
I5
ssg71
g5801
sg64
(lp5808
S'200'
p5809
asbasbasbag57
(g73
g59
NtRp5810
(dp5811
g62
(dp5812
sg71
g4370
sg64
(lp5813
g57
(g78
g59
NtRp5814
(dp5815
g62
(dp5816
g82
g83
ssg71
g5810
sg64
(lp5817
S'title'
p5818
asbag57
(g78
g59
NtRp5819
(dp5820
g62
(dp5821
g89
g90
ssg71
g5810
sg64
(lp5822
S':'
asbag57
(g78
g59
NtRp5823
(dp5824
g62
(dp5825
sg71
g5810
sg64
(lp5826
g57
(g58
g59
NtRp5827
(dp5828
g62
(dp5829
g70
I5
ssg71
g5823
sg64
(lp5830
S'Resume Builder'
p5831
asbasbasbag57
(g73
g59
NtRp5832
(dp5833
g62
(dp5834
sg71
g4370
sg64
(lp5835
g57
(g78
g59
NtRp5836
(dp5837
g62
(dp5838
g82
g83
ssg71
g5832
sg64
(lp5839
S'view'
p5840
asbag57
(g78
g59
NtRp5841
(dp5842
g62
(dp5843
g89
g90
ssg71
g5832
sg64
(lp5844
S':'
asbag57
(g78
g59
NtRp5845
(dp5846
g62
(dp5847
sg71
g5832
sg64
(lp5848
g57
(g58
g59
NtRp5849
(dp5850
g62
(dp5851
g70
I5
ssg71
g5845
sg64
(lp5852
S'default/view_msg.html'
p5853
asbasbasbasbasbsS'locals'
p5854
(dp5855
S'Service'
p5856
S"<class 'gluon.tools.Service'>"
p5857
sS'OBJECT'
p5858
S"<class 'gluon.html.OBJECT'>"
p5859
sS'SQLDB'
p5860
S"<class 'gluon.dal.DAL'>"
p5861
sg3997
S"<Storage {'_formkey[login]': '174d7dbd-b6d9-43e7... '', 'id': 1}>, 'user_groups': {1: 'Student'}}>}>"
p5862
sS'LINK'
p5863
S"<class 'gluon.html.LINK'>"
p5864
sS'BR'
p5865
S"<class 'gluon.html.BR'>"
p5866
sS'local_import'
p5867
S'<function <lambda>>'
p5868
sS'OPTGROUP'
p5869
S"<class 'gluon.html.OPTGROUP'>"
p5870
sS'__package__'
p5871
S'None'
p5872
sS'PRE'
p5873
S"<class 'gluon.html.PRE'>"
p5874
sS'IS_INT_IN_RANGE'
p5875
S"<class 'gluon.validators.IS_INT_IN_RANGE'>"
p5876
sS'left_sidebar_enabled'
p5877
g100
sS'IS_LOWER'
p5878
S"<class 'gluon.validators.IS_LOWER'>"
p5879
sS'IS_STRONG'
p5880
S"<class 'gluon.validators.IS_STRONG'>"
p5881
sS'cache'
p5882
S'<gluon.cache.Cache object>'
p5883
sS'IS_IN_DB'
p5884
S"<class 'gluon.validators.IS_IN_DB'>"
p5885
sS'TAG'
p5886
S'<gluon.html.__TAG__ object>'
p5887
sS'SQLField'
p5888
S"<class 'gluon.dal.Field'>"
p5889
sS'mail'
p5890
S'<gluon.tools.Mail object>'
p5891
sS'BODY'
p5892
S"<class 'gluon.html.BODY'>"
p5893
sS'IS_DATE_IN_RANGE'
p5894
S"<class 'gluon.validators.IS_DATE_IN_RANGE'>"
p5895
sS'IFRAME'
p5896
S"<class 'gluon.html.IFRAME'>"
p5897
sS'URL'
p5898
S'<function URL>'
p5899
sS'__file__'
p5900
S"'/home/nishant/Acaedmics/Sem-2/ITWS-2/web2py/applications/backimg/views/default/view_msg.html'"
p5901
sS'db'
p5902
S'<DAL uri="sqlite://storage.sqlite">'
p5903
sS'auth'
p5904
S'<gluon.tools.Auth object>'
p5905
sS'P'
S"<class 'gluon.html.P'>"
p5906
sS'TFOOT'
p5907
S"<class 'gluon.html.TFOOT'>"
p5908
sS'XHTML'
p5909
S"<class 'gluon.html.XHTML'>"
p5910
sS'ON'
p5911
g1729
sS'OL'
p5912
S"<class 'gluon.html.OL'>"
p5913
sS'TEXTAREA'
p5914
S"<class 'gluon.html.TEXTAREA'>"
p5915
sS'MENU'
p5916
S"<class 'gluon.html.MENU'>"
p5917
sS'IS_IMAGE'
p5918
S"<class 'gluon.validators.IS_IMAGE'>"
p5919
sS'EM'
p5920
S"<class 'gluon.html.EM'>"
p5921
sS'CODE'
p5922
S"<class 'gluon.html.CODE'>"
p5923
sS'HTTP'
p5924
S"<class 'gluon.http.HTTP'>"
p5925
sS'HR'
p5926
S"<class 'gluon.html.HR'>"
p5927
sS'IS_DATETIME'
p5928
S"<class 'gluon.validators.IS_DATETIME'>"
p5929
sS'STYLE'
p5930
S"<class 'gluon.html.STYLE'>"
p5931
sS'LABEL'
p5932
S"<class 'gluon.html.LABEL'>"
p5933
sS'CLEANUP'
p5934
S"<class 'gluon.validators.CLEANUP'>"
p5935
sS'plugins'
p5936
S'<gluon.tools.PluginManager object>'
p5937
sS'SELECT'
p5938
S"<class 'gluon.html.SELECT'>"
p5939
sS'use_janrain'
p5940
S'<function use_janrain>'
p5941
sS'CENTER'
p5942
S"<class 'gluon.html.CENTER'>"
p5943
sS'prettydate'
p5944
S'<function prettydate>'
p5945
sS'Crud'
p5946
S"<class 'gluon.tools.Crud'>"
p5947
sS'Auth'
p5948
S"<class 'gluon.tools.Auth'>"
p5949
sS'DEVELOPMENT_MENU'
p5950
g1729
sS'__builtins__'
p5951
S"{'ArithmeticError': <type 'exceptions.ArithmeticError'>, 'AssertionError': <type 'exceptions.AssertionError'>, 'AttributeError': <type 'exceptions.AttributeError'>, 'BaseException': <type 'exceptions.BaseException'>, 'BufferError': <type 'exceptions.BufferError'>, 'BytesWarning': <type 'exceptions.BytesWarning'>, 'DeprecationWarning': <type 'exceptions.DeprecationWarning'>, 'EOFError': <type 'exceptions.EOFError'>, 'Ellipsis': Ellipsis, 'EnvironmentError': <type 'exceptions.EnvironmentError'>, ...}"
p5952
sS'HTML'
p5953
S"<class 'gluon.html.HTML'>"
p5954
sS'SQLFORM'
p5955
S"<class 'gluon.sqlhtml.SQLFORM'>"
p5956
sS'LOAD'
p5957
S'<function LOAD>'
p5958
sS'redirect'
p5959
S'<function redirect>'
p5960
sS'FIELDSET'
p5961
S"<class 'gluon.html.FIELDSET'>"
p5962
sS'IS_EQUAL_TO'
p5963
S"<class 'gluon.validators.IS_EQUAL_TO'>"
p5964
sS'embed64'
p5965
S'<function embed64>'
p5966
sS'IS_LIST_OF'
p5967
S"<class 'gluon.validators.IS_LIST_OF'>"
p5968
sS'INPUT'
p5969
S"<class 'gluon.html.INPUT'>"
p5970
sS'EMBED'
p5971
S"<class 'gluon.html.EMBED'>"
p5972
sS'_'
S'<function _>'
p5973
sS'H2'
p5974
S"<class 'gluon.html.H2'>"
p5975
sS'H3'
p5976
S"<class 'gluon.html.H3'>"
p5977
sS'BUTTON'
p5978
S"<class 'gluon.html.BUTTON'>"
p5979
sS'H1'
p5980
S"<class 'gluon.html.H1'>"
p5981
sS'H6'
p5982
S"<class 'gluon.html.H6'>"
p5983
sS'H4'
p5984
S"<class 'gluon.html.H4'>"
p5985
sS'H5'
p5986
S"<class 'gluon.html.H5'>"
p5987
sS'UL'
p5988
S"<class 'gluon.html.UL'>"
p5989
sS'IS_UPPER'
p5990
S"<class 'gluon.validators.IS_UPPER'>"
p5991
sS'xmlescape'
p5992
S'<function xmlescape>'
p5993
sS'IS_TIME'
p5994
S"<class 'gluon.validators.IS_TIME'>"
p5995
sS'OPTION'
p5996
S"<class 'gluon.html.OPTION'>"
p5997
sS'TITLE'
p5998
S"<class 'gluon.html.TITLE'>"
p5999
sS'CRYPT'
p6000
S"<class 'gluon.validators.CRYPT'>"
p6001
sS'IS_EMPTY_OR'
p6002
S"<class 'gluon.validators.IS_EMPTY_OR'>"
p6003
sS'MARKMIN'
p6004
S"<class 'gluon.html.MARKMIN'>"
p6005
sS'__name__'
p6006
S"'__restricted__'"
p6007
sS'STRONG'
p6008
S"<class 'gluon.html.STRONG'>"
p6009
sS'COL'
p6010
S"<class 'gluon.html.COL'>"
p6011
sS'service'
p6012
S'<gluon.tools.Service object>'
p6013
sS'SCRIPT'
p6014
S"<class 'gluon.html.SCRIPT'>"
p6015
sS'is_mobile'
p6016
g100
sS'TABLE'
p6017
S"<class 'gluon.html.TABLE'>"
p6018
sS'IS_IPV4'
p6019
S"<class 'gluon.validators.IS_IPV4'>"
p6020
sS'IS_LENGTH'
p6021
S"<class 'gluon.validators.IS_LENGTH'>"
p6022
sS'XML'
p6023
S"<class 'gluon.html.XML'>"
p6024
sS'B'
S"<class 'gluon.html.B'>"
p6025
sS'IMG'
p6026
S"<class 'gluon.html.IMG'>"
p6027
sS'SQLTABLE'
p6028
S"<class 'gluon.sqlhtml.SQLTABLE'>"
p6029
sS'IS_MATCH'
p6030
S"<class 'gluon.validators.IS_MATCH'>"
p6031
sS'IS_ALPHANUMERIC'
p6032
S"<class 'gluon.validators.IS_ALPHANUMERIC'>"
p6033
sS'SPAN'
p6034
S"<class 'gluon.html.SPAN'>"
p6035
sS'IS_JSON'
p6036
S"<class 'gluon.validators.IS_JSON'>"
p6037
sS'IS_SLUG'
p6038
S"<class 'gluon.validators.IS_SLUG'>"
p6039
sS'r'
S'<Rows (1)>'
p6040
sS'META'
p6041
S"<class 'gluon.html.META'>"
p6042
sS'IS_DATE'
p6043
S"<class 'gluon.validators.IS_DATE'>"
p6044
sS'IS_EMAIL'
p6045
S"<class 'gluon.validators.IS_EMAIL'>"
p6046
sS'IS_NOT_EMPTY'
p6047
S"<class 'gluon.validators.IS_NOT_EMPTY'>"
p6048
sS'IS_FLOAT_IN_RANGE'
p6049
S"<class 'gluon.validators.IS_FLOAT_IN_RANGE'>"
p6050
sS'BEAUTIFY'
p6051
S"<class 'gluon.html.BEAUTIFY'>"
p6052
sS'TBODY'
p6053
S"<class 'gluon.html.TBODY'>"
p6054
sS'dict_companies'
p6055
S"{'Google California': [<Row {'msg': 'Howdy pardner?', 'senderid': None, 'sender': 'Google California', 'sub': 'Hello'}>]}"
p6056
sS'CAT'
p6057
S"<class 'gluon.html.CAT'>"
p6058
sS'Field'
p6059
S"<class 'gluon.dal.Field'>"
p6060
sS'middle_columns'
p6061
S"'span12'"
p6062
sS'DIV'
p6063
S"<class 'gluon.html.DIV'>"
p6064
sS'LEGEND'
p6065
S"<class 'gluon.html.LEGEND'>"
p6066
sS'COLGROUP'
p6067
S"<class 'gluon.html.COLGROUP'>"
p6068
sS'DAL'
p6069
S"<class 'gluon.dal.DAL'>"
p6070
sS'TT'
p6071
S"<class 'gluon.html.TT'>"
p6072
sS'TR'
p6073
S"<class 'gluon.html.TR'>"
p6074
sS'LI'
p6075
S"<class 'gluon.html.LI'>"
p6076
sS'right_sidebar_enabled'
p6077
g100
sS'TH'
p6078
S"<class 'gluon.html.TH'>"
p6079
sS'TD'
p6080
S"<class 'gluon.html.TD'>"
p6081
sS'PluginManager'
p6082
S"<class 'gluon.tools.PluginManager'>"
p6083
sS'IS_URL'
p6084
S"<class 'gluon.validators.IS_URL'>"
p6085
sS'A'
S"<class 'gluon.html.A'>"
p6086
sS'HEAD'
p6087
S"<class 'gluon.html.HEAD'>"
p6088
sS'IS_DATETIME_IN_RANGE'
p6089
S"<class 'gluon.validators.IS_DATETIME_IN_RANGE'>"
p6090
sS'FORM'
p6091
S"<class 'gluon.html.FORM'>"
p6092
sS'I'
S"<class 'gluon.html.I'>"
p6093
sS'crud'
p6094
S'<gluon.tools.Crud object>'
p6095
sS'IS_NOT_IN_DB'
p6096
S"<class 'gluon.validators.IS_NOT_IN_DB'>"
p6097
sg4365
S"<Storage {'body': <cStringIO.StringO object at 0...at 0xb4fc4f7c>, 'view': 'default/view_msg.html'}>"
p6098
sS'THEAD'
p6099
S"<class 'gluon.html.THEAD'>"
p6100
sS'IS_NULL_OR'
p6101
S"<class 'gluon.validators.IS_EMPTY_OR'>"
p6102
sS'i'
S"'Google California'"
p6103
sg56
S"<Storage {'function': 'view_msg', 'body': <cStri...plications/backimg/', 'post_vars': <Storage {}>}>"
p6104
sS'IS_EXPR'
p6105
S"<class 'gluon.validators.IS_EXPR'>"
p6106
sS'T'
S'<gluon.languages.translator object>'
p6107
sS'IS_IN_SET'
p6108
S"<class 'gluon.validators.IS_IN_SET'>"
p6109
sS'IS_UPLOAD_FILENAME'
p6110
S"<class 'gluon.validators.IS_UPLOAD_FILENAME'>"
p6111
sS'IS_DECIMAL_IN_RANGE'
p6112
S"<class 'gluon.validators.IS_DECIMAL_IN_RANGE'>"
p6113
sssS'traceback'
p6114
S'Traceback (most recent call last):\n  File "/home/nishant/Acaedmics/Sem-2/ITWS-2/web2py/gluon/restricted.py", line 212, in restricted\n    exec ccode in environment\n  File "/home/nishant/Acaedmics/Sem-2/ITWS-2/web2py/applications/backimg/views/default/view_msg.html", line 97, in <module>\nNameError: name \'senderid\' is not defined\n'
p6115
s.